

Microchip MPLAB XC8 Assembler V2.32 build 20210201212658 
                                                                                               Thu Aug 12 17:42:35 2021

Microchip MPLAB XC8 C Compiler v2.32 (Free license) build 20210201212658 Og1 
     1                           	processor	16LF1829
     2                           	pagewidth 120
     3                           	opt	flic
     4                           	psect	idataBANK0,global,class=CODE,delta=2,noexec
     5                           	psect	stringtext1,global,class=STRCODE,delta=2,noexec
     6                           	psect	nvCOMMON,global,class=COMMON,space=1,delta=1,noexec
     7                           	psect	cinit,global,class=CODE,merge=1,delta=2
     8                           	psect	bssBANK0,global,class=BANK0,space=1,delta=1,noexec
     9                           	psect	dataBANK0,global,class=BANK0,space=1,delta=1,noexec
    10                           	psect	clrtext,global,class=CODE,delta=2
    11                           	psect	cstackCOMMON,global,class=COMMON,space=1,delta=1,noexec
    12                           	psect	cstackBANK0,global,class=BANK0,space=1,delta=1,noexec
    13                           	psect	maintext,global,class=CODE,merge=1,split=1,delta=2
    14                           	psect	text1,local,class=CODE,merge=1,delta=2
    15                           	psect	text2,local,class=CODE,merge=1,delta=2
    16                           	psect	text3,local,class=CODE,merge=1,delta=2
    17                           	psect	text4,local,class=CODE,merge=1,delta=2
    18                           	psect	text5,local,class=CODE,merge=1,delta=2
    19                           	psect	text6,local,class=CODE,merge=1,delta=2
    20                           	psect	text7,local,class=CODE,merge=1,delta=2
    21                           	psect	text8,local,class=CODE,merge=1,delta=2
    22                           	psect	text9,local,class=CODE,merge=1,delta=2
    23                           	psect	text10,local,class=CODE,merge=1,delta=2
    24                           	psect	text11,local,class=CODE,merge=1,delta=2
    25                           	psect	text12,local,class=CODE,merge=1,delta=2
    26                           	psect	text13,local,class=CODE,merge=1,delta=2
    27                           	psect	text14,local,class=CODE,merge=1,delta=2
    28                           	psect	text15,local,class=CODE,merge=1,delta=2
    29                           	psect	text16,local,class=CODE,merge=1,delta=2
    30                           	psect	text17,local,class=CODE,merge=1,delta=2
    31                           	psect	text18,local,class=CODE,merge=1,delta=2
    32                           	psect	text19,local,class=CODE,merge=1,delta=2
    33                           	psect	text20,local,class=CODE,merge=1,delta=2
    34                           	psect	text21,local,class=CODE,merge=1,delta=2
    35                           	psect	text22,local,class=CODE,merge=1,delta=2
    36                           	psect	text23,local,class=CODE,merge=1,delta=2
    37                           	psect	text24,local,class=CODE,merge=1,delta=2
    38                           	psect	text25,local,class=CODE,merge=1,inline,delta=2
    39                           	psect	text26,local,class=CODE,merge=1,delta=2
    40                           	psect	text27,local,class=CODE,merge=1,delta=2
    41                           	psect	text28,local,class=CODE,merge=1,delta=2
    42                           	psect	text29,local,class=CODE,merge=1,inline,delta=2
    43                           	psect	text30,local,class=CODE,merge=1,inline,delta=2
    44                           	psect	text31,local,class=CODE,merge=1,delta=2
    45                           	psect	text32,local,class=CODE,merge=1,delta=2
    46                           	psect	text33,local,class=CODE,merge=1,delta=2
    47                           	psect	text34,local,class=CODE,merge=1,delta=2
    48                           	psect	text35,local,class=CODE,merge=1,delta=2
    49                           	psect	text36,local,class=CODE,merge=1,delta=2
    50                           	psect	text37,local,class=CODE,merge=1,delta=2
    51                           	psect	text38,local,class=CODE,merge=1,delta=2
    52                           	psect	text39,local,class=CODE,merge=1,delta=2
    53                           	psect	text40,local,class=CODE,merge=1,delta=2
    54                           	psect	text41,local,class=CODE,merge=1,delta=2
    55                           	psect	text42,local,class=CODE,merge=1,delta=2
    56                           	psect	text43,local,class=CODE,merge=1,delta=2
    57                           	psect	text44,local,class=CODE,merge=1,delta=2
    58                           	psect	text45,local,class=CODE,merge=1,delta=2
    59                           	psect	text46,local,class=CODE,merge=1,delta=2
    60                           	psect	text47,local,class=CODE,merge=1,inline,delta=2
    61                           	psect	text48,local,class=CODE,merge=1,inline,delta=2
    62                           	psect	text49,local,class=CODE,merge=1,inline,delta=2
    63                           	psect	text50,local,class=CODE,merge=1,inline,delta=2
    64                           	psect	text51,local,class=CODE,merge=1,inline,delta=2
    65                           	psect	text52,local,class=CODE,merge=1,inline,delta=2
    66                           	psect	text53,local,class=CODE,merge=1,inline,delta=2
    67                           	psect	text54,local,class=CODE,merge=1,delta=2
    68                           	psect	text55,local,class=CODE,merge=1,delta=2
    69                           	psect	text56,local,class=CODE,merge=1,delta=2
    70                           	psect	text57,local,class=CODE,merge=1,delta=2
    71                           	psect	text58,local,class=CODE,merge=1,delta=2
    72                           	psect	text59,local,class=CODE,merge=1,delta=2
    73                           	psect	text60,local,class=CODE,merge=1,delta=2
    74                           	psect	text61,local,class=CODE,merge=1,delta=2
    75                           	psect	text62,local,class=CODE,merge=1,delta=2
    76                           	psect	text63,local,class=CODE,merge=1,delta=2
    77                           	psect	text64,local,class=CODE,merge=1,delta=2
    78                           	psect	text65,local,class=CODE,merge=1,delta=2
    79                           	psect	text66,local,class=CODE,merge=1,delta=2
    80                           	psect	text67,local,class=CODE,merge=1,delta=2
    81                           	psect	text68,local,class=CODE,merge=1,delta=2
    82                           	psect	text69,local,class=CODE,merge=1,inline,delta=2
    83                           	psect	text70,local,class=CODE,merge=1,inline,delta=2
    84                           	psect	text71,local,class=CODE,merge=1,inline,delta=2
    85                           	psect	text72,local,class=CODE,merge=1,delta=2
    86                           	psect	text73,local,class=CODE,merge=1,inline,delta=2
    87                           	psect	text74,local,class=CODE,merge=1,inline,delta=2
    88                           	psect	text75,local,class=CODE,merge=1,inline,delta=2
    89                           	psect	intentry,global,class=CODE,delta=2
    90                           	psect	text77,local,class=CODE,merge=1,delta=2
    91                           	psect	text78,local,class=CODE,merge=1,delta=2
    92                           	psect	text79,local,class=CODE,merge=1,delta=2
    93                           	psect	text80,local,class=CODE,merge=1,delta=2
    94                           	psect	text81,local,class=CODE,merge=1,delta=2
    95                           	psect	text82,local,class=CODE,merge=1,delta=2
    96                           	psect	text83,local,class=CODE,merge=1,delta=2
    97                           	psect	text84,local,class=CODE,merge=1,delta=2
    98                           	psect	text85,local,class=CODE,merge=1,delta=2
    99                           	psect	text86,local,class=CODE,merge=1,delta=2
   100                           	psect	text87,local,class=CODE,merge=1,delta=2
   101                           	psect	config,global,abs,ovrld,class=CONFIG,space=4,delta=2,noexec
   102                           	dabs	1,0x7E,2
   103  0000                     
   104                           ; Version 2.20
   105                           ; Generated 12/02/2020 GMT
   106                           ; 
   107                           ; Copyright © 2020, Microchip Technology Inc. and its subsidiaries ("Microchip")
   108                           ; All rights reserved.
   109                           ; 
   110                           ; This software is developed by Microchip Technology Inc. and its subsidiaries ("Microch
      +                          ip").
   111                           ; 
   112                           ; Redistribution and use in source and binary forms, with or without modification, are
   113                           ; permitted provided that the following conditions are met:
   114                           ; 
   115                           ;     1. Redistributions of source code must retain the above copyright notice, this lis
      +                          t of
   116                           ;        conditions and the following disclaimer.
   117                           ; 
   118                           ;     2. Redistributions in binary form must reproduce the above copyright notice, this 
      +                          list
   119                           ;        of conditions and the following disclaimer in the documentation and/or other
   120                           ;        materials provided with the distribution.
   121                           ; 
   122                           ;     3. Microchip's name may not be used to endorse or promote products derived from th
      +                          is
   123                           ;        software without specific prior written permission.
   124                           ; 
   125                           ; THIS SOFTWARE IS PROVIDED BY MICROCHIP "AS IS" AND ANY EXPRESS OR IMPLIED WARRANTIES,
   126                           ; INCLUDING, BUT NOT LIMITED TO, THE IMPLIED WARRANTIES OF MERCHANTABILITY AND FITNESS F
      +                          OR
   127                           ; PURPOSE ARE DISCLAIMED.  IN NO EVENT SHALL MICROCHIP BE LIABLE FOR ANY DIRECT, INDIREC
      +                          T,
   128                           ; INCIDENTAL, SPECIAL, EXEMPLARY, OR CONSEQUENTIAL DAMAGES (INCLUDING BUT NOT LIMITED TO
   129                           ; PROCUREMENT OF SUBSTITUTE GOODS OR SERVICES; LOSS OF USE, DATA OR PROFITS; OR BUSINESS
   130                           ; INTERRUPTION) HOWSOEVER CAUSED AND ON ANY THEORY OF LIABILITY, WHETHER IN CONTRACT, ST
      +                          RICT
   131                           ; LIABILITY, OR TORT (INCLUDING NEGLIGENCE OR OTHERWISE) ARISING IN ANY WAY OUT OF THE U
      +                          SE OF
   132                           ; THIS SOFTWARE, EVEN IF ADVISED OF THE POSSIBILITY OF SUCH DAMAGE.
   133                           ; 
   134                           ; 
   135                           ; Code-generator required, PIC16LF1829 Definitions
   136                           ; 
   137                           ; SFR Addresses
   138  0000                     	;# 
   139  0001                     	;# 
   140  0002                     	;# 
   141  0003                     	;# 
   142  0004                     	;# 
   143  0005                     	;# 
   144  0006                     	;# 
   145  0007                     	;# 
   146  0008                     	;# 
   147  0009                     	;# 
   148  000A                     	;# 
   149  000B                     	;# 
   150  000C                     	;# 
   151  000D                     	;# 
   152  000E                     	;# 
   153  0011                     	;# 
   154  0012                     	;# 
   155  0013                     	;# 
   156  0014                     	;# 
   157  0015                     	;# 
   158  0016                     	;# 
   159  0016                     	;# 
   160  0017                     	;# 
   161  0018                     	;# 
   162  0019                     	;# 
   163  001A                     	;# 
   164  001B                     	;# 
   165  001C                     	;# 
   166  001E                     	;# 
   167  001F                     	;# 
   168  008C                     	;# 
   169  008D                     	;# 
   170  008E                     	;# 
   171  0091                     	;# 
   172  0092                     	;# 
   173  0093                     	;# 
   174  0094                     	;# 
   175  0095                     	;# 
   176  0096                     	;# 
   177  0097                     	;# 
   178  0098                     	;# 
   179  0099                     	;# 
   180  009A                     	;# 
   181  009B                     	;# 
   182  009B                     	;# 
   183  009C                     	;# 
   184  009D                     	;# 
   185  009E                     	;# 
   186  010C                     	;# 
   187  010D                     	;# 
   188  010E                     	;# 
   189  0111                     	;# 
   190  0112                     	;# 
   191  0113                     	;# 
   192  0114                     	;# 
   193  0115                     	;# 
   194  0116                     	;# 
   195  0117                     	;# 
   196  0118                     	;# 
   197  0119                     	;# 
   198  011A                     	;# 
   199  011B                     	;# 
   200  011D                     	;# 
   201  011E                     	;# 
   202  018C                     	;# 
   203  018D                     	;# 
   204  018E                     	;# 
   205  0191                     	;# 
   206  0191                     	;# 
   207  0192                     	;# 
   208  0193                     	;# 
   209  0193                     	;# 
   210  0193                     	;# 
   211  0194                     	;# 
   212  0195                     	;# 
   213  0196                     	;# 
   214  0199                     	;# 
   215  019A                     	;# 
   216  019B                     	;# 
   217  019B                     	;# 
   218  019B                     	;# 
   219  019B                     	;# 
   220  019C                     	;# 
   221  019C                     	;# 
   222  019D                     	;# 
   223  019E                     	;# 
   224  019F                     	;# 
   225  020C                     	;# 
   226  020D                     	;# 
   227  020E                     	;# 
   228  0211                     	;# 
   229  0211                     	;# 
   230  0212                     	;# 
   231  0212                     	;# 
   232  0213                     	;# 
   233  0213                     	;# 
   234  0214                     	;# 
   235  0214                     	;# 
   236  0215                     	;# 
   237  0215                     	;# 
   238  0215                     	;# 
   239  0216                     	;# 
   240  0216                     	;# 
   241  0217                     	;# 
   242  0217                     	;# 
   243  0219                     	;# 
   244  021A                     	;# 
   245  021B                     	;# 
   246  021C                     	;# 
   247  021D                     	;# 
   248  021E                     	;# 
   249  021F                     	;# 
   250  0291                     	;# 
   251  0291                     	;# 
   252  0292                     	;# 
   253  0293                     	;# 
   254  0294                     	;# 
   255  0295                     	;# 
   256  0295                     	;# 
   257  0296                     	;# 
   258  0298                     	;# 
   259  0298                     	;# 
   260  0299                     	;# 
   261  029A                     	;# 
   262  029B                     	;# 
   263  029C                     	;# 
   264  029D                     	;# 
   265  029E                     	;# 
   266  0311                     	;# 
   267  0311                     	;# 
   268  0312                     	;# 
   269  0313                     	;# 
   270  0318                     	;# 
   271  0318                     	;# 
   272  0319                     	;# 
   273  031A                     	;# 
   274  038C                     	;# 
   275  038D                     	;# 
   276  038E                     	;# 
   277  0391                     	;# 
   278  0392                     	;# 
   279  0393                     	;# 
   280  0394                     	;# 
   281  0395                     	;# 
   282  0396                     	;# 
   283  039A                     	;# 
   284  039C                     	;# 
   285  039D                     	;# 
   286  039E                     	;# 
   287  039F                     	;# 
   288  0415                     	;# 
   289  0416                     	;# 
   290  0417                     	;# 
   291  041C                     	;# 
   292  041D                     	;# 
   293  041E                     	;# 
   294  0FE4                     	;# 
   295  0FE5                     	;# 
   296  0FE6                     	;# 
   297  0FE7                     	;# 
   298  0FE8                     	;# 
   299  0FE9                     	;# 
   300  0FEA                     	;# 
   301  0FEB                     	;# 
   302  0FED                     	;# 
   303  0FEE                     	;# 
   304  0FEF                     	;# 
   305  0000                     	;# 
   306  0001                     	;# 
   307  0002                     	;# 
   308  0003                     	;# 
   309  0004                     	;# 
   310  0005                     	;# 
   311  0006                     	;# 
   312  0007                     	;# 
   313  0008                     	;# 
   314  0009                     	;# 
   315  000A                     	;# 
   316  000B                     	;# 
   317  000C                     	;# 
   318  000D                     	;# 
   319  000E                     	;# 
   320  0011                     	;# 
   321  0012                     	;# 
   322  0013                     	;# 
   323  0014                     	;# 
   324  0015                     	;# 
   325  0016                     	;# 
   326  0016                     	;# 
   327  0017                     	;# 
   328  0018                     	;# 
   329  0019                     	;# 
   330  001A                     	;# 
   331  001B                     	;# 
   332  001C                     	;# 
   333  001E                     	;# 
   334  001F                     	;# 
   335  008C                     	;# 
   336  008D                     	;# 
   337  008E                     	;# 
   338  0091                     	;# 
   339  0092                     	;# 
   340  0093                     	;# 
   341  0094                     	;# 
   342  0095                     	;# 
   343  0096                     	;# 
   344  0097                     	;# 
   345  0098                     	;# 
   346  0099                     	;# 
   347  009A                     	;# 
   348  009B                     	;# 
   349  009B                     	;# 
   350  009C                     	;# 
   351  009D                     	;# 
   352  009E                     	;# 
   353  010C                     	;# 
   354  010D                     	;# 
   355  010E                     	;# 
   356  0111                     	;# 
   357  0112                     	;# 
   358  0113                     	;# 
   359  0114                     	;# 
   360  0115                     	;# 
   361  0116                     	;# 
   362  0117                     	;# 
   363  0118                     	;# 
   364  0119                     	;# 
   365  011A                     	;# 
   366  011B                     	;# 
   367  011D                     	;# 
   368  011E                     	;# 
   369  018C                     	;# 
   370  018D                     	;# 
   371  018E                     	;# 
   372  0191                     	;# 
   373  0191                     	;# 
   374  0192                     	;# 
   375  0193                     	;# 
   376  0193                     	;# 
   377  0193                     	;# 
   378  0194                     	;# 
   379  0195                     	;# 
   380  0196                     	;# 
   381  0199                     	;# 
   382  019A                     	;# 
   383  019B                     	;# 
   384  019B                     	;# 
   385  019B                     	;# 
   386  019B                     	;# 
   387  019C                     	;# 
   388  019C                     	;# 
   389  019D                     	;# 
   390  019E                     	;# 
   391  019F                     	;# 
   392  020C                     	;# 
   393  020D                     	;# 
   394  020E                     	;# 
   395  0211                     	;# 
   396  0211                     	;# 
   397  0212                     	;# 
   398  0212                     	;# 
   399  0213                     	;# 
   400  0213                     	;# 
   401  0214                     	;# 
   402  0214                     	;# 
   403  0215                     	;# 
   404  0215                     	;# 
   405  0215                     	;# 
   406  0216                     	;# 
   407  0216                     	;# 
   408  0217                     	;# 
   409  0217                     	;# 
   410  0219                     	;# 
   411  021A                     	;# 
   412  021B                     	;# 
   413  021C                     	;# 
   414  021D                     	;# 
   415  021E                     	;# 
   416  021F                     	;# 
   417  0291                     	;# 
   418  0291                     	;# 
   419  0292                     	;# 
   420  0293                     	;# 
   421  0294                     	;# 
   422  0295                     	;# 
   423  0295                     	;# 
   424  0296                     	;# 
   425  0298                     	;# 
   426  0298                     	;# 
   427  0299                     	;# 
   428  029A                     	;# 
   429  029B                     	;# 
   430  029C                     	;# 
   431  029D                     	;# 
   432  029E                     	;# 
   433  0311                     	;# 
   434  0311                     	;# 
   435  0312                     	;# 
   436  0313                     	;# 
   437  0318                     	;# 
   438  0318                     	;# 
   439  0319                     	;# 
   440  031A                     	;# 
   441  038C                     	;# 
   442  038D                     	;# 
   443  038E                     	;# 
   444  0391                     	;# 
   445  0392                     	;# 
   446  0393                     	;# 
   447  0394                     	;# 
   448  0395                     	;# 
   449  0396                     	;# 
   450  039A                     	;# 
   451  039C                     	;# 
   452  039D                     	;# 
   453  039E                     	;# 
   454  039F                     	;# 
   455  0415                     	;# 
   456  0416                     	;# 
   457  0417                     	;# 
   458  041C                     	;# 
   459  041D                     	;# 
   460  041E                     	;# 
   461  0FE4                     	;# 
   462  0FE5                     	;# 
   463  0FE6                     	;# 
   464  0FE7                     	;# 
   465  0FE8                     	;# 
   466  0FE9                     	;# 
   467  0FEA                     	;# 
   468  0FEB                     	;# 
   469  0FED                     	;# 
   470  0FEE                     	;# 
   471  0FEF                     	;# 
   472  0000                     	;# 
   473  0001                     	;# 
   474  0002                     	;# 
   475  0003                     	;# 
   476  0004                     	;# 
   477  0005                     	;# 
   478  0006                     	;# 
   479  0007                     	;# 
   480  0008                     	;# 
   481  0009                     	;# 
   482  000A                     	;# 
   483  000B                     	;# 
   484  000C                     	;# 
   485  000D                     	;# 
   486  000E                     	;# 
   487  0011                     	;# 
   488  0012                     	;# 
   489  0013                     	;# 
   490  0014                     	;# 
   491  0015                     	;# 
   492  0016                     	;# 
   493  0016                     	;# 
   494  0017                     	;# 
   495  0018                     	;# 
   496  0019                     	;# 
   497  001A                     	;# 
   498  001B                     	;# 
   499  001C                     	;# 
   500  001E                     	;# 
   501  001F                     	;# 
   502  008C                     	;# 
   503  008D                     	;# 
   504  008E                     	;# 
   505  0091                     	;# 
   506  0092                     	;# 
   507  0093                     	;# 
   508  0094                     	;# 
   509  0095                     	;# 
   510  0096                     	;# 
   511  0097                     	;# 
   512  0098                     	;# 
   513  0099                     	;# 
   514  009A                     	;# 
   515  009B                     	;# 
   516  009B                     	;# 
   517  009C                     	;# 
   518  009D                     	;# 
   519  009E                     	;# 
   520  010C                     	;# 
   521  010D                     	;# 
   522  010E                     	;# 
   523  0111                     	;# 
   524  0112                     	;# 
   525  0113                     	;# 
   526  0114                     	;# 
   527  0115                     	;# 
   528  0116                     	;# 
   529  0117                     	;# 
   530  0118                     	;# 
   531  0119                     	;# 
   532  011A                     	;# 
   533  011B                     	;# 
   534  011D                     	;# 
   535  011E                     	;# 
   536  018C                     	;# 
   537  018D                     	;# 
   538  018E                     	;# 
   539  0191                     	;# 
   540  0191                     	;# 
   541  0192                     	;# 
   542  0193                     	;# 
   543  0193                     	;# 
   544  0193                     	;# 
   545  0194                     	;# 
   546  0195                     	;# 
   547  0196                     	;# 
   548  0199                     	;# 
   549  019A                     	;# 
   550  019B                     	;# 
   551  019B                     	;# 
   552  019B                     	;# 
   553  019B                     	;# 
   554  019C                     	;# 
   555  019C                     	;# 
   556  019D                     	;# 
   557  019E                     	;# 
   558  019F                     	;# 
   559  020C                     	;# 
   560  020D                     	;# 
   561  020E                     	;# 
   562  0211                     	;# 
   563  0211                     	;# 
   564  0212                     	;# 
   565  0212                     	;# 
   566  0213                     	;# 
   567  0213                     	;# 
   568  0214                     	;# 
   569  0214                     	;# 
   570  0215                     	;# 
   571  0215                     	;# 
   572  0215                     	;# 
   573  0216                     	;# 
   574  0216                     	;# 
   575  0217                     	;# 
   576  0217                     	;# 
   577  0219                     	;# 
   578  021A                     	;# 
   579  021B                     	;# 
   580  021C                     	;# 
   581  021D                     	;# 
   582  021E                     	;# 
   583  021F                     	;# 
   584  0291                     	;# 
   585  0291                     	;# 
   586  0292                     	;# 
   587  0293                     	;# 
   588  0294                     	;# 
   589  0295                     	;# 
   590  0295                     	;# 
   591  0296                     	;# 
   592  0298                     	;# 
   593  0298                     	;# 
   594  0299                     	;# 
   595  029A                     	;# 
   596  029B                     	;# 
   597  029C                     	;# 
   598  029D                     	;# 
   599  029E                     	;# 
   600  0311                     	;# 
   601  0311                     	;# 
   602  0312                     	;# 
   603  0313                     	;# 
   604  0318                     	;# 
   605  0318                     	;# 
   606  0319                     	;# 
   607  031A                     	;# 
   608  038C                     	;# 
   609  038D                     	;# 
   610  038E                     	;# 
   611  0391                     	;# 
   612  0392                     	;# 
   613  0393                     	;# 
   614  0394                     	;# 
   615  0395                     	;# 
   616  0396                     	;# 
   617  039A                     	;# 
   618  039C                     	;# 
   619  039D                     	;# 
   620  039E                     	;# 
   621  039F                     	;# 
   622  0415                     	;# 
   623  0416                     	;# 
   624  0417                     	;# 
   625  041C                     	;# 
   626  041D                     	;# 
   627  041E                     	;# 
   628  0FE4                     	;# 
   629  0FE5                     	;# 
   630  0FE6                     	;# 
   631  0FE7                     	;# 
   632  0FE8                     	;# 
   633  0FE9                     	;# 
   634  0FEA                     	;# 
   635  0FEB                     	;# 
   636  0FED                     	;# 
   637  0FEE                     	;# 
   638  0FEF                     	;# 
   639  0000                     	;# 
   640  0001                     	;# 
   641  0002                     	;# 
   642  0003                     	;# 
   643  0004                     	;# 
   644  0005                     	;# 
   645  0006                     	;# 
   646  0007                     	;# 
   647  0008                     	;# 
   648  0009                     	;# 
   649  000A                     	;# 
   650  000B                     	;# 
   651  000C                     	;# 
   652  000D                     	;# 
   653  000E                     	;# 
   654  0011                     	;# 
   655  0012                     	;# 
   656  0013                     	;# 
   657  0014                     	;# 
   658  0015                     	;# 
   659  0016                     	;# 
   660  0016                     	;# 
   661  0017                     	;# 
   662  0018                     	;# 
   663  0019                     	;# 
   664  001A                     	;# 
   665  001B                     	;# 
   666  001C                     	;# 
   667  001E                     	;# 
   668  001F                     	;# 
   669  008C                     	;# 
   670  008D                     	;# 
   671  008E                     	;# 
   672  0091                     	;# 
   673  0092                     	;# 
   674  0093                     	;# 
   675  0094                     	;# 
   676  0095                     	;# 
   677  0096                     	;# 
   678  0097                     	;# 
   679  0098                     	;# 
   680  0099                     	;# 
   681  009A                     	;# 
   682  009B                     	;# 
   683  009B                     	;# 
   684  009C                     	;# 
   685  009D                     	;# 
   686  009E                     	;# 
   687  010C                     	;# 
   688  010D                     	;# 
   689  010E                     	;# 
   690  0111                     	;# 
   691  0112                     	;# 
   692  0113                     	;# 
   693  0114                     	;# 
   694  0115                     	;# 
   695  0116                     	;# 
   696  0117                     	;# 
   697  0118                     	;# 
   698  0119                     	;# 
   699  011A                     	;# 
   700  011B                     	;# 
   701  011D                     	;# 
   702  011E                     	;# 
   703  018C                     	;# 
   704  018D                     	;# 
   705  018E                     	;# 
   706  0191                     	;# 
   707  0191                     	;# 
   708  0192                     	;# 
   709  0193                     	;# 
   710  0193                     	;# 
   711  0193                     	;# 
   712  0194                     	;# 
   713  0195                     	;# 
   714  0196                     	;# 
   715  0199                     	;# 
   716  019A                     	;# 
   717  019B                     	;# 
   718  019B                     	;# 
   719  019B                     	;# 
   720  019B                     	;# 
   721  019C                     	;# 
   722  019C                     	;# 
   723  019D                     	;# 
   724  019E                     	;# 
   725  019F                     	;# 
   726  020C                     	;# 
   727  020D                     	;# 
   728  020E                     	;# 
   729  0211                     	;# 
   730  0211                     	;# 
   731  0212                     	;# 
   732  0212                     	;# 
   733  0213                     	;# 
   734  0213                     	;# 
   735  0214                     	;# 
   736  0214                     	;# 
   737  0215                     	;# 
   738  0215                     	;# 
   739  0215                     	;# 
   740  0216                     	;# 
   741  0216                     	;# 
   742  0217                     	;# 
   743  0217                     	;# 
   744  0219                     	;# 
   745  021A                     	;# 
   746  021B                     	;# 
   747  021C                     	;# 
   748  021D                     	;# 
   749  021E                     	;# 
   750  021F                     	;# 
   751  0291                     	;# 
   752  0291                     	;# 
   753  0292                     	;# 
   754  0293                     	;# 
   755  0294                     	;# 
   756  0295                     	;# 
   757  0295                     	;# 
   758  0296                     	;# 
   759  0298                     	;# 
   760  0298                     	;# 
   761  0299                     	;# 
   762  029A                     	;# 
   763  029B                     	;# 
   764  029C                     	;# 
   765  029D                     	;# 
   766  029E                     	;# 
   767  0311                     	;# 
   768  0311                     	;# 
   769  0312                     	;# 
   770  0313                     	;# 
   771  0318                     	;# 
   772  0318                     	;# 
   773  0319                     	;# 
   774  031A                     	;# 
   775  038C                     	;# 
   776  038D                     	;# 
   777  038E                     	;# 
   778  0391                     	;# 
   779  0392                     	;# 
   780  0393                     	;# 
   781  0394                     	;# 
   782  0395                     	;# 
   783  0396                     	;# 
   784  039A                     	;# 
   785  039C                     	;# 
   786  039D                     	;# 
   787  039E                     	;# 
   788  039F                     	;# 
   789  0415                     	;# 
   790  0416                     	;# 
   791  0417                     	;# 
   792  041C                     	;# 
   793  041D                     	;# 
   794  041E                     	;# 
   795  0FE4                     	;# 
   796  0FE5                     	;# 
   797  0FE6                     	;# 
   798  0FE7                     	;# 
   799  0FE8                     	;# 
   800  0FE9                     	;# 
   801  0FEA                     	;# 
   802  0FEB                     	;# 
   803  0FED                     	;# 
   804  0FEE                     	;# 
   805  0FEF                     	;# 
   806  0000                     	;# 
   807  0001                     	;# 
   808  0002                     	;# 
   809  0003                     	;# 
   810  0004                     	;# 
   811  0005                     	;# 
   812  0006                     	;# 
   813  0007                     	;# 
   814  0008                     	;# 
   815  0009                     	;# 
   816  000A                     	;# 
   817  000B                     	;# 
   818  000C                     	;# 
   819  000D                     	;# 
   820  000E                     	;# 
   821  0011                     	;# 
   822  0012                     	;# 
   823  0013                     	;# 
   824  0014                     	;# 
   825  0015                     	;# 
   826  0016                     	;# 
   827  0016                     	;# 
   828  0017                     	;# 
   829  0018                     	;# 
   830  0019                     	;# 
   831  001A                     	;# 
   832  001B                     	;# 
   833  001C                     	;# 
   834  001E                     	;# 
   835  001F                     	;# 
   836  008C                     	;# 
   837  008D                     	;# 
   838  008E                     	;# 
   839  0091                     	;# 
   840  0092                     	;# 
   841  0093                     	;# 
   842  0094                     	;# 
   843  0095                     	;# 
   844  0096                     	;# 
   845  0097                     	;# 
   846  0098                     	;# 
   847  0099                     	;# 
   848  009A                     	;# 
   849  009B                     	;# 
   850  009B                     	;# 
   851  009C                     	;# 
   852  009D                     	;# 
   853  009E                     	;# 
   854  010C                     	;# 
   855  010D                     	;# 
   856  010E                     	;# 
   857  0111                     	;# 
   858  0112                     	;# 
   859  0113                     	;# 
   860  0114                     	;# 
   861  0115                     	;# 
   862  0116                     	;# 
   863  0117                     	;# 
   864  0118                     	;# 
   865  0119                     	;# 
   866  011A                     	;# 
   867  011B                     	;# 
   868  011D                     	;# 
   869  011E                     	;# 
   870  018C                     	;# 
   871  018D                     	;# 
   872  018E                     	;# 
   873  0191                     	;# 
   874  0191                     	;# 
   875  0192                     	;# 
   876  0193                     	;# 
   877  0193                     	;# 
   878  0193                     	;# 
   879  0194                     	;# 
   880  0195                     	;# 
   881  0196                     	;# 
   882  0199                     	;# 
   883  019A                     	;# 
   884  019B                     	;# 
   885  019B                     	;# 
   886  019B                     	;# 
   887  019B                     	;# 
   888  019C                     	;# 
   889  019C                     	;# 
   890  019D                     	;# 
   891  019E                     	;# 
   892  019F                     	;# 
   893  020C                     	;# 
   894  020D                     	;# 
   895  020E                     	;# 
   896  0211                     	;# 
   897  0211                     	;# 
   898  0212                     	;# 
   899  0212                     	;# 
   900  0213                     	;# 
   901  0213                     	;# 
   902  0214                     	;# 
   903  0214                     	;# 
   904  0215                     	;# 
   905  0215                     	;# 
   906  0215                     	;# 
   907  0216                     	;# 
   908  0216                     	;# 
   909  0217                     	;# 
   910  0217                     	;# 
   911  0219                     	;# 
   912  021A                     	;# 
   913  021B                     	;# 
   914  021C                     	;# 
   915  021D                     	;# 
   916  021E                     	;# 
   917  021F                     	;# 
   918  0291                     	;# 
   919  0291                     	;# 
   920  0292                     	;# 
   921  0293                     	;# 
   922  0294                     	;# 
   923  0295                     	;# 
   924  0295                     	;# 
   925  0296                     	;# 
   926  0298                     	;# 
   927  0298                     	;# 
   928  0299                     	;# 
   929  029A                     	;# 
   930  029B                     	;# 
   931  029C                     	;# 
   932  029D                     	;# 
   933  029E                     	;# 
   934  0311                     	;# 
   935  0311                     	;# 
   936  0312                     	;# 
   937  0313                     	;# 
   938  0318                     	;# 
   939  0318                     	;# 
   940  0319                     	;# 
   941  031A                     	;# 
   942  038C                     	;# 
   943  038D                     	;# 
   944  038E                     	;# 
   945  0391                     	;# 
   946  0392                     	;# 
   947  0393                     	;# 
   948  0394                     	;# 
   949  0395                     	;# 
   950  0396                     	;# 
   951  039A                     	;# 
   952  039C                     	;# 
   953  039D                     	;# 
   954  039E                     	;# 
   955  039F                     	;# 
   956  0415                     	;# 
   957  0416                     	;# 
   958  0417                     	;# 
   959  041C                     	;# 
   960  041D                     	;# 
   961  041E                     	;# 
   962  0FE4                     	;# 
   963  0FE5                     	;# 
   964  0FE6                     	;# 
   965  0FE7                     	;# 
   966  0FE8                     	;# 
   967  0FE9                     	;# 
   968  0FEA                     	;# 
   969  0FEB                     	;# 
   970  0FED                     	;# 
   971  0FEE                     	;# 
   972  0FEF                     	;# 
   973  0000                     	;# 
   974  0001                     	;# 
   975  0002                     	;# 
   976  0003                     	;# 
   977  0004                     	;# 
   978  0005                     	;# 
   979  0006                     	;# 
   980  0007                     	;# 
   981  0008                     	;# 
   982  0009                     	;# 
   983  000A                     	;# 
   984  000B                     	;# 
   985  000C                     	;# 
   986  000D                     	;# 
   987  000E                     	;# 
   988  0011                     	;# 
   989  0012                     	;# 
   990  0013                     	;# 
   991  0014                     	;# 
   992  0015                     	;# 
   993  0016                     	;# 
   994  0016                     	;# 
   995  0017                     	;# 
   996  0018                     	;# 
   997  0019                     	;# 
   998  001A                     	;# 
   999  001B                     	;# 
  1000  001C                     	;# 
  1001  001E                     	;# 
  1002  001F                     	;# 
  1003  008C                     	;# 
  1004  008D                     	;# 
  1005  008E                     	;# 
  1006  0091                     	;# 
  1007  0092                     	;# 
  1008  0093                     	;# 
  1009  0094                     	;# 
  1010  0095                     	;# 
  1011  0096                     	;# 
  1012  0097                     	;# 
  1013  0098                     	;# 
  1014  0099                     	;# 
  1015  009A                     	;# 
  1016  009B                     	;# 
  1017  009B                     	;# 
  1018  009C                     	;# 
  1019  009D                     	;# 
  1020  009E                     	;# 
  1021  010C                     	;# 
  1022  010D                     	;# 
  1023  010E                     	;# 
  1024  0111                     	;# 
  1025  0112                     	;# 
  1026  0113                     	;# 
  1027  0114                     	;# 
  1028  0115                     	;# 
  1029  0116                     	;# 
  1030  0117                     	;# 
  1031  0118                     	;# 
  1032  0119                     	;# 
  1033  011A                     	;# 
  1034  011B                     	;# 
  1035  011D                     	;# 
  1036  011E                     	;# 
  1037  018C                     	;# 
  1038  018D                     	;# 
  1039  018E                     	;# 
  1040  0191                     	;# 
  1041  0191                     	;# 
  1042  0192                     	;# 
  1043  0193                     	;# 
  1044  0193                     	;# 
  1045  0193                     	;# 
  1046  0194                     	;# 
  1047  0195                     	;# 
  1048  0196                     	;# 
  1049  0199                     	;# 
  1050  019A                     	;# 
  1051  019B                     	;# 
  1052  019B                     	;# 
  1053  019B                     	;# 
  1054  019B                     	;# 
  1055  019C                     	;# 
  1056  019C                     	;# 
  1057  019D                     	;# 
  1058  019E                     	;# 
  1059  019F                     	;# 
  1060  020C                     	;# 
  1061  020D                     	;# 
  1062  020E                     	;# 
  1063  0211                     	;# 
  1064  0211                     	;# 
  1065  0212                     	;# 
  1066  0212                     	;# 
  1067  0213                     	;# 
  1068  0213                     	;# 
  1069  0214                     	;# 
  1070  0214                     	;# 
  1071  0215                     	;# 
  1072  0215                     	;# 
  1073  0215                     	;# 
  1074  0216                     	;# 
  1075  0216                     	;# 
  1076  0217                     	;# 
  1077  0217                     	;# 
  1078  0219                     	;# 
  1079  021A                     	;# 
  1080  021B                     	;# 
  1081  021C                     	;# 
  1082  021D                     	;# 
  1083  021E                     	;# 
  1084  021F                     	;# 
  1085  0291                     	;# 
  1086  0291                     	;# 
  1087  0292                     	;# 
  1088  0293                     	;# 
  1089  0294                     	;# 
  1090  0295                     	;# 
  1091  0295                     	;# 
  1092  0296                     	;# 
  1093  0298                     	;# 
  1094  0298                     	;# 
  1095  0299                     	;# 
  1096  029A                     	;# 
  1097  029B                     	;# 
  1098  029C                     	;# 
  1099  029D                     	;# 
  1100  029E                     	;# 
  1101  0311                     	;# 
  1102  0311                     	;# 
  1103  0312                     	;# 
  1104  0313                     	;# 
  1105  0318                     	;# 
  1106  0318                     	;# 
  1107  0319                     	;# 
  1108  031A                     	;# 
  1109  038C                     	;# 
  1110  038D                     	;# 
  1111  038E                     	;# 
  1112  0391                     	;# 
  1113  0392                     	;# 
  1114  0393                     	;# 
  1115  0394                     	;# 
  1116  0395                     	;# 
  1117  0396                     	;# 
  1118  039A                     	;# 
  1119  039C                     	;# 
  1120  039D                     	;# 
  1121  039E                     	;# 
  1122  039F                     	;# 
  1123  0415                     	;# 
  1124  0416                     	;# 
  1125  0417                     	;# 
  1126  041C                     	;# 
  1127  041D                     	;# 
  1128  041E                     	;# 
  1129  0FE4                     	;# 
  1130  0FE5                     	;# 
  1131  0FE6                     	;# 
  1132  0FE7                     	;# 
  1133  0FE8                     	;# 
  1134  0FE9                     	;# 
  1135  0FEA                     	;# 
  1136  0FEB                     	;# 
  1137  0FED                     	;# 
  1138  0FEE                     	;# 
  1139  0FEF                     	;# 
  1140  0000                     	;# 
  1141  0001                     	;# 
  1142  0002                     	;# 
  1143  0003                     	;# 
  1144  0004                     	;# 
  1145  0005                     	;# 
  1146  0006                     	;# 
  1147  0007                     	;# 
  1148  0008                     	;# 
  1149  0009                     	;# 
  1150  000A                     	;# 
  1151  000B                     	;# 
  1152  000C                     	;# 
  1153  000D                     	;# 
  1154  000E                     	;# 
  1155  0011                     	;# 
  1156  0012                     	;# 
  1157  0013                     	;# 
  1158  0014                     	;# 
  1159  0015                     	;# 
  1160  0016                     	;# 
  1161  0016                     	;# 
  1162  0017                     	;# 
  1163  0018                     	;# 
  1164  0019                     	;# 
  1165  001A                     	;# 
  1166  001B                     	;# 
  1167  001C                     	;# 
  1168  001E                     	;# 
  1169  001F                     	;# 
  1170  008C                     	;# 
  1171  008D                     	;# 
  1172  008E                     	;# 
  1173  0091                     	;# 
  1174  0092                     	;# 
  1175  0093                     	;# 
  1176  0094                     	;# 
  1177  0095                     	;# 
  1178  0096                     	;# 
  1179  0097                     	;# 
  1180  0098                     	;# 
  1181  0099                     	;# 
  1182  009A                     	;# 
  1183  009B                     	;# 
  1184  009B                     	;# 
  1185  009C                     	;# 
  1186  009D                     	;# 
  1187  009E                     	;# 
  1188  010C                     	;# 
  1189  010D                     	;# 
  1190  010E                     	;# 
  1191  0111                     	;# 
  1192  0112                     	;# 
  1193  0113                     	;# 
  1194  0114                     	;# 
  1195  0115                     	;# 
  1196  0116                     	;# 
  1197  0117                     	;# 
  1198  0118                     	;# 
  1199  0119                     	;# 
  1200  011A                     	;# 
  1201  011B                     	;# 
  1202  011D                     	;# 
  1203  011E                     	;# 
  1204  018C                     	;# 
  1205  018D                     	;# 
  1206  018E                     	;# 
  1207  0191                     	;# 
  1208  0191                     	;# 
  1209  0192                     	;# 
  1210  0193                     	;# 
  1211  0193                     	;# 
  1212  0193                     	;# 
  1213  0194                     	;# 
  1214  0195                     	;# 
  1215  0196                     	;# 
  1216  0199                     	;# 
  1217  019A                     	;# 
  1218  019B                     	;# 
  1219  019B                     	;# 
  1220  019B                     	;# 
  1221  019B                     	;# 
  1222  019C                     	;# 
  1223  019C                     	;# 
  1224  019D                     	;# 
  1225  019E                     	;# 
  1226  019F                     	;# 
  1227  020C                     	;# 
  1228  020D                     	;# 
  1229  020E                     	;# 
  1230  0211                     	;# 
  1231  0211                     	;# 
  1232  0212                     	;# 
  1233  0212                     	;# 
  1234  0213                     	;# 
  1235  0213                     	;# 
  1236  0214                     	;# 
  1237  0214                     	;# 
  1238  0215                     	;# 
  1239  0215                     	;# 
  1240  0215                     	;# 
  1241  0216                     	;# 
  1242  0216                     	;# 
  1243  0217                     	;# 
  1244  0217                     	;# 
  1245  0219                     	;# 
  1246  021A                     	;# 
  1247  021B                     	;# 
  1248  021C                     	;# 
  1249  021D                     	;# 
  1250  021E                     	;# 
  1251  021F                     	;# 
  1252  0291                     	;# 
  1253  0291                     	;# 
  1254  0292                     	;# 
  1255  0293                     	;# 
  1256  0294                     	;# 
  1257  0295                     	;# 
  1258  0295                     	;# 
  1259  0296                     	;# 
  1260  0298                     	;# 
  1261  0298                     	;# 
  1262  0299                     	;# 
  1263  029A                     	;# 
  1264  029B                     	;# 
  1265  029C                     	;# 
  1266  029D                     	;# 
  1267  029E                     	;# 
  1268  0311                     	;# 
  1269  0311                     	;# 
  1270  0312                     	;# 
  1271  0313                     	;# 
  1272  0318                     	;# 
  1273  0318                     	;# 
  1274  0319                     	;# 
  1275  031A                     	;# 
  1276  038C                     	;# 
  1277  038D                     	;# 
  1278  038E                     	;# 
  1279  0391                     	;# 
  1280  0392                     	;# 
  1281  0393                     	;# 
  1282  0394                     	;# 
  1283  0395                     	;# 
  1284  0396                     	;# 
  1285  039A                     	;# 
  1286  039C                     	;# 
  1287  039D                     	;# 
  1288  039E                     	;# 
  1289  039F                     	;# 
  1290  0415                     	;# 
  1291  0416                     	;# 
  1292  0417                     	;# 
  1293  041C                     	;# 
  1294  041D                     	;# 
  1295  041E                     	;# 
  1296  0FE4                     	;# 
  1297  0FE5                     	;# 
  1298  0FE6                     	;# 
  1299  0FE7                     	;# 
  1300  0FE8                     	;# 
  1301  0FE9                     	;# 
  1302  0FEA                     	;# 
  1303  0FEB                     	;# 
  1304  0FED                     	;# 
  1305  0FEE                     	;# 
  1306  0FEF                     	;# 
  1307  0000                     	;# 
  1308  0001                     	;# 
  1309  0002                     	;# 
  1310  0003                     	;# 
  1311  0004                     	;# 
  1312  0005                     	;# 
  1313  0006                     	;# 
  1314  0007                     	;# 
  1315  0008                     	;# 
  1316  0009                     	;# 
  1317  000A                     	;# 
  1318  000B                     	;# 
  1319  000C                     	;# 
  1320  000D                     	;# 
  1321  000E                     	;# 
  1322  0011                     	;# 
  1323  0012                     	;# 
  1324  0013                     	;# 
  1325  0014                     	;# 
  1326  0015                     	;# 
  1327  0016                     	;# 
  1328  0016                     	;# 
  1329  0017                     	;# 
  1330  0018                     	;# 
  1331  0019                     	;# 
  1332  001A                     	;# 
  1333  001B                     	;# 
  1334  001C                     	;# 
  1335  001E                     	;# 
  1336  001F                     	;# 
  1337  008C                     	;# 
  1338  008D                     	;# 
  1339  008E                     	;# 
  1340  0091                     	;# 
  1341  0092                     	;# 
  1342  0093                     	;# 
  1343  0094                     	;# 
  1344  0095                     	;# 
  1345  0096                     	;# 
  1346  0097                     	;# 
  1347  0098                     	;# 
  1348  0099                     	;# 
  1349  009A                     	;# 
  1350  009B                     	;# 
  1351  009B                     	;# 
  1352  009C                     	;# 
  1353  009D                     	;# 
  1354  009E                     	;# 
  1355  010C                     	;# 
  1356  010D                     	;# 
  1357  010E                     	;# 
  1358  0111                     	;# 
  1359  0112                     	;# 
  1360  0113                     	;# 
  1361  0114                     	;# 
  1362  0115                     	;# 
  1363  0116                     	;# 
  1364  0117                     	;# 
  1365  0118                     	;# 
  1366  0119                     	;# 
  1367  011A                     	;# 
  1368  011B                     	;# 
  1369  011D                     	;# 
  1370  011E                     	;# 
  1371  018C                     	;# 
  1372  018D                     	;# 
  1373  018E                     	;# 
  1374  0191                     	;# 
  1375  0191                     	;# 
  1376  0192                     	;# 
  1377  0193                     	;# 
  1378  0193                     	;# 
  1379  0193                     	;# 
  1380  0194                     	;# 
  1381  0195                     	;# 
  1382  0196                     	;# 
  1383  0199                     	;# 
  1384  019A                     	;# 
  1385  019B                     	;# 
  1386  019B                     	;# 
  1387  019B                     	;# 
  1388  019B                     	;# 
  1389  019C                     	;# 
  1390  019C                     	;# 
  1391  019D                     	;# 
  1392  019E                     	;# 
  1393  019F                     	;# 
  1394  020C                     	;# 
  1395  020D                     	;# 
  1396  020E                     	;# 
  1397  0211                     	;# 
  1398  0211                     	;# 
  1399  0212                     	;# 
  1400  0212                     	;# 
  1401  0213                     	;# 
  1402  0213                     	;# 
  1403  0214                     	;# 
  1404  0214                     	;# 
  1405  0215                     	;# 
  1406  0215                     	;# 
  1407  0215                     	;# 
  1408  0216                     	;# 
  1409  0216                     	;# 
  1410  0217                     	;# 
  1411  0217                     	;# 
  1412  0219                     	;# 
  1413  021A                     	;# 
  1414  021B                     	;# 
  1415  021C                     	;# 
  1416  021D                     	;# 
  1417  021E                     	;# 
  1418  021F                     	;# 
  1419  0291                     	;# 
  1420  0291                     	;# 
  1421  0292                     	;# 
  1422  0293                     	;# 
  1423  0294                     	;# 
  1424  0295                     	;# 
  1425  0295                     	;# 
  1426  0296                     	;# 
  1427  0298                     	;# 
  1428  0298                     	;# 
  1429  0299                     	;# 
  1430  029A                     	;# 
  1431  029B                     	;# 
  1432  029C                     	;# 
  1433  029D                     	;# 
  1434  029E                     	;# 
  1435  0311                     	;# 
  1436  0311                     	;# 
  1437  0312                     	;# 
  1438  0313                     	;# 
  1439  0318                     	;# 
  1440  0318                     	;# 
  1441  0319                     	;# 
  1442  031A                     	;# 
  1443  038C                     	;# 
  1444  038D                     	;# 
  1445  038E                     	;# 
  1446  0391                     	;# 
  1447  0392                     	;# 
  1448  0393                     	;# 
  1449  0394                     	;# 
  1450  0395                     	;# 
  1451  0396                     	;# 
  1452  039A                     	;# 
  1453  039C                     	;# 
  1454  039D                     	;# 
  1455  039E                     	;# 
  1456  039F                     	;# 
  1457  0415                     	;# 
  1458  0416                     	;# 
  1459  0417                     	;# 
  1460  041C                     	;# 
  1461  041D                     	;# 
  1462  041E                     	;# 
  1463  0FE4                     	;# 
  1464  0FE5                     	;# 
  1465  0FE6                     	;# 
  1466  0FE7                     	;# 
  1467  0FE8                     	;# 
  1468  0FE9                     	;# 
  1469  0FEA                     	;# 
  1470  0FEB                     	;# 
  1471  0FED                     	;# 
  1472  0FEE                     	;# 
  1473  0FEF                     	;# 
  1474  0000                     	;# 
  1475  0001                     	;# 
  1476  0002                     	;# 
  1477  0003                     	;# 
  1478  0004                     	;# 
  1479  0005                     	;# 
  1480  0006                     	;# 
  1481  0007                     	;# 
  1482  0008                     	;# 
  1483  0009                     	;# 
  1484  000A                     	;# 
  1485  000B                     	;# 
  1486  000C                     	;# 
  1487  000D                     	;# 
  1488  000E                     	;# 
  1489  0011                     	;# 
  1490  0012                     	;# 
  1491  0013                     	;# 
  1492  0014                     	;# 
  1493  0015                     	;# 
  1494  0016                     	;# 
  1495  0016                     	;# 
  1496  0017                     	;# 
  1497  0018                     	;# 
  1498  0019                     	;# 
  1499  001A                     	;# 
  1500  001B                     	;# 
  1501  001C                     	;# 
  1502  001E                     	;# 
  1503  001F                     	;# 
  1504  008C                     	;# 
  1505  008D                     	;# 
  1506  008E                     	;# 
  1507  0091                     	;# 
  1508  0092                     	;# 
  1509  0093                     	;# 
  1510  0094                     	;# 
  1511  0095                     	;# 
  1512  0096                     	;# 
  1513  0097                     	;# 
  1514  0098                     	;# 
  1515  0099                     	;# 
  1516  009A                     	;# 
  1517  009B                     	;# 
  1518  009B                     	;# 
  1519  009C                     	;# 
  1520  009D                     	;# 
  1521  009E                     	;# 
  1522  010C                     	;# 
  1523  010D                     	;# 
  1524  010E                     	;# 
  1525  0111                     	;# 
  1526  0112                     	;# 
  1527  0113                     	;# 
  1528  0114                     	;# 
  1529  0115                     	;# 
  1530  0116                     	;# 
  1531  0117                     	;# 
  1532  0118                     	;# 
  1533  0119                     	;# 
  1534  011A                     	;# 
  1535  011B                     	;# 
  1536  011D                     	;# 
  1537  011E                     	;# 
  1538  018C                     	;# 
  1539  018D                     	;# 
  1540  018E                     	;# 
  1541  0191                     	;# 
  1542  0191                     	;# 
  1543  0192                     	;# 
  1544  0193                     	;# 
  1545  0193                     	;# 
  1546  0193                     	;# 
  1547  0194                     	;# 
  1548  0195                     	;# 
  1549  0196                     	;# 
  1550  0199                     	;# 
  1551  019A                     	;# 
  1552  019B                     	;# 
  1553  019B                     	;# 
  1554  019B                     	;# 
  1555  019B                     	;# 
  1556  019C                     	;# 
  1557  019C                     	;# 
  1558  019D                     	;# 
  1559  019E                     	;# 
  1560  019F                     	;# 
  1561  020C                     	;# 
  1562  020D                     	;# 
  1563  020E                     	;# 
  1564  0211                     	;# 
  1565  0211                     	;# 
  1566  0212                     	;# 
  1567  0212                     	;# 
  1568  0213                     	;# 
  1569  0213                     	;# 
  1570  0214                     	;# 
  1571  0214                     	;# 
  1572  0215                     	;# 
  1573  0215                     	;# 
  1574  0215                     	;# 
  1575  0216                     	;# 
  1576  0216                     	;# 
  1577  0217                     	;# 
  1578  0217                     	;# 
  1579  0219                     	;# 
  1580  021A                     	;# 
  1581  021B                     	;# 
  1582  021C                     	;# 
  1583  021D                     	;# 
  1584  021E                     	;# 
  1585  021F                     	;# 
  1586  0291                     	;# 
  1587  0291                     	;# 
  1588  0292                     	;# 
  1589  0293                     	;# 
  1590  0294                     	;# 
  1591  0295                     	;# 
  1592  0295                     	;# 
  1593  0296                     	;# 
  1594  0298                     	;# 
  1595  0298                     	;# 
  1596  0299                     	;# 
  1597  029A                     	;# 
  1598  029B                     	;# 
  1599  029C                     	;# 
  1600  029D                     	;# 
  1601  029E                     	;# 
  1602  0311                     	;# 
  1603  0311                     	;# 
  1604  0312                     	;# 
  1605  0313                     	;# 
  1606  0318                     	;# 
  1607  0318                     	;# 
  1608  0319                     	;# 
  1609  031A                     	;# 
  1610  038C                     	;# 
  1611  038D                     	;# 
  1612  038E                     	;# 
  1613  0391                     	;# 
  1614  0392                     	;# 
  1615  0393                     	;# 
  1616  0394                     	;# 
  1617  0395                     	;# 
  1618  0396                     	;# 
  1619  039A                     	;# 
  1620  039C                     	;# 
  1621  039D                     	;# 
  1622  039E                     	;# 
  1623  039F                     	;# 
  1624  0415                     	;# 
  1625  0416                     	;# 
  1626  0417                     	;# 
  1627  041C                     	;# 
  1628  041D                     	;# 
  1629  041E                     	;# 
  1630  0FE4                     	;# 
  1631  0FE5                     	;# 
  1632  0FE6                     	;# 
  1633  0FE7                     	;# 
  1634  0FE8                     	;# 
  1635  0FE9                     	;# 
  1636  0FEA                     	;# 
  1637  0FEB                     	;# 
  1638  0FED                     	;# 
  1639  0FEE                     	;# 
  1640  0FEF                     	;# 
  1641  0000                     	;# 
  1642  0001                     	;# 
  1643  0002                     	;# 
  1644  0003                     	;# 
  1645  0004                     	;# 
  1646  0005                     	;# 
  1647  0006                     	;# 
  1648  0007                     	;# 
  1649  0008                     	;# 
  1650  0009                     	;# 
  1651  000A                     	;# 
  1652  000B                     	;# 
  1653  000C                     	;# 
  1654  000D                     	;# 
  1655  000E                     	;# 
  1656  0011                     	;# 
  1657  0012                     	;# 
  1658  0013                     	;# 
  1659  0014                     	;# 
  1660  0015                     	;# 
  1661  0016                     	;# 
  1662  0016                     	;# 
  1663  0017                     	;# 
  1664  0018                     	;# 
  1665  0019                     	;# 
  1666  001A                     	;# 
  1667  001B                     	;# 
  1668  001C                     	;# 
  1669  001E                     	;# 
  1670  001F                     	;# 
  1671  008C                     	;# 
  1672  008D                     	;# 
  1673  008E                     	;# 
  1674  0091                     	;# 
  1675  0092                     	;# 
  1676  0093                     	;# 
  1677  0094                     	;# 
  1678  0095                     	;# 
  1679  0096                     	;# 
  1680  0097                     	;# 
  1681  0098                     	;# 
  1682  0099                     	;# 
  1683  009A                     	;# 
  1684  009B                     	;# 
  1685  009B                     	;# 
  1686  009C                     	;# 
  1687  009D                     	;# 
  1688  009E                     	;# 
  1689  010C                     	;# 
  1690  010D                     	;# 
  1691  010E                     	;# 
  1692  0111                     	;# 
  1693  0112                     	;# 
  1694  0113                     	;# 
  1695  0114                     	;# 
  1696  0115                     	;# 
  1697  0116                     	;# 
  1698  0117                     	;# 
  1699  0118                     	;# 
  1700  0119                     	;# 
  1701  011A                     	;# 
  1702  011B                     	;# 
  1703  011D                     	;# 
  1704  011E                     	;# 
  1705  018C                     	;# 
  1706  018D                     	;# 
  1707  018E                     	;# 
  1708  0191                     	;# 
  1709  0191                     	;# 
  1710  0192                     	;# 
  1711  0193                     	;# 
  1712  0193                     	;# 
  1713  0193                     	;# 
  1714  0194                     	;# 
  1715  0195                     	;# 
  1716  0196                     	;# 
  1717  0199                     	;# 
  1718  019A                     	;# 
  1719  019B                     	;# 
  1720  019B                     	;# 
  1721  019B                     	;# 
  1722  019B                     	;# 
  1723  019C                     	;# 
  1724  019C                     	;# 
  1725  019D                     	;# 
  1726  019E                     	;# 
  1727  019F                     	;# 
  1728  020C                     	;# 
  1729  020D                     	;# 
  1730  020E                     	;# 
  1731  0211                     	;# 
  1732  0211                     	;# 
  1733  0212                     	;# 
  1734  0212                     	;# 
  1735  0213                     	;# 
  1736  0213                     	;# 
  1737  0214                     	;# 
  1738  0214                     	;# 
  1739  0215                     	;# 
  1740  0215                     	;# 
  1741  0215                     	;# 
  1742  0216                     	;# 
  1743  0216                     	;# 
  1744  0217                     	;# 
  1745  0217                     	;# 
  1746  0219                     	;# 
  1747  021A                     	;# 
  1748  021B                     	;# 
  1749  021C                     	;# 
  1750  021D                     	;# 
  1751  021E                     	;# 
  1752  021F                     	;# 
  1753  0291                     	;# 
  1754  0291                     	;# 
  1755  0292                     	;# 
  1756  0293                     	;# 
  1757  0294                     	;# 
  1758  0295                     	;# 
  1759  0295                     	;# 
  1760  0296                     	;# 
  1761  0298                     	;# 
  1762  0298                     	;# 
  1763  0299                     	;# 
  1764  029A                     	;# 
  1765  029B                     	;# 
  1766  029C                     	;# 
  1767  029D                     	;# 
  1768  029E                     	;# 
  1769  0311                     	;# 
  1770  0311                     	;# 
  1771  0312                     	;# 
  1772  0313                     	;# 
  1773  0318                     	;# 
  1774  0318                     	;# 
  1775  0319                     	;# 
  1776  031A                     	;# 
  1777  038C                     	;# 
  1778  038D                     	;# 
  1779  038E                     	;# 
  1780  0391                     	;# 
  1781  0392                     	;# 
  1782  0393                     	;# 
  1783  0394                     	;# 
  1784  0395                     	;# 
  1785  0396                     	;# 
  1786  039A                     	;# 
  1787  039C                     	;# 
  1788  039D                     	;# 
  1789  039E                     	;# 
  1790  039F                     	;# 
  1791  0415                     	;# 
  1792  0416                     	;# 
  1793  0417                     	;# 
  1794  041C                     	;# 
  1795  041D                     	;# 
  1796  041E                     	;# 
  1797  0FE4                     	;# 
  1798  0FE5                     	;# 
  1799  0FE6                     	;# 
  1800  0FE7                     	;# 
  1801  0FE8                     	;# 
  1802  0FE9                     	;# 
  1803  0FEA                     	;# 
  1804  0FEB                     	;# 
  1805  0FED                     	;# 
  1806  0FEE                     	;# 
  1807  0FEF                     	;# 
  1808  0000                     	;# 
  1809  0001                     	;# 
  1810  0002                     	;# 
  1811  0003                     	;# 
  1812  0004                     	;# 
  1813  0005                     	;# 
  1814  0006                     	;# 
  1815  0007                     	;# 
  1816  0008                     	;# 
  1817  0009                     	;# 
  1818  000A                     	;# 
  1819  000B                     	;# 
  1820  000C                     	;# 
  1821  000D                     	;# 
  1822  000E                     	;# 
  1823  0011                     	;# 
  1824  0012                     	;# 
  1825  0013                     	;# 
  1826  0014                     	;# 
  1827  0015                     	;# 
  1828  0016                     	;# 
  1829  0016                     	;# 
  1830  0017                     	;# 
  1831  0018                     	;# 
  1832  0019                     	;# 
  1833  001A                     	;# 
  1834  001B                     	;# 
  1835  001C                     	;# 
  1836  001E                     	;# 
  1837  001F                     	;# 
  1838  008C                     	;# 
  1839  008D                     	;# 
  1840  008E                     	;# 
  1841  0091                     	;# 
  1842  0092                     	;# 
  1843  0093                     	;# 
  1844  0094                     	;# 
  1845  0095                     	;# 
  1846  0096                     	;# 
  1847  0097                     	;# 
  1848  0098                     	;# 
  1849  0099                     	;# 
  1850  009A                     	;# 
  1851  009B                     	;# 
  1852  009B                     	;# 
  1853  009C                     	;# 
  1854  009D                     	;# 
  1855  009E                     	;# 
  1856  010C                     	;# 
  1857  010D                     	;# 
  1858  010E                     	;# 
  1859  0111                     	;# 
  1860  0112                     	;# 
  1861  0113                     	;# 
  1862  0114                     	;# 
  1863  0115                     	;# 
  1864  0116                     	;# 
  1865  0117                     	;# 
  1866  0118                     	;# 
  1867  0119                     	;# 
  1868  011A                     	;# 
  1869  011B                     	;# 
  1870  011D                     	;# 
  1871  011E                     	;# 
  1872  018C                     	;# 
  1873  018D                     	;# 
  1874  018E                     	;# 
  1875  0191                     	;# 
  1876  0191                     	;# 
  1877  0192                     	;# 
  1878  0193                     	;# 
  1879  0193                     	;# 
  1880  0193                     	;# 
  1881  0194                     	;# 
  1882  0195                     	;# 
  1883  0196                     	;# 
  1884  0199                     	;# 
  1885  019A                     	;# 
  1886  019B                     	;# 
  1887  019B                     	;# 
  1888  019B                     	;# 
  1889  019B                     	;# 
  1890  019C                     	;# 
  1891  019C                     	;# 
  1892  019D                     	;# 
  1893  019E                     	;# 
  1894  019F                     	;# 
  1895  020C                     	;# 
  1896  020D                     	;# 
  1897  020E                     	;# 
  1898  0211                     	;# 
  1899  0211                     	;# 
  1900  0212                     	;# 
  1901  0212                     	;# 
  1902  0213                     	;# 
  1903  0213                     	;# 
  1904  0214                     	;# 
  1905  0214                     	;# 
  1906  0215                     	;# 
  1907  0215                     	;# 
  1908  0215                     	;# 
  1909  0216                     	;# 
  1910  0216                     	;# 
  1911  0217                     	;# 
  1912  0217                     	;# 
  1913  0219                     	;# 
  1914  021A                     	;# 
  1915  021B                     	;# 
  1916  021C                     	;# 
  1917  021D                     	;# 
  1918  021E                     	;# 
  1919  021F                     	;# 
  1920  0291                     	;# 
  1921  0291                     	;# 
  1922  0292                     	;# 
  1923  0293                     	;# 
  1924  0294                     	;# 
  1925  0295                     	;# 
  1926  0295                     	;# 
  1927  0296                     	;# 
  1928  0298                     	;# 
  1929  0298                     	;# 
  1930  0299                     	;# 
  1931  029A                     	;# 
  1932  029B                     	;# 
  1933  029C                     	;# 
  1934  029D                     	;# 
  1935  029E                     	;# 
  1936  0311                     	;# 
  1937  0311                     	;# 
  1938  0312                     	;# 
  1939  0313                     	;# 
  1940  0318                     	;# 
  1941  0318                     	;# 
  1942  0319                     	;# 
  1943  031A                     	;# 
  1944  038C                     	;# 
  1945  038D                     	;# 
  1946  038E                     	;# 
  1947  0391                     	;# 
  1948  0392                     	;# 
  1949  0393                     	;# 
  1950  0394                     	;# 
  1951  0395                     	;# 
  1952  0396                     	;# 
  1953  039A                     	;# 
  1954  039C                     	;# 
  1955  039D                     	;# 
  1956  039E                     	;# 
  1957  039F                     	;# 
  1958  0415                     	;# 
  1959  0416                     	;# 
  1960  0417                     	;# 
  1961  041C                     	;# 
  1962  041D                     	;# 
  1963  041E                     	;# 
  1964  0FE4                     	;# 
  1965  0FE5                     	;# 
  1966  0FE6                     	;# 
  1967  0FE7                     	;# 
  1968  0FE8                     	;# 
  1969  0FE9                     	;# 
  1970  0FEA                     	;# 
  1971  0FEB                     	;# 
  1972  0FED                     	;# 
  1973  0FEE                     	;# 
  1974  0FEF                     	;# 
  1975                           
  1976                           	psect	idataBANK0
  1977  07FF                     __pidataBANK0:
  1978                           
  1979                           ;initializer for _part
  1980  07FF  3401               	retlw	1
  1981                           
  1982                           	psect	stringtext1
  1983  1000                     __pstringtext1:
  1984  1000                     _i2c1_fsmStateTable:
  1985  1000  349D               	retlw	low _I2C1_DO_IDLE
  1986  1001  340C               	retlw	high _I2C1_DO_IDLE
  1987  1002  340D               	retlw	low _I2C1_DO_SEND_ADR_READ
  1988  1003  340D               	retlw	high _I2C1_DO_SEND_ADR_READ
  1989  1004  34F4               	retlw	low _I2C1_DO_SEND_ADR_WRITE
  1990  1005  340C               	retlw	high _I2C1_DO_SEND_ADR_WRITE
  1991  1006  34B7               	retlw	low _I2C1_DO_TX
  1992  1007  3405               	retlw	high _I2C1_DO_TX
  1993  1008  340D               	retlw	low _I2C1_DO_RX
  1994  1009  3406               	retlw	high _I2C1_DO_RX
  1995  100A  34ED               	retlw	low _I2C1_DO_RCEN
  1996  100B  340C               	retlw	high _I2C1_DO_RCEN
  1997  100C  342F               	retlw	low _I2C1_DO_TX_EMPTY
  1998  100D  3407               	retlw	high _I2C1_DO_TX_EMPTY
  1999  100E  34A2               	retlw	low _I2C1_DO_SEND_RESTART_READ
  2000  100F  340C               	retlw	high _I2C1_DO_SEND_RESTART_READ
  2001  1010  34A7               	retlw	low _I2C1_DO_SEND_RESTART_WRITE
  2002  1011  340C               	retlw	high _I2C1_DO_SEND_RESTART_WRITE
  2003  1012  34AC               	retlw	low _I2C1_DO_SEND_RESTART
  2004  1013  340C               	retlw	high _I2C1_DO_SEND_RESTART
  2005  1014  34B1               	retlw	low _I2C1_DO_SEND_STOP
  2006  1015  340C               	retlw	high _I2C1_DO_SEND_STOP
  2007  1016  34B6               	retlw	low _I2C1_DO_RX_ACK
  2008  1017  340C               	retlw	high _I2C1_DO_RX_ACK
  2009  1018  34BB               	retlw	low _I2C1_DO_RX_NACK_STOP
  2010  1019  340C               	retlw	high _I2C1_DO_RX_NACK_STOP
  2011  101A  34C0               	retlw	low _I2C1_DO_RX_NACK_RESTART
  2012  101B  340C               	retlw	high _I2C1_DO_RX_NACK_RESTART
  2013  101C  34C5               	retlw	low _I2C1_DO_RESET
  2014  101D  340C               	retlw	high _I2C1_DO_RESET
  2015  101E  348D               	retlw	low _I2C1_DO_ADDRESS_NACK
  2016  101F  3407               	retlw	high _I2C1_DO_ADDRESS_NACK
  2017  1020                     __end_of_i2c1_fsmStateTable:
  2018                           
  2019                           	psect	nvCOMMON
  2020  007A                     __pnvCOMMON:
  2021  007A                     _IOCBF7_InterruptHandler:
  2022  007A                     	ds	2
  2023  0012                     _PIR2bits	set	18
  2024  001C                     _T2CONbits	set	28
  2025  001C                     _T2CON	set	28
  2026  0011                     _PIR1bits	set	17
  2027  001A                     _TMR2	set	26
  2028  001B                     _PR2	set	27
  2029  000B                     _INTCONbits	set	11
  2030  0091                     _PIE1bits	set	145
  2031  0095                     _OPTION_REGbits	set	149
  2032  008E                     _TRISC	set	142
  2033  008D                     _TRISB	set	141
  2034  008C                     _TRISA	set	140
  2035  0097                     _WDTCON	set	151
  2036  0098                     _OSCTUNE	set	152
  2037  0099                     _OSCCON	set	153
  2038  04D6                     _PLLR	set	1238
  2039  011E                     _APFCON1	set	286
  2040  011D                     _APFCON0	set	285
  2041  010E                     _LATC	set	270
  2042  010D                     _LATB	set	269
  2043  010C                     _LATA	set	268
  2044  0116                     _BORCON	set	278
  2045  018C                     _ANSELA	set	396
  2046  018D                     _ANSELB	set	397
  2047  018E                     _ANSELC	set	398
  2048  0214                     _SSP1STATbits	set	532
  2049  0216                     _SSP1CON2bits	set	534
  2050  0211                     _SSP1BUF	set	529
  2051  0215                     _SSP1CON1bits	set	533
  2052  0212                     _SSP1ADD	set	530
  2053  0216                     _SSP1CON2	set	534
  2054  0215                     _SSP1CON1	set	533
  2055  0214                     _SSP1STAT	set	532
  2056  020E                     _WPUC	set	526
  2057  020C                     _WPUA	set	524
  2058  020D                     _WPUB	set	525
  2059  0291                     _CCPR1L	set	657
  2060  0292                     _CCPR1H	set	658
  2061  0296                     _PSTR1CON	set	662
  2062  0294                     _PWM1CON	set	660
  2063  0295                     _ECCP1AS	set	661
  2064  0293                     _CCP1CON	set	659
  2065  0298                     _CCPR2L	set	664
  2066  0299                     _CCPR2H	set	665
  2067  029D                     _PSTR2CON	set	669
  2068  029B                     _PWM2CON	set	667
  2069  029C                     _CCP2AS	set	668
  2070  029A                     _CCP2CON	set	666
  2071  029E                     _CCPTMRSbits	set	670
  2072  0319                     _CCPR4H	set	793
  2073  0318                     _CCPR4L	set	792
  2074  031A                     _CCP4CON	set	794
  2075  0394                     _IOCBPbits	set	916
  2076  0395                     _IOCBNbits	set	917
  2077  0396                     _IOCBFbits	set	918
  2078                           
  2079                           	psect	cinit
  2080  0015                     start_initialization:	
  2081                           ; #config settings
  2082                           
  2083  0015                     __initialization:
  2084                           
  2085                           ; Initialize objects allocated to BANK0
  2086  0015  3187  27FF  3180   	fcall	__pidataBANK0	;fetch initializer
  2087  0018  00ED               	movwf	__pdataBANK0& (0+127)
  2088                           
  2089                           ; Clear objects allocated to BANK0
  2090  0019  304C               	movlw	low __pbssBANK0
  2091  001A  0084               	movwf	4
  2092  001B  3000               	movlw	high __pbssBANK0
  2093  001C  0085               	movwf	5
  2094  001D  3021               	movlw	33
  2095  001E  318C  24E7  3180   	fcall	clear_ram0
  2096  0021                     end_of_initialization:	
  2097                           ;End of C runtime variable initialization code
  2098                           
  2099  0021                     __end_of__initialization:
  2100  0021  107E               	bcf	int$flags,0	;clear compiler interrupt flag (level 1)
  2101  0022  0020               	movlb	0
  2102  0023  3180  2825         	ljmp	_main	;jump to C main() function
  2103                           
  2104                           	psect	bssBANK0
  2105  004C                     __pbssBANK0:
  2106  004C                     _I2C1_Status:
  2107  004C                     	ds	29
  2108  0069                     _moves:
  2109  0069                     	ds	4
  2110                           
  2111                           	psect	dataBANK0
  2112  006D                     __pdataBANK0:
  2113  006D                     _part:
  2114  006D                     	ds	1
  2115                           
  2116                           	psect	clrtext
  2117  0CE7                     clear_ram0:	
  2118                           ;	Called with FSR0 containing the base address, and
  2119                           ;	WREG with the size to clear
  2120                           
  2121  0CE7  0064               	clrwdt	;clear the watchdog before getting into this loop
  2122  0CE8                     clrloop0:
  2123  0CE8  0180               	clrf	0	;clear RAM location pointed to by FSR
  2124  0CE9  3101               	addfsr 0,1
  2125  0CEA  0B89               	decfsz	9,f	;Have we reached the end of clearing yet?
  2126  0CEB  2CE8               	goto	clrloop0	;have we reached the end yet?
  2127  0CEC  3400               	retlw	0	;all done for this memory range, return
  2128                           
  2129                           	psect	cstackCOMMON
  2130  0070                     __pcstackCOMMON:
  2131  0070                     ?_I2C1_Initialize:
  2132  0070                     ?_PIN_MANAGER_Initialize:	
  2133                           ; 1 bytes @ 0x0
  2134                           
  2135  0070                     ?_OSCILLATOR_Initialize:	
  2136                           ; 1 bytes @ 0x0
  2137                           
  2138  0070                     ?_WDT_Initialize:	
  2139                           ; 1 bytes @ 0x0
  2140                           
  2141  0070                     ?_EPWM2_Initialize:	
  2142                           ; 1 bytes @ 0x0
  2143                           
  2144  0070                     ?_EPWM1_Initialize:	
  2145                           ; 1 bytes @ 0x0
  2146                           
  2147  0070                     ?_PWM4_Initialize:	
  2148                           ; 1 bytes @ 0x0
  2149                           
  2150  0070                     ?_TMR2_Initialize:	
  2151                           ; 1 bytes @ 0x0
  2152                           
  2153  0070                     ?_ButtonInterrupt:	
  2154                           ; 1 bytes @ 0x0
  2155                           
  2156  0070                     ?_IOCBF7_DefaultInterruptHandler:	
  2157                           ; 1 bytes @ 0x0
  2158                           
  2159  0070                     ??_IOCBF7_DefaultInterruptHandler:	
  2160                           ; 1 bytes @ 0x0
  2161                           
  2162  0070                     ?_IOCBF7_ISR:	
  2163                           ; 1 bytes @ 0x0
  2164                           
  2165  0070                     ?_I2C1_Open:	
  2166                           ; 1 bytes @ 0x0
  2167                           
  2168  0070                     ?_I2C1_MasterWrite:	
  2169                           ; 1 bytes @ 0x0
  2170                           
  2171  0070                     ?_I2C1_Close:	
  2172                           ; 1 bytes @ 0x0
  2173                           
  2174  0070                     ?_I2C1_DO_IDLE:	
  2175                           ; 1 bytes @ 0x0
  2176                           
  2177  0070                     ?_I2C1_DO_SEND_ADR_READ:	
  2178                           ; 1 bytes @ 0x0
  2179                           
  2180  0070                     ?_I2C1_DO_SEND_ADR_WRITE:	
  2181                           ; 1 bytes @ 0x0
  2182                           
  2183  0070                     ?_I2C1_DO_TX:	
  2184                           ; 1 bytes @ 0x0
  2185                           
  2186  0070                     ?_I2C1_DO_RX:	
  2187                           ; 1 bytes @ 0x0
  2188                           
  2189  0070                     ?_I2C1_DO_RCEN:	
  2190                           ; 1 bytes @ 0x0
  2191                           
  2192  0070                     ?_I2C1_DO_TX_EMPTY:	
  2193                           ; 1 bytes @ 0x0
  2194                           
  2195  0070                     ?_I2C1_DO_SEND_RESTART_READ:	
  2196                           ; 1 bytes @ 0x0
  2197                           
  2198  0070                     ?_I2C1_DO_SEND_RESTART_WRITE:	
  2199                           ; 1 bytes @ 0x0
  2200                           
  2201  0070                     ?_I2C1_DO_SEND_RESTART:	
  2202                           ; 1 bytes @ 0x0
  2203                           
  2204  0070                     ?_I2C1_DO_SEND_STOP:	
  2205                           ; 1 bytes @ 0x0
  2206                           
  2207  0070                     ?_I2C1_DO_RX_ACK:	
  2208                           ; 1 bytes @ 0x0
  2209                           
  2210  0070                     ?_I2C1_DO_RX_NACK_STOP:	
  2211                           ; 1 bytes @ 0x0
  2212                           
  2213  0070                     ?_I2C1_DO_RX_NACK_RESTART:	
  2214                           ; 1 bytes @ 0x0
  2215                           
  2216  0070                     ?_I2C1_DO_RESET:	
  2217                           ; 1 bytes @ 0x0
  2218                           
  2219  0070                     ?_I2C1_DO_ADDRESS_NACK:	
  2220                           ; 1 bytes @ 0x0
  2221                           
  2222  0070                     ?_I2C1_MasterClearIrq:	
  2223                           ; 1 bytes @ 0x0
  2224                           
  2225  0070                     ?_I2C1_MasterOpen:	
  2226                           ; 1 bytes @ 0x0
  2227                           
  2228  0070                     ?_I2C1_MasterDisableIrq:	
  2229                           ; 1 bytes @ 0x0
  2230                           
  2231  0070                     ?_I2C1_MasterClose:	
  2232                           ; 1 bytes @ 0x0
  2233                           
  2234  0070                     ?_I2C1_MasterStart:	
  2235                           ; 1 bytes @ 0x0
  2236                           
  2237  0070                     ?_I2C1_Poller:	
  2238                           ; 1 bytes @ 0x0
  2239                           
  2240  0070                     ?_I2C1_MasterWaitForEvent:	
  2241                           ; 1 bytes @ 0x0
  2242                           
  2243  0070                     ?_I2C1_MasterFsm:	
  2244                           ; 1 bytes @ 0x0
  2245                           
  2246  0070                     ?_I2C1_MasterIsNack:	
  2247                           ; 1 bytes @ 0x0
  2248                           
  2249  0070                     ?_I2C1_MasterSendTxData:	
  2250                           ; 1 bytes @ 0x0
  2251                           
  2252  0070                     ?_I2C1_MasterGetRxData:	
  2253                           ; 1 bytes @ 0x0
  2254                           
  2255  0070                     ?_I2C1_MasterSendAck:	
  2256                           ; 1 bytes @ 0x0
  2257                           
  2258  0070                     ?_I2C1_MasterStartRx:	
  2259                           ; 1 bytes @ 0x0
  2260                           
  2261  0070                     ?_I2C1_MasterSetIrq:	
  2262                           ; 1 bytes @ 0x0
  2263                           
  2264  0070                     ?_I2C1_MasterEnableRestart:	
  2265                           ; 1 bytes @ 0x0
  2266                           
  2267  0070                     ?_I2C1_MasterStop:	
  2268                           ; 1 bytes @ 0x0
  2269                           
  2270  0070                     ?_I2C1_MasterSendNack:	
  2271                           ; 1 bytes @ 0x0
  2272                           
  2273  0070                     ?_SYSTEM_Initialize:	
  2274                           ; 1 bytes @ 0x0
  2275                           
  2276  0070                     ?_mathAbs:	
  2277                           ; 1 bytes @ 0x0
  2278                           
  2279  0070                     ?_patronus:	
  2280                           ; 1 bytes @ 0x0
  2281                           
  2282  0070                     ?_lumos:	
  2283                           ; 1 bytes @ 0x0
  2284                           
  2285  0070                     ?_lightsOff:	
  2286                           ; 1 bytes @ 0x0
  2287                           
  2288  0070                     ?_flashRED:	
  2289                           ; 1 bytes @ 0x0
  2290                           
  2291  0070                     ?_sparks:	
  2292                           ; 1 bytes @ 0x0
  2293                           
  2294  0070                     ?_main:	
  2295                           ; 1 bytes @ 0x0
  2296                           
  2297  0070                     ?_PIN_MANAGER_IOC:	
  2298                           ; 1 bytes @ 0x0
  2299                           
  2300  0070                     ?_I2C1_MasterOperation:	
  2301                           ; 1 bytes @ 0x0
  2302                           
  2303  0070                     ?_INTERRUPT_InterruptManager:	
  2304                           ; 1 bytes @ 0x0
  2305                           
  2306  0070                     ?i1_PWM4_LoadDutyValue:	
  2307                           ; 1 bytes @ 0x0
  2308                           
  2309  0070                     ?i1_lightsOff:	
  2310                           ; 1 bytes @ 0x0
  2311                           
  2312  0070                     ?i1_flashRED:	
  2313                           ; 1 bytes @ 0x0
  2314                           
  2315  0070                     ?i1_sparks:	
  2316                           ; 1 bytes @ 0x0
  2317                           
  2318  0070                     ?i1_EPWM2_LoadDutyValue:	
  2319                           ; 1 bytes @ 0x0
  2320                           
  2321  0070                     ?i1_EPWM1_LoadDutyValue:	
  2322                           ; 1 bytes @ 0x0
  2323                           
  2324  0070                     ?i1_DELAY_milliseconds:	
  2325                           ; 1 bytes @ 0x0
  2326                           
  2327  0070                     i1PWM4_LoadDutyValue@dutyValue:	
  2328                           ; 1 bytes @ 0x0
  2329                           
  2330  0070                     i1EPWM2_LoadDutyValue@dutyValue:	
  2331                           ; 2 bytes @ 0x0
  2332                           
  2333  0070                     i1EPWM1_LoadDutyValue@dutyValue:	
  2334                           ; 2 bytes @ 0x0
  2335                           
  2336  0070                     i1DELAY_milliseconds@milliseconds:	
  2337                           ; 2 bytes @ 0x0
  2338                           
  2339                           
  2340                           ; 2 bytes @ 0x0
  2341  0070                     	ds	2
  2342  0072                     ??i1_PWM4_LoadDutyValue:
  2343  0072                     ??i1_EPWM2_LoadDutyValue:	
  2344                           ; 1 bytes @ 0x2
  2345                           
  2346  0072                     ??i1_EPWM1_LoadDutyValue:	
  2347                           ; 1 bytes @ 0x2
  2348                           
  2349  0072                     ??i1_DELAY_milliseconds:	
  2350                           ; 1 bytes @ 0x2
  2351                           
  2352                           
  2353                           ; 1 bytes @ 0x2
  2354  0072                     	ds	2
  2355  0074                     ??i1_lightsOff:
  2356  0074                     ??i1_flashRED:	
  2357                           ; 1 bytes @ 0x4
  2358                           
  2359                           
  2360                           ; 1 bytes @ 0x4
  2361  0074                     	ds	2
  2362  0076                     i1flashRED@i:
  2363                           
  2364                           ; 1 bytes @ 0x6
  2365  0076                     	ds	1
  2366  0077                     ??i1_sparks:
  2367                           
  2368                           ; 1 bytes @ 0x7
  2369  0077                     	ds	2
  2370  0079                     i1sparks@i:
  2371                           
  2372                           ; 1 bytes @ 0x9
  2373  0079                     	ds	1
  2374  007A                     ??_ButtonInterrupt:
  2375  007A                     ??_IOCBF7_ISR:	
  2376                           ; 1 bytes @ 0xA
  2377                           
  2378  007A                     ??_PIN_MANAGER_IOC:	
  2379                           ; 1 bytes @ 0xA
  2380                           
  2381  007A                     ??_INTERRUPT_InterruptManager:	
  2382                           ; 1 bytes @ 0xA
  2383                           
  2384                           
  2385                           	psect	cstackBANK0
  2386  0020                     __pcstackBANK0:	
  2387                           ; 1 bytes @ 0xA
  2388                           
  2389  0020                     ??_I2C1_Initialize:
  2390  0020                     ??_OSCILLATOR_Initialize:	
  2391                           ; 1 bytes @ 0x0
  2392                           
  2393  0020                     ??_WDT_Initialize:	
  2394                           ; 1 bytes @ 0x0
  2395                           
  2396  0020                     ??_EPWM2_Initialize:	
  2397                           ; 1 bytes @ 0x0
  2398                           
  2399  0020                     ??_EPWM1_Initialize:	
  2400                           ; 1 bytes @ 0x0
  2401                           
  2402  0020                     ??_PWM4_Initialize:	
  2403                           ; 1 bytes @ 0x0
  2404                           
  2405  0020                     ??_TMR2_Initialize:	
  2406                           ; 1 bytes @ 0x0
  2407                           
  2408  0020                     ?_DELAY_milliseconds:	
  2409                           ; 1 bytes @ 0x0
  2410                           
  2411  0020                     ?_EPWM1_LoadDutyValue:	
  2412                           ; 1 bytes @ 0x0
  2413                           
  2414  0020                     ?_EPWM2_LoadDutyValue:	
  2415                           ; 1 bytes @ 0x0
  2416                           
  2417  0020                     ?_IOCBF7_SetInterruptHandler:	
  2418                           ; 1 bytes @ 0x0
  2419                           
  2420  0020                     ??_I2C1_Open:	
  2421                           ; 1 bytes @ 0x0
  2422                           
  2423  0020                     ?_I2C1_SetBuffer:	
  2424                           ; 1 bytes @ 0x0
  2425                           
  2426  0020                     ??_I2C1_Close:	
  2427                           ; 1 bytes @ 0x0
  2428                           
  2429  0020                     ??_I2C1_DO_IDLE:	
  2430                           ; 1 bytes @ 0x0
  2431                           
  2432  0020                     ??_I2C1_DO_SEND_ADR_READ:	
  2433                           ; 1 bytes @ 0x0
  2434                           
  2435  0020                     ??_I2C1_DO_RCEN:	
  2436                           ; 1 bytes @ 0x0
  2437                           
  2438  0020                     ??_I2C1_DO_SEND_RESTART_READ:	
  2439                           ; 1 bytes @ 0x0
  2440                           
  2441  0020                     ??_I2C1_DO_SEND_RESTART_WRITE:	
  2442                           ; 1 bytes @ 0x0
  2443                           
  2444  0020                     ??_I2C1_DO_SEND_RESTART:	
  2445                           ; 1 bytes @ 0x0
  2446                           
  2447  0020                     ??_I2C1_DO_SEND_STOP:	
  2448                           ; 1 bytes @ 0x0
  2449                           
  2450  0020                     ??_I2C1_DO_RX_ACK:	
  2451                           ; 1 bytes @ 0x0
  2452                           
  2453  0020                     ??_I2C1_DO_RX_NACK_STOP:	
  2454                           ; 1 bytes @ 0x0
  2455                           
  2456  0020                     ??_I2C1_DO_RX_NACK_RESTART:	
  2457                           ; 1 bytes @ 0x0
  2458                           
  2459  0020                     ??_I2C1_DO_RESET:	
  2460                           ; 1 bytes @ 0x0
  2461                           
  2462  0020                     ??_I2C1_MasterClearIrq:	
  2463                           ; 1 bytes @ 0x0
  2464                           
  2465  0020                     ??_I2C1_MasterOpen:	
  2466                           ; 1 bytes @ 0x0
  2467                           
  2468  0020                     ??_I2C1_MasterDisableIrq:	
  2469                           ; 1 bytes @ 0x0
  2470                           
  2471  0020                     ??_I2C1_MasterClose:	
  2472                           ; 1 bytes @ 0x0
  2473                           
  2474  0020                     ??_I2C1_MasterStart:	
  2475                           ; 1 bytes @ 0x0
  2476                           
  2477  0020                     ?_I2C1_SetCallback:	
  2478                           ; 1 bytes @ 0x0
  2479                           
  2480  0020                     ??_I2C1_MasterWaitForEvent:	
  2481                           ; 1 bytes @ 0x0
  2482                           
  2483  0020                     ??_I2C1_MasterIsNack:	
  2484                           ; 1 bytes @ 0x0
  2485                           
  2486  0020                     ??_I2C1_MasterSendTxData:	
  2487                           ; 1 bytes @ 0x0
  2488                           
  2489  0020                     ??_I2C1_MasterGetRxData:	
  2490                           ; 1 bytes @ 0x0
  2491                           
  2492  0020                     ??_I2C1_MasterSendAck:	
  2493                           ; 1 bytes @ 0x0
  2494                           
  2495  0020                     ??_I2C1_MasterStartRx:	
  2496                           ; 1 bytes @ 0x0
  2497                           
  2498  0020                     ??_I2C1_MasterSetIrq:	
  2499                           ; 1 bytes @ 0x0
  2500                           
  2501  0020                     ??_I2C1_MasterEnableRestart:	
  2502                           ; 1 bytes @ 0x0
  2503                           
  2504  0020                     ??_I2C1_MasterStop:	
  2505                           ; 1 bytes @ 0x0
  2506                           
  2507  0020                     ??_I2C1_MasterSendNack:	
  2508                           ; 1 bytes @ 0x0
  2509                           
  2510  0020                     ?_PWM4_LoadDutyValue:	
  2511                           ; 1 bytes @ 0x0
  2512                           
  2513  0020                     ??_mathAbs:	
  2514                           ; 1 bytes @ 0x0
  2515                           
  2516  0020                     mathAbs@num:	
  2517                           ; 1 bytes @ 0x0
  2518                           
  2519  0020                     I2C1_MasterSendTxData@data:	
  2520                           ; 1 bytes @ 0x0
  2521                           
  2522  0020                     PWM4_LoadDutyValue@dutyValue:	
  2523                           ; 1 bytes @ 0x0
  2524                           
  2525  0020                     EPWM2_LoadDutyValue@dutyValue:	
  2526                           ; 2 bytes @ 0x0
  2527                           
  2528  0020                     EPWM1_LoadDutyValue@dutyValue:	
  2529                           ; 2 bytes @ 0x0
  2530                           
  2531  0020                     IOCBF7_SetInterruptHandler@InterruptHandler:	
  2532                           ; 2 bytes @ 0x0
  2533                           
  2534  0020                     DELAY_milliseconds@milliseconds:	
  2535                           ; 2 bytes @ 0x0
  2536                           
  2537  0020                     I2C1_SetBuffer@bufferSize:	
  2538                           ; 2 bytes @ 0x0
  2539                           
  2540  0020                     I2C1_SetCallback@cb:	
  2541                           ; 2 bytes @ 0x0
  2542                           
  2543                           
  2544                           ; 2 bytes @ 0x0
  2545  0020                     	ds	1
  2546  0021                     ??_I2C1_DO_SEND_ADR_WRITE:
  2547  0021                     I2C1_Open@address:	
  2548                           ; 1 bytes @ 0x1
  2549                           
  2550  0021                     I2C1_Close@returnValue:	
  2551                           ; 1 bytes @ 0x1
  2552                           
  2553                           
  2554                           ; 1 bytes @ 0x1
  2555  0021                     	ds	1
  2556  0022                     ??_PIN_MANAGER_Initialize:
  2557  0022                     ??_DELAY_milliseconds:	
  2558                           ; 1 bytes @ 0x2
  2559                           
  2560  0022                     ??_EPWM1_LoadDutyValue:	
  2561                           ; 1 bytes @ 0x2
  2562                           
  2563  0022                     ??_EPWM2_LoadDutyValue:	
  2564                           ; 1 bytes @ 0x2
  2565                           
  2566  0022                     ??_IOCBF7_SetInterruptHandler:	
  2567                           ; 1 bytes @ 0x2
  2568                           
  2569  0022                     ??_I2C1_SetBuffer:	
  2570                           ; 1 bytes @ 0x2
  2571                           
  2572  0022                     ??_SYSTEM_Initialize:	
  2573                           ; 1 bytes @ 0x2
  2574                           
  2575  0022                     ??_PWM4_LoadDutyValue:	
  2576                           ; 1 bytes @ 0x2
  2577                           
  2578  0022                     I2C1_Open@returnValue:	
  2579                           ; 1 bytes @ 0x2
  2580                           
  2581  0022                     I2C1_SetCallback@ptr:	
  2582                           ; 1 bytes @ 0x2
  2583                           
  2584                           
  2585                           ; 1 bytes @ 0x2
  2586  0022                     	ds	1
  2587  0023                     ??_I2C1_SetCallback:
  2588  0023                     I2C1_SetBuffer@buffer:	
  2589                           ; 1 bytes @ 0x3
  2590                           
  2591                           
  2592                           ; 1 bytes @ 0x3
  2593  0023                     	ds	1
  2594  0024                     ??_patronus:
  2595  0024                     ??_lightsOff:	
  2596                           ; 1 bytes @ 0x4
  2597                           
  2598  0024                     ??_flashRED:	
  2599                           ; 1 bytes @ 0x4
  2600                           
  2601  0024                     I2C1_SetCallback@idx:	
  2602                           ; 1 bytes @ 0x4
  2603                           
  2604                           
  2605                           ; 1 bytes @ 0x4
  2606  0024                     	ds	1
  2607  0025                     ?_I2C1_SetDataCompleteCallback:
  2608  0025                     ?_I2C1_SetAddressNackCallback:	
  2609                           ; 1 bytes @ 0x5
  2610                           
  2611  0025                     I2C1_SetDataCompleteCallback@cb:	
  2612                           ; 1 bytes @ 0x5
  2613                           
  2614  0025                     I2C1_SetAddressNackCallback@cb:	
  2615                           ; 2 bytes @ 0x5
  2616                           
  2617                           
  2618                           ; 2 bytes @ 0x5
  2619  0025                     	ds	1
  2620  0026                     patronus@i:
  2621  0026                     flashRED@i:	
  2622                           ; 1 bytes @ 0x6
  2623                           
  2624                           
  2625                           ; 1 bytes @ 0x6
  2626  0026                     	ds	1
  2627  0027                     ??_sparks:
  2628  0027                     I2C1_SetDataCompleteCallback@ptr:	
  2629                           ; 1 bytes @ 0x7
  2630                           
  2631  0027                     I2C1_SetAddressNackCallback@ptr:	
  2632                           ; 1 bytes @ 0x7
  2633                           
  2634                           
  2635                           ; 1 bytes @ 0x7
  2636  0027                     	ds	1
  2637  0028                     ??_I2C1_SetDataCompleteCallback:
  2638  0028                     ??_I2C1_SetAddressNackCallback:	
  2639                           ; 1 bytes @ 0x8
  2640                           
  2641                           
  2642                           ; 1 bytes @ 0x8
  2643  0028                     	ds	1
  2644  0029                     ?_rd1RegCompleteHandler:
  2645  0029                     ?_rd2RegCompleteHandler:	
  2646                           ; 1 bytes @ 0x9
  2647                           
  2648  0029                     ?_wr1RegCompleteHandler:	
  2649                           ; 1 bytes @ 0x9
  2650                           
  2651  0029                     ?_wr2RegCompleteHandler:	
  2652                           ; 1 bytes @ 0x9
  2653                           
  2654  0029                     ?_rdBlkRegCompleteHandler:	
  2655                           ; 1 bytes @ 0x9
  2656                           
  2657  0029                     ?_I2C1_CallbackReturnStop:	
  2658                           ; 1 bytes @ 0x9
  2659                           
  2660  0029                     ?_I2C1_CallbackReturnReset:	
  2661                           ; 1 bytes @ 0x9
  2662                           
  2663  0029                     ?_wr1RegCompleteHandler@i2c_simple_master$F1283:	
  2664                           ; 1 bytes @ 0x9
  2665                           
  2666  0029                     ?_rd1RegCompleteHandler@i2c_simple_master$F1293:	
  2667                           ; 1 bytes @ 0x9
  2668                           
  2669  0029                     ?_rd2RegCompleteHandler@i2c_simple_master$F1301:	
  2670                           ; 1 bytes @ 0x9
  2671                           
  2672  0029                     ?_wr2RegCompleteHandler@i2c_simple_master$F1307:	
  2673                           ; 1 bytes @ 0x9
  2674                           
  2675  0029                     ?_rdBlkRegCompleteHandler@i2c_simple_master$F1313:	
  2676                           ; 1 bytes @ 0x9
  2677                           
  2678  0029                     sparks@i:	
  2679                           ; 1 bytes @ 0x9
  2680                           
  2681  0029                     rd1RegCompleteHandler@ptr:	
  2682                           ; 1 bytes @ 0x9
  2683                           
  2684  0029                     rd2RegCompleteHandler@ptr:	
  2685                           ; 1 bytes @ 0x9
  2686                           
  2687  0029                     wr1RegCompleteHandler@ptr:	
  2688                           ; 1 bytes @ 0x9
  2689                           
  2690  0029                     wr2RegCompleteHandler@ptr:	
  2691                           ; 1 bytes @ 0x9
  2692                           
  2693  0029                     rdBlkRegCompleteHandler@ptr:	
  2694                           ; 1 bytes @ 0x9
  2695                           
  2696  0029                     I2C1_CallbackReturnStop@funPtr:	
  2697                           ; 1 bytes @ 0x9
  2698                           
  2699  0029                     I2C1_CallbackReturnReset@funPtr:	
  2700                           ; 1 bytes @ 0x9
  2701                           
  2702  0029                     wr1RegCompleteHandler@i2c_simple_master$F1283@p:	
  2703                           ; 1 bytes @ 0x9
  2704                           
  2705  0029                     rd1RegCompleteHandler@i2c_simple_master$F1293@p:	
  2706                           ; 1 bytes @ 0x9
  2707                           
  2708  0029                     rd2RegCompleteHandler@i2c_simple_master$F1301@p:	
  2709                           ; 1 bytes @ 0x9
  2710                           
  2711  0029                     wr2RegCompleteHandler@i2c_simple_master$F1307@p:	
  2712                           ; 1 bytes @ 0x9
  2713                           
  2714  0029                     rdBlkRegCompleteHandler@i2c_simple_master$F1313@p:	
  2715                           ; 1 bytes @ 0x9
  2716                           
  2717                           
  2718                           ; 1 bytes @ 0x9
  2719  0029                     	ds	1
  2720  002A                     ??_rd1RegCompleteHandler:
  2721  002A                     ??_rd2RegCompleteHandler:	
  2722                           ; 1 bytes @ 0xA
  2723                           
  2724  002A                     ??_wr1RegCompleteHandler:	
  2725                           ; 1 bytes @ 0xA
  2726                           
  2727  002A                     ??_wr2RegCompleteHandler:	
  2728                           ; 1 bytes @ 0xA
  2729                           
  2730  002A                     ??_rdBlkRegCompleteHandler:	
  2731                           ; 1 bytes @ 0xA
  2732                           
  2733  002A                     ??_I2C1_DO_TX:	
  2734                           ; 1 bytes @ 0xA
  2735                           
  2736  002A                     ??_I2C1_DO_RX:	
  2737                           ; 1 bytes @ 0xA
  2738                           
  2739  002A                     ??_I2C1_DO_TX_EMPTY:	
  2740                           ; 1 bytes @ 0xA
  2741                           
  2742  002A                     ??_I2C1_DO_ADDRESS_NACK:	
  2743                           ; 1 bytes @ 0xA
  2744                           
  2745  002A                     ??_I2C1_CallbackReturnStop:	
  2746                           ; 1 bytes @ 0xA
  2747                           
  2748  002A                     ??_I2C1_CallbackReturnReset:	
  2749                           ; 1 bytes @ 0xA
  2750                           
  2751  002A                     ??_wr1RegCompleteHandler@i2c_simple_master$F1283:	
  2752                           ; 1 bytes @ 0xA
  2753                           
  2754  002A                     ??_rd1RegCompleteHandler@i2c_simple_master$F1293:	
  2755                           ; 1 bytes @ 0xA
  2756                           
  2757  002A                     ??_rd2RegCompleteHandler@i2c_simple_master$F1301:	
  2758                           ; 1 bytes @ 0xA
  2759                           
  2760  002A                     ??_wr2RegCompleteHandler@i2c_simple_master$F1307:	
  2761                           ; 1 bytes @ 0xA
  2762                           
  2763  002A                     ??_rdBlkRegCompleteHandler@i2c_simple_master$F1313:	
  2764                           ; 1 bytes @ 0xA
  2765                           
  2766                           
  2767                           ; 1 bytes @ 0xA
  2768  002A                     	ds	3
  2769  002D                     ??_I2C1_MasterFsm:
  2770                           
  2771                           ; 1 bytes @ 0xD
  2772  002D                     	ds	3
  2773  0030                     ??_I2C1_Poller:
  2774  0030                     ??_I2C1_MasterOperation:	
  2775                           ; 1 bytes @ 0x10
  2776                           
  2777                           
  2778                           ; 1 bytes @ 0x10
  2779  0030                     	ds	1
  2780  0031                     I2C1_MasterOperation@read:
  2781                           
  2782                           ; 1 bytes @ 0x11
  2783  0031                     	ds	1
  2784  0032                     I2C1_MasterOperation@returnValue:
  2785                           
  2786                           ; 1 bytes @ 0x12
  2787  0032                     	ds	1
  2788  0033                     ?_I2C1_Read1ByteRegister:
  2789  0033                     ?_I2C1_Write1ByteRegister:	
  2790                           ; 1 bytes @ 0x13
  2791                           
  2792  0033                     ??_I2C1_MasterWrite:	
  2793                           ; 1 bytes @ 0x13
  2794                           
  2795  0033                     I2C1_Read1ByteRegister@reg:	
  2796                           ; 1 bytes @ 0x13
  2797                           
  2798  0033                     I2C1_Write1ByteRegister@reg:	
  2799                           ; 1 bytes @ 0x13
  2800                           
  2801                           
  2802                           ; 1 bytes @ 0x13
  2803  0033                     	ds	1
  2804  0034                     ??_I2C1_Read1ByteRegister:
  2805  0034                     I2C1_Write1ByteRegister@data:	
  2806                           ; 1 bytes @ 0x14
  2807                           
  2808                           
  2809                           ; 1 bytes @ 0x14
  2810  0034                     	ds	1
  2811  0035                     ??_I2C1_Write1ByteRegister:
  2812  0035                     I2C1_Read1ByteRegister@address:	
  2813                           ; 1 bytes @ 0x15
  2814                           
  2815                           
  2816                           ; 1 bytes @ 0x15
  2817  0035                     	ds	1
  2818  0036                     I2C1_Read1ByteRegister@returnValue:
  2819  0036                     I2C1_Write1ByteRegister@address:	
  2820                           ; 1 bytes @ 0x16
  2821                           
  2822                           
  2823                           ; 1 bytes @ 0x16
  2824  0036                     	ds	1
  2825  0037                     ??_lumos:
  2826                           
  2827                           ; 1 bytes @ 0x17
  2828  0037                     	ds	2
  2829  0039                     lumos@previous:
  2830                           
  2831                           ; 1 bytes @ 0x19
  2832  0039                     	ds	1
  2833  003A                     lumos@on:
  2834                           
  2835                           ; 1 bytes @ 0x1A
  2836  003A                     	ds	1
  2837  003B                     ??_main:
  2838                           
  2839                           ; 1 bytes @ 0x1B
  2840  003B                     	ds	9
  2841  0044                     main@previous_data_x:
  2842                           
  2843                           ; 1 bytes @ 0x24
  2844  0044                     	ds	1
  2845  0045                     main@previous_data_y:
  2846                           
  2847                           ; 1 bytes @ 0x25
  2848  0045                     	ds	1
  2849  0046                     main@previous_data_z:
  2850                           
  2851                           ; 1 bytes @ 0x26
  2852  0046                     	ds	1
  2853  0047                     main@data:
  2854                           
  2855                           ; 1 bytes @ 0x27
  2856  0047                     	ds	1
  2857  0048                     main@timer:
  2858                           
  2859                           ; 1 bytes @ 0x28
  2860  0048                     	ds	1
  2861  0049                     main@data_x:
  2862                           
  2863                           ; 1 bytes @ 0x29
  2864  0049                     	ds	1
  2865  004A                     main@data_y:
  2866                           
  2867                           ; 1 bytes @ 0x2A
  2868  004A                     	ds	1
  2869  004B                     main@data_z:
  2870                           
  2871                           ; 1 bytes @ 0x2B
  2872  004B                     	ds	1
  2873                           
  2874                           	psect	maintext
  2875  0025                     __pmaintext:	
  2876 ;;
  2877 ;;Main: autosize = 0, tempsize = 9, incstack = 0, save=0
  2878 ;;
  2879 ;; *************** function _main *****************
  2880 ;; Defined at:
  2881 ;;		line 309 in file "main.c"
  2882 ;; Parameters:    Size  Location     Type
  2883 ;;		None
  2884 ;; Auto vars:     Size  Location     Type
  2885 ;;  i               1    0        char 
  2886 ;;  data_z          1   43[BANK0 ] char 
  2887 ;;  data_y          1   42[BANK0 ] char 
  2888 ;;  data_x          1   41[BANK0 ] char 
  2889 ;;  timer           1   40[BANK0 ] char 
  2890 ;;  data            1   39[BANK0 ] unsigned char 
  2891 ;;  previous_dat    1   38[BANK0 ] char 
  2892 ;;  previous_dat    1   37[BANK0 ] char 
  2893 ;;  previous_dat    1   36[BANK0 ] char 
  2894 ;;  max_data_z_d    1    0        char 
  2895 ;;  max_data_y_d    1    0        char 
  2896 ;;  max_data_x_d    1    0        char 
  2897 ;;  max_data_z      1    0        char 
  2898 ;;  max_data_y      1    0        char 
  2899 ;;  max_data_x      1    0        char 
  2900 ;; Return value:  Size  Location     Type
  2901 ;;                  1    wreg      void 
  2902 ;; Registers used:
  2903 ;;		wreg, fsr0l, fsr0h, fsr1l, fsr1h, status,2, status,0, pclath, cstack
  2904 ;; Tracked objects:
  2905 ;;		On entry : B1F/0
  2906 ;;		On exit  : 0/0
  2907 ;;		Unchanged: 0/0
  2908 ;; Data sizes:     COMMON   BANK0   BANK1   BANK2   BANK3   BANK4   BANK5   BANK6   BANK7   BANK8   BANK9  BANK10  BANK1
      +1  BANK12
  2909 ;;      Params:         0       0       0       0       0       0       0       0       0       0       0       0       
      +0       0
  2910 ;;      Locals:         0       8       0       0       0       0       0       0       0       0       0       0       
      +0       0
  2911 ;;      Temps:          0       9       0       0       0       0       0       0       0       0       0       0       
      +0       0
  2912 ;;      Totals:         0      17       0       0       0       0       0       0       0       0       0       0       
      +0       0
  2913 ;;Total ram usage:       17 bytes
  2914 ;; Hardware stack levels required when called: 18
  2915 ;; This function calls:
  2916 ;;		_DELAY_milliseconds
  2917 ;;		_EPWM1_LoadDutyValue
  2918 ;;		_EPWM2_LoadDutyValue
  2919 ;;		_I2C1_Read1ByteRegister
  2920 ;;		_I2C1_Write1ByteRegister
  2921 ;;		_IOCBF7_SetInterruptHandler
  2922 ;;		_PWM4_LoadDutyValue
  2923 ;;		_SYSTEM_Initialize
  2924 ;;		_lumos
  2925 ;;		_mathAbs
  2926 ;;		_patronus
  2927 ;;		_sparks
  2928 ;; This function is called by:
  2929 ;;		Startup code after reset
  2930 ;; This function uses a non-reentrant model
  2931 ;;
  2932                           
  2933                           
  2934                           ;psect for function _main
  2935  0025                     _main:
  2936  0025                     l3551:	
  2937                           ;incstack = 0
  2938 ;; hardware stack exceeded
  2939                           ; Regs used in _main: [wreg-fsr1h+status,2+status,0+pclath+cstack]
  2940                           
  2941                           
  2942                           ;main.c: 312:     SYSTEM_Initialize();
  2943  0025  318E  26ED  3180   	fcall	_SYSTEM_Initialize
  2944                           
  2945                           ;main.c: 316:     IOCBF7_SetInterruptHandler(ButtonInterrupt);
  2946  0028  308D               	movlw	low _ButtonInterrupt
  2947  0029  0020               	movlb	0	; select bank0
  2948  002A  00A0               	movwf	IOCBF7_SetInterruptHandler@InterruptHandler
  2949  002B  300C               	movlw	high _ButtonInterrupt
  2950  002C  00A1               	movwf	IOCBF7_SetInterruptHandler@InterruptHandler+1
  2951  002D  318C  24E1  3180   	fcall	_IOCBF7_SetInterruptHandler
  2952                           
  2953                           ;main.c: 335:     EPWM1_LoadDutyValue(0);
  2954  0030  3000               	movlw	0
  2955  0031  0020               	movlb	0	; select bank0
  2956  0032  00A0               	movwf	EPWM1_LoadDutyValue@dutyValue
  2957  0033  00A1               	movwf	EPWM1_LoadDutyValue@dutyValue+1
  2958  0034  318F  273C  3180   	fcall	_EPWM1_LoadDutyValue
  2959                           
  2960                           ;main.c: 336:     EPWM2_LoadDutyValue(0);
  2961  0037  3000               	movlw	0
  2962  0038  0020               	movlb	0	; select bank0
  2963  0039  00A0               	movwf	EPWM2_LoadDutyValue@dutyValue
  2964  003A  00A1               	movwf	EPWM2_LoadDutyValue@dutyValue+1
  2965  003B  318F  2758  3180   	fcall	_EPWM2_LoadDutyValue
  2966                           
  2967                           ;main.c: 337:     PWM4_LoadDutyValue(0);
  2968  003E  3000               	movlw	0
  2969  003F  0020               	movlb	0	; select bank0
  2970  0040  00A0               	movwf	PWM4_LoadDutyValue@dutyValue
  2971  0041  00A1               	movwf	PWM4_LoadDutyValue@dutyValue+1
  2972  0042  318F  2774  3180   	fcall	_PWM4_LoadDutyValue
  2973  0045                     l3553:
  2974                           
  2975                           ;main.c: 339:     uint8_t data;;main.c: 340:     data = I2C1_Read1ByteRegister(0x0E, 0x0
      +                          F);
  2976  0045  300F               	movlw	15
  2977  0046  0020               	movlb	0	; select bank0
  2978  0047  00BB               	movwf	??_main
  2979  0048  083B               	movf	??_main,w
  2980  0049  00B3               	movwf	I2C1_Read1ByteRegister@reg
  2981  004A  300E               	movlw	14
  2982  004B  3186  268F  3180   	fcall	_I2C1_Read1ByteRegister
  2983  004E  0020               	movlb	0	; select bank0
  2984  004F  00BC               	movwf	??_main+1
  2985  0050  083C               	movf	??_main+1,w
  2986  0051  00C7               	movwf	main@data
  2987  0052                     l3555:
  2988                           
  2989                           ;main.c: 342:     if(data == 0x35)
  2990  0052  3035               	movlw	53
  2991  0053  0647               	xorwf	main@data,w
  2992  0054  1D03               	btfss	3,2
  2993  0055  2857               	goto	u1371
  2994  0056  2858               	goto	u1370
  2995  0057                     u1371:
  2996  0057  2860               	goto	l3559
  2997  0058                     u1370:
  2998  0058                     l3557:
  2999                           
  3000                           ;main.c: 343:         PWM4_LoadDutyValue(160);
  3001  0058  30A0               	movlw	160
  3002  0059  00A0               	movwf	PWM4_LoadDutyValue@dutyValue
  3003  005A  3000               	movlw	0
  3004  005B  00A1               	movwf	PWM4_LoadDutyValue@dutyValue+1
  3005  005C  318F  2774  3180   	fcall	_PWM4_LoadDutyValue
  3006  005F  2867               	goto	l3561
  3007  0060                     l3559:
  3008                           
  3009                           ;main.c: 345:         EPWM2_LoadDutyValue(160);
  3010  0060  30A0               	movlw	160
  3011  0061  00A0               	movwf	EPWM2_LoadDutyValue@dutyValue
  3012  0062  3000               	movlw	0
  3013  0063  00A1               	movwf	EPWM2_LoadDutyValue@dutyValue+1
  3014  0064  318F  2758  3180   	fcall	_EPWM2_LoadDutyValue
  3015  0067                     l3561:
  3016                           
  3017                           ;main.c: 351:     I2C1_Write1ByteRegister(0x0E, 0x1D, 0b10000000);
  3018  0067  301D               	movlw	29
  3019  0068  0020               	movlb	0	; select bank0
  3020  0069  00BB               	movwf	??_main
  3021  006A  083B               	movf	??_main,w
  3022  006B  00B3               	movwf	I2C1_Write1ByteRegister@reg
  3023  006C  3080               	movlw	128
  3024  006D  00BC               	movwf	??_main+1
  3025  006E  083C               	movf	??_main+1,w
  3026  006F  00B4               	movwf	I2C1_Write1ByteRegister@data
  3027  0070  300E               	movlw	14
  3028  0071  3186  26C7  3180   	fcall	_I2C1_Write1ByteRegister
  3029  0074                     l3563:
  3030                           
  3031                           ;main.c: 352:     DELAY_milliseconds(1000);
  3032  0074  30E8               	movlw	232
  3033  0075  0020               	movlb	0	; select bank0
  3034  0076  00A0               	movwf	DELAY_milliseconds@milliseconds
  3035  0077  3003               	movlw	3
  3036  0078  00A1               	movwf	DELAY_milliseconds@milliseconds+1
  3037  0079  318E  26D5  3180   	fcall	_DELAY_milliseconds
  3038                           
  3039                           ;main.c: 355:     I2C1_Write1ByteRegister(0x0E, 0x1E, 0b00101000);
  3040  007C  301E               	movlw	30
  3041  007D  0020               	movlb	0	; select bank0
  3042  007E  00BB               	movwf	??_main
  3043  007F  083B               	movf	??_main,w
  3044  0080  00B3               	movwf	I2C1_Write1ByteRegister@reg
  3045  0081  3028               	movlw	40
  3046  0082  00BC               	movwf	??_main+1
  3047  0083  083C               	movf	??_main+1,w
  3048  0084  00B4               	movwf	I2C1_Write1ByteRegister@data
  3049  0085  300E               	movlw	14
  3050  0086  3186  26C7  3180   	fcall	_I2C1_Write1ByteRegister
  3051                           
  3052                           ;main.c: 356:     I2C1_Write1ByteRegister(0x0E, 0x1F, 0b10111111);
  3053  0089  301F               	movlw	31
  3054  008A  0020               	movlb	0	; select bank0
  3055  008B  00BB               	movwf	??_main
  3056  008C  083B               	movf	??_main,w
  3057  008D  00B3               	movwf	I2C1_Write1ByteRegister@reg
  3058  008E  30BF               	movlw	191
  3059  008F  00BC               	movwf	??_main+1
  3060  0090  083C               	movf	??_main+1,w
  3061  0091  00B4               	movwf	I2C1_Write1ByteRegister@data
  3062  0092  300E               	movlw	14
  3063  0093  3186  26C7  3180   	fcall	_I2C1_Write1ByteRegister
  3064                           
  3065                           ;main.c: 357:     I2C1_Write1ByteRegister(0x0E, 0x1B, 0b00000000);
  3066  0096  301B               	movlw	27
  3067  0097  0020               	movlb	0	; select bank0
  3068  0098  00BB               	movwf	??_main
  3069  0099  083B               	movf	??_main,w
  3070  009A  00B3               	movwf	I2C1_Write1ByteRegister@reg
  3071  009B  01B4               	clrf	I2C1_Write1ByteRegister@data
  3072  009C  300E               	movlw	14
  3073  009D  3186  26C7  3180   	fcall	_I2C1_Write1ByteRegister
  3074                           
  3075                           ;main.c: 358:     I2C1_Write1ByteRegister(0x0E, 0x1B, 0b00000010);
  3076  00A0  301B               	movlw	27
  3077  00A1  0020               	movlb	0	; select bank0
  3078  00A2  00BB               	movwf	??_main
  3079  00A3  083B               	movf	??_main,w
  3080  00A4  00B3               	movwf	I2C1_Write1ByteRegister@reg
  3081  00A5  3002               	movlw	2
  3082  00A6  00BC               	movwf	??_main+1
  3083  00A7  083C               	movf	??_main+1,w
  3084  00A8  00B4               	movwf	I2C1_Write1ByteRegister@data
  3085  00A9  300E               	movlw	14
  3086  00AA  3186  26C7  3180   	fcall	_I2C1_Write1ByteRegister
  3087                           
  3088                           ;main.c: 359:     I2C1_Write1ByteRegister(0x0E, 0x1B, 0b10000010);
  3089  00AD  301B               	movlw	27
  3090  00AE  0020               	movlb	0	; select bank0
  3091  00AF  00BB               	movwf	??_main
  3092  00B0  083B               	movf	??_main,w
  3093  00B1  00B3               	movwf	I2C1_Write1ByteRegister@reg
  3094  00B2  3082               	movlw	130
  3095  00B3  00BC               	movwf	??_main+1
  3096  00B4  083C               	movf	??_main+1,w
  3097  00B5  00B4               	movwf	I2C1_Write1ByteRegister@data
  3098  00B6  300E               	movlw	14
  3099  00B7  3186  26C7  3180   	fcall	_I2C1_Write1ByteRegister
  3100  00BA  301B               	movlw	27
  3101  00BB  0020               	movlb	0	; select bank0
  3102  00BC  00BB               	movwf	??_main
  3103  00BD  083B               	movf	??_main,w
  3104  00BE  00B3               	movwf	I2C1_Read1ByteRegister@reg
  3105  00BF  300E               	movlw	14
  3106  00C0  3186  268F  3180   	fcall	_I2C1_Read1ByteRegister
  3107  00C3                     l3565:
  3108  00C3                     l3567:
  3109  00C3                     l3569:
  3110  00C3                     l3571:
  3111  00C3                     l3573:
  3112  00C3                     l3575:
  3113  00C3                     l3577:
  3114  00C3                     l3579:
  3115  00C3                     l3581:
  3116  00C3                     l3583:
  3117                           
  3118                           ;main.c: 377:     int8_t previous_data_x = 0;
  3119  00C3  0020               	movlb	0	; select bank0
  3120  00C4  01C4               	clrf	main@previous_data_x
  3121  00C5                     l3585:
  3122                           
  3123                           ;main.c: 378:     int8_t previous_data_y = 0;
  3124  00C5  01C5               	clrf	main@previous_data_y
  3125  00C6                     l3587:
  3126                           
  3127                           ;main.c: 379:     int8_t previous_data_z = 0;
  3128  00C6  01C6               	clrf	main@previous_data_z
  3129  00C7                     l3589:
  3130                           
  3131                           ;main.c: 381:     int8_t timer = 0;
  3132  00C7  01C8               	clrf	main@timer
  3133  00C8                     l3591:
  3134  00C8                     l3593:
  3135  00C8                     l3595:
  3136  00C8                     l3597:
  3137  00C8                     l3599:
  3138  00C8                     l3601:
  3139                           
  3140                           ;main.c: 402:         int8_t i;;main.c: 406:             data_x = I2C1_Read1ByteRegister
      +                          (0x0E, 0x07);
  3141  00C8  3007               	movlw	7
  3142  00C9  00BB               	movwf	??_main
  3143  00CA  083B               	movf	??_main,w
  3144  00CB  00B3               	movwf	I2C1_Read1ByteRegister@reg
  3145  00CC  300E               	movlw	14
  3146  00CD  3186  268F  3180   	fcall	_I2C1_Read1ByteRegister
  3147  00D0  0020               	movlb	0	; select bank0
  3148  00D1  00BC               	movwf	??_main+1
  3149  00D2  083C               	movf	??_main+1,w
  3150  00D3  00C9               	movwf	main@data_x
  3151                           
  3152                           ;main.c: 407:             data_y = I2C1_Read1ByteRegister(0x0E, 0x09);
  3153  00D4  3009               	movlw	9
  3154  00D5  00BB               	movwf	??_main
  3155  00D6  083B               	movf	??_main,w
  3156  00D7  00B3               	movwf	I2C1_Read1ByteRegister@reg
  3157  00D8  300E               	movlw	14
  3158  00D9  3186  268F  3180   	fcall	_I2C1_Read1ByteRegister
  3159  00DC  0020               	movlb	0	; select bank0
  3160  00DD  00BC               	movwf	??_main+1
  3161  00DE  083C               	movf	??_main+1,w
  3162  00DF  00CA               	movwf	main@data_y
  3163                           
  3164                           ;main.c: 408:             data_z = I2C1_Read1ByteRegister(0x0E, 0x0B);
  3165  00E0  300B               	movlw	11
  3166  00E1  00BB               	movwf	??_main
  3167  00E2  083B               	movf	??_main,w
  3168  00E3  00B3               	movwf	I2C1_Read1ByteRegister@reg
  3169  00E4  300E               	movlw	14
  3170  00E5  3186  268F  3180   	fcall	_I2C1_Read1ByteRegister
  3171  00E8  0020               	movlb	0	; select bank0
  3172  00E9  00BC               	movwf	??_main+1
  3173  00EA  083C               	movf	??_main+1,w
  3174  00EB  00CB               	movwf	main@data_z
  3175  00EC                     l3603:
  3176                           
  3177                           ;main.c: 444:         if (mathAbs(data_x) > mathAbs(data_y) + mathAbs(data_z)){
  3178  00EC  0849               	movf	main@data_x,w
  3179  00ED  318E  2650  3180   	fcall	_mathAbs
  3180  00F0  0020               	movlb	0	; select bank0
  3181  00F1  00BB               	movwf	??_main
  3182  00F2  01BC               	clrf	??_main+1
  3183  00F3  1BBB               	btfsc	??_main,7
  3184  00F4  03BC               	decf	??_main+1,f
  3185  00F5  084B               	movf	main@data_z,w
  3186  00F6  318E  2650  3180   	fcall	_mathAbs
  3187  00F9  0020               	movlb	0	; select bank0
  3188  00FA  00BD               	movwf	??_main+2
  3189  00FB  01BE               	clrf	??_main+3
  3190  00FC  1BBD               	btfsc	??_main+2,7
  3191  00FD  03BE               	decf	??_main+3,f
  3192  00FE  084A               	movf	main@data_y,w
  3193  00FF  318E  2650  3180   	fcall	_mathAbs
  3194  0102  0020               	movlb	0	; select bank0
  3195  0103  00BF               	movwf	??_main+4
  3196  0104  01C0               	clrf	??_main+5
  3197  0105  1BBF               	btfsc	??_main+4,7
  3198  0106  03C0               	decf	??_main+5,f
  3199  0107  083D               	movf	??_main+2,w
  3200  0108  073F               	addwf	??_main+4,w
  3201  0109  00C1               	movwf	??_main+6
  3202  010A  083E               	movf	??_main+3,w
  3203  010B  3D40               	addwfc	??_main+5,w
  3204  010C  00C2               	movwf	??_main+7
  3205  010D  0842               	movf	??_main+7,w
  3206  010E  3A80               	xorlw	128
  3207  010F  00C3               	movwf	??_main+8
  3208  0110  083C               	movf	??_main+1,w
  3209  0111  3A80               	xorlw	128
  3210  0112  0243               	subwf	??_main+8,w
  3211  0113  1D03               	skipz
  3212  0114  2917               	goto	u1385
  3213  0115  083B               	movf	??_main,w
  3214  0116  0241               	subwf	??_main+6,w
  3215  0117                     u1385:
  3216  0117  1803               	skipnc
  3217  0118  291A               	goto	u1381
  3218  0119  291B               	goto	u1380
  3219  011A                     u1381:
  3220  011A  2954               	goto	l3615
  3221  011B                     u1380:
  3222  011B                     l3605:
  3223                           
  3224                           ;main.c: 445:             EPWM1_LoadDutyValue(0);
  3225  011B  3000               	movlw	0
  3226  011C  0020               	movlb	0	; select bank0
  3227  011D  00A0               	movwf	EPWM1_LoadDutyValue@dutyValue
  3228  011E  00A1               	movwf	EPWM1_LoadDutyValue@dutyValue+1
  3229  011F  318F  273C  3180   	fcall	_EPWM1_LoadDutyValue
  3230                           
  3231                           ;main.c: 446:             EPWM2_LoadDutyValue(0);
  3232  0122  3000               	movlw	0
  3233  0123  0020               	movlb	0	; select bank0
  3234  0124  00A0               	movwf	EPWM2_LoadDutyValue@dutyValue
  3235  0125  00A1               	movwf	EPWM2_LoadDutyValue@dutyValue+1
  3236  0126  318F  2758  3180   	fcall	_EPWM2_LoadDutyValue
  3237                           
  3238                           ;main.c: 447:             PWM4_LoadDutyValue(0);
  3239  0129  3000               	movlw	0
  3240  012A  0020               	movlb	0	; select bank0
  3241  012B  00A0               	movwf	PWM4_LoadDutyValue@dutyValue
  3242  012C  00A1               	movwf	PWM4_LoadDutyValue@dutyValue+1
  3243  012D  318F  2774  3180   	fcall	_PWM4_LoadDutyValue
  3244                           
  3245                           ;main.c: 448:             DELAY_milliseconds(100);
  3246  0130  3064               	movlw	100
  3247  0131  0020               	movlb	0	; select bank0
  3248  0132  00A0               	movwf	DELAY_milliseconds@milliseconds
  3249  0133  3000               	movlw	0
  3250  0134  00A1               	movwf	DELAY_milliseconds@milliseconds+1
  3251  0135  318E  26D5  3180   	fcall	_DELAY_milliseconds
  3252  0138                     l3607:
  3253                           
  3254                           ;main.c: 449:             if(part < 4 && moves[part-1] != 1){
  3255  0138  0020               	movlb	0	; select bank0
  3256  0139  086D               	movf	_part,w
  3257  013A  3A80               	xorlw	128
  3258  013B  3E7C               	addlw	-132
  3259  013C  1803               	skipnc
  3260  013D  293F               	goto	u1391
  3261  013E  2940               	goto	u1390
  3262  013F                     u1391:
  3263  013F  2AE9               	goto	l3721
  3264  0140                     u1390:
  3265  0140                     l3609:
  3266  0140  086D               	movf	_part,w
  3267  0141  3E68               	addlw	(low ((_moves| 0+255)))& (0+255)
  3268  0142  0086               	movwf	6
  3269  0143  0187               	clrf	7
  3270  0144  0301               	decf	1,w
  3271  0145  1903               	btfsc	3,2
  3272  0146  2948               	goto	u1401
  3273  0147  2949               	goto	u1400
  3274  0148                     u1401:
  3275  0148  2AE9               	goto	l3721
  3276  0149                     u1400:
  3277  0149                     l3611:
  3278                           
  3279                           ;main.c: 450:                 moves[part] = 1;
  3280  0149  086D               	movf	_part,w
  3281  014A  3E69               	addlw	(low (_moves| 0))& (0+255)
  3282  014B  0086               	movwf	6
  3283  014C  0187               	clrf	7
  3284  014D  0181               	clrf	1
  3285  014E  0A81               	incf	1,f
  3286  014F                     l3613:
  3287                           
  3288                           ;main.c: 451:                 part++;
  3289  014F  3001               	movlw	1
  3290  0150  00BB               	movwf	??_main
  3291  0151  083B               	movf	??_main,w
  3292  0152  07ED               	addwf	_part,f
  3293  0153  2AE9               	goto	l3721
  3294  0154                     l3615:
  3295  0154  0020               	movlb	0	; select bank0
  3296  0155  084A               	movf	main@data_y,w
  3297  0156  318E  2650  3180   	fcall	_mathAbs
  3298  0159  0020               	movlb	0	; select bank0
  3299  015A  00BB               	movwf	??_main
  3300  015B  01BC               	clrf	??_main+1
  3301  015C  1BBB               	btfsc	??_main,7
  3302  015D  03BC               	decf	??_main+1,f
  3303  015E  084B               	movf	main@data_z,w
  3304  015F  318E  2650  3180   	fcall	_mathAbs
  3305  0162  0020               	movlb	0	; select bank0
  3306  0163  00BD               	movwf	??_main+2
  3307  0164  01BE               	clrf	??_main+3
  3308  0165  1BBD               	btfsc	??_main+2,7
  3309  0166  03BE               	decf	??_main+3,f
  3310  0167  0849               	movf	main@data_x,w
  3311  0168  318E  2650  3180   	fcall	_mathAbs
  3312  016B  0020               	movlb	0	; select bank0
  3313  016C  00BF               	movwf	??_main+4
  3314  016D  01C0               	clrf	??_main+5
  3315  016E  1BBF               	btfsc	??_main+4,7
  3316  016F  03C0               	decf	??_main+5,f
  3317  0170  083D               	movf	??_main+2,w
  3318  0171  073F               	addwf	??_main+4,w
  3319  0172  00C1               	movwf	??_main+6
  3320  0173  083E               	movf	??_main+3,w
  3321  0174  3D40               	addwfc	??_main+5,w
  3322  0175  00C2               	movwf	??_main+7
  3323  0176  0842               	movf	??_main+7,w
  3324  0177  3A80               	xorlw	128
  3325  0178  00C3               	movwf	??_main+8
  3326  0179  083C               	movf	??_main+1,w
  3327  017A  3A80               	xorlw	128
  3328  017B  0243               	subwf	??_main+8,w
  3329  017C  1D03               	skipz
  3330  017D  2980               	goto	u1415
  3331  017E  083B               	movf	??_main,w
  3332  017F  0241               	subwf	??_main+6,w
  3333  0180                     u1415:
  3334  0180  1803               	skipnc
  3335  0181  2983               	goto	u1411
  3336  0182  2984               	goto	u1410
  3337  0183                     u1411:
  3338  0183  2A0A               	goto	l3661
  3339  0184                     u1410:
  3340  0184                     l3617:
  3341                           
  3342                           ;main.c: 454:             EPWM1_LoadDutyValue(0);
  3343  0184  3000               	movlw	0
  3344  0185  0020               	movlb	0	; select bank0
  3345  0186  00A0               	movwf	EPWM1_LoadDutyValue@dutyValue
  3346  0187  00A1               	movwf	EPWM1_LoadDutyValue@dutyValue+1
  3347  0188  318F  273C  3180   	fcall	_EPWM1_LoadDutyValue
  3348                           
  3349                           ;main.c: 455:             EPWM2_LoadDutyValue(0);
  3350  018B  3000               	movlw	0
  3351  018C  0020               	movlb	0	; select bank0
  3352  018D  00A0               	movwf	EPWM2_LoadDutyValue@dutyValue
  3353  018E  00A1               	movwf	EPWM2_LoadDutyValue@dutyValue+1
  3354  018F  318F  2758  3180   	fcall	_EPWM2_LoadDutyValue
  3355                           
  3356                           ;main.c: 456:             PWM4_LoadDutyValue(0);
  3357  0192  3000               	movlw	0
  3358  0193  0020               	movlb	0	; select bank0
  3359  0194  00A0               	movwf	PWM4_LoadDutyValue@dutyValue
  3360  0195  00A1               	movwf	PWM4_LoadDutyValue@dutyValue+1
  3361  0196  318F  2774  3180   	fcall	_PWM4_LoadDutyValue
  3362                           
  3363                           ;main.c: 457:             DELAY_milliseconds(100);
  3364  0199  3064               	movlw	100
  3365  019A  0020               	movlb	0	; select bank0
  3366  019B  00A0               	movwf	DELAY_milliseconds@milliseconds
  3367  019C  3000               	movlw	0
  3368  019D  00A1               	movwf	DELAY_milliseconds@milliseconds+1
  3369  019E  318E  26D5  3180   	fcall	_DELAY_milliseconds
  3370  01A1                     l3619:
  3371                           
  3372                           ;main.c: 458:             if(part < 4 && moves[part-1] != 2){
  3373  01A1  0020               	movlb	0	; select bank0
  3374  01A2  086D               	movf	_part,w
  3375  01A3  3A80               	xorlw	128
  3376  01A4  3E7C               	addlw	-132
  3377  01A5  1803               	skipnc
  3378  01A6  29A8               	goto	u1421
  3379  01A7  29A9               	goto	u1420
  3380  01A8                     u1421:
  3381  01A8  29C0               	goto	l3629
  3382  01A9                     u1420:
  3383  01A9                     l3621:
  3384  01A9  086D               	movf	_part,w
  3385  01AA  3E68               	addlw	(low ((_moves| 0+255)))& (0+255)
  3386  01AB  0086               	movwf	6
  3387  01AC  0187               	clrf	7
  3388  01AD  3002               	movlw	2
  3389  01AE  0601               	xorwf	1,w
  3390  01AF  1903               	btfsc	3,2
  3391  01B0  29B2               	goto	u1431
  3392  01B1  29B3               	goto	u1430
  3393  01B2                     u1431:
  3394  01B2  29C0               	goto	l3629
  3395  01B3                     u1430:
  3396  01B3                     l3623:
  3397                           
  3398                           ;main.c: 459:                 moves[part] = 2;
  3399  01B3  3002               	movlw	2
  3400  01B4  00BB               	movwf	??_main
  3401  01B5  086D               	movf	_part,w
  3402  01B6  3E69               	addlw	(low (_moves| 0))& (0+255)
  3403  01B7  0086               	movwf	6
  3404  01B8  0187               	clrf	7
  3405  01B9  083B               	movf	??_main,w
  3406  01BA  0081               	movwf	1
  3407  01BB                     l3625:
  3408                           
  3409                           ;main.c: 460:                 part++;
  3410  01BB  3001               	movlw	1
  3411  01BC  00BB               	movwf	??_main
  3412  01BD  083B               	movf	??_main,w
  3413  01BE  07ED               	addwf	_part,f
  3414  01BF                     l3627:
  3415                           
  3416                           ;main.c: 461:                 timer = 0;
  3417  01BF  01C8               	clrf	main@timer
  3418  01C0                     l3629:
  3419                           
  3420                           ;main.c: 464:             if(moves[1] == 2 && moves[2] == 1 && moves[3] == 2){
  3421  01C0  3002               	movlw	2
  3422  01C1  066A               	xorwf	_moves+1,w
  3423  01C2  1D03               	btfss	3,2
  3424  01C3  29C5               	goto	u1441
  3425  01C4  29C6               	goto	u1440
  3426  01C5                     u1441:
  3427  01C5  29F6               	goto	l3653
  3428  01C6                     u1440:
  3429  01C6                     l3631:
  3430  01C6  036B               	decf	_moves+2,w
  3431  01C7  1D03               	btfss	3,2
  3432  01C8  29CA               	goto	u1451
  3433  01C9  29CB               	goto	u1450
  3434  01CA                     u1451:
  3435  01CA  29F6               	goto	l3653
  3436  01CB                     u1450:
  3437  01CB                     l3633:
  3438  01CB  3002               	movlw	2
  3439  01CC  066C               	xorwf	_moves+3,w
  3440  01CD  1D03               	btfss	3,2
  3441  01CE  29D0               	goto	u1461
  3442  01CF  29D1               	goto	u1460
  3443  01D0                     u1461:
  3444  01D0  29F6               	goto	l3653
  3445  01D1                     u1460:
  3446  01D1                     l3635:
  3447                           
  3448                           ;main.c: 465:                 sparks();
  3449  01D1  3183  23F7  3180   	fcall	_sparks
  3450  01D4                     l3637:
  3451                           
  3452                           ;main.c: 466:                 moves[1] = 0; moves[2] = 0; moves[3] = 0; part = 1;
  3453  01D4  0020               	movlb	0	; select bank0
  3454  01D5  01EA               	clrf	_moves+1
  3455  01D6                     l3639:
  3456  01D6  01EB               	clrf	_moves+2
  3457  01D7                     l3641:
  3458  01D7  01EC               	clrf	_moves+3
  3459  01D8                     l3643:
  3460  01D8  01ED               	clrf	_part
  3461  01D9  0AED               	incf	_part,f
  3462  01DA                     l3645:
  3463                           
  3464                           ;main.c: 467:                 EPWM1_LoadDutyValue(0);
  3465  01DA  3000               	movlw	0
  3466  01DB  00A0               	movwf	EPWM1_LoadDutyValue@dutyValue
  3467  01DC  00A1               	movwf	EPWM1_LoadDutyValue@dutyValue+1
  3468  01DD  318F  273C  3180   	fcall	_EPWM1_LoadDutyValue
  3469  01E0                     l3647:
  3470                           
  3471                           ;main.c: 468:                 EPWM2_LoadDutyValue(0);
  3472  01E0  3000               	movlw	0
  3473  01E1  0020               	movlb	0	; select bank0
  3474  01E2  00A0               	movwf	EPWM2_LoadDutyValue@dutyValue
  3475  01E3  00A1               	movwf	EPWM2_LoadDutyValue@dutyValue+1
  3476  01E4  318F  2758  3180   	fcall	_EPWM2_LoadDutyValue
  3477  01E7                     l3649:
  3478                           
  3479                           ;main.c: 469:                 PWM4_LoadDutyValue(0);
  3480  01E7  3000               	movlw	0
  3481  01E8  0020               	movlb	0	; select bank0
  3482  01E9  00A0               	movwf	PWM4_LoadDutyValue@dutyValue
  3483  01EA  00A1               	movwf	PWM4_LoadDutyValue@dutyValue+1
  3484  01EB  318F  2774  3180   	fcall	_PWM4_LoadDutyValue
  3485  01EE                     l3651:
  3486                           
  3487                           ;main.c: 470:                 DELAY_milliseconds(500);
  3488  01EE  30F4               	movlw	244
  3489  01EF  0020               	movlb	0	; select bank0
  3490  01F0  00A0               	movwf	DELAY_milliseconds@milliseconds
  3491  01F1  3001               	movlw	1
  3492  01F2  00A1               	movwf	DELAY_milliseconds@milliseconds+1
  3493  01F3  318E  26D5  3180   	fcall	_DELAY_milliseconds
  3494  01F6                     l3653:
  3495                           
  3496                           ;main.c: 473:             timer++;
  3497  01F6  3001               	movlw	1
  3498  01F7  0020               	movlb	0	; select bank0
  3499  01F8  00BB               	movwf	??_main
  3500  01F9  083B               	movf	??_main,w
  3501  01FA  07C8               	addwf	main@timer,f
  3502  01FB                     l3655:
  3503                           
  3504                           ;main.c: 474:             if(timer > 3){
  3505  01FB  0848               	movf	main@timer,w
  3506  01FC  3A80               	xorlw	128
  3507  01FD  3E7C               	addlw	-132
  3508  01FE  1C03               	skipc
  3509  01FF  2A01               	goto	u1471
  3510  0200  2A02               	goto	u1470
  3511  0201                     u1471:
  3512  0201  2AE9               	goto	l3721
  3513  0202                     u1470:
  3514  0202                     l3657:
  3515                           
  3516                           ;main.c: 475:                moves[0] = 0; moves[1] = 0; moves[2] = 0; moves[3] = 0; par
      +                          t = 1;
  3517  0202  01E9               	clrf	_moves
  3518  0203  01EA               	clrf	_moves+1
  3519  0204  01EB               	clrf	_moves+2
  3520  0205  01EC               	clrf	_moves+3
  3521  0206                     l3659:
  3522  0206  01ED               	clrf	_part
  3523  0207  0AED               	incf	_part,f
  3524                           
  3525                           ;main.c: 476:                timer = 0;
  3526  0208  01C8               	clrf	main@timer
  3527  0209  2AE9               	goto	l3721
  3528  020A                     l3661:
  3529  020A  0020               	movlb	0	; select bank0
  3530  020B  084B               	movf	main@data_z,w
  3531  020C  318E  2650  3180   	fcall	_mathAbs
  3532  020F  0020               	movlb	0	; select bank0
  3533  0210  00BB               	movwf	??_main
  3534  0211  01BC               	clrf	??_main+1
  3535  0212  1BBB               	btfsc	??_main,7
  3536  0213  03BC               	decf	??_main+1,f
  3537  0214  0849               	movf	main@data_x,w
  3538  0215  318E  2650  3180   	fcall	_mathAbs
  3539  0218  0020               	movlb	0	; select bank0
  3540  0219  00BD               	movwf	??_main+2
  3541  021A  01BE               	clrf	??_main+3
  3542  021B  1BBD               	btfsc	??_main+2,7
  3543  021C  03BE               	decf	??_main+3,f
  3544  021D  084A               	movf	main@data_y,w
  3545  021E  318E  2650  3180   	fcall	_mathAbs
  3546  0221  0020               	movlb	0	; select bank0
  3547  0222  00BF               	movwf	??_main+4
  3548  0223  01C0               	clrf	??_main+5
  3549  0224  1BBF               	btfsc	??_main+4,7
  3550  0225  03C0               	decf	??_main+5,f
  3551  0226  083D               	movf	??_main+2,w
  3552  0227  073F               	addwf	??_main+4,w
  3553  0228  00C1               	movwf	??_main+6
  3554  0229  083E               	movf	??_main+3,w
  3555  022A  3D40               	addwfc	??_main+5,w
  3556  022B  00C2               	movwf	??_main+7
  3557  022C  0842               	movf	??_main+7,w
  3558  022D  3A80               	xorlw	128
  3559  022E  00C3               	movwf	??_main+8
  3560  022F  083C               	movf	??_main+1,w
  3561  0230  3A80               	xorlw	128
  3562  0231  0243               	subwf	??_main+8,w
  3563  0232  1D03               	skipz
  3564  0233  2A36               	goto	u1485
  3565  0234  083B               	movf	??_main,w
  3566  0235  0241               	subwf	??_main+6,w
  3567  0236                     u1485:
  3568  0236  1803               	skipnc
  3569  0237  2A39               	goto	u1481
  3570  0238  2A3A               	goto	u1480
  3571  0239                     u1481:
  3572  0239  2AE9               	goto	l3721
  3573  023A                     u1480:
  3574  023A                     l3663:
  3575                           
  3576                           ;main.c: 480:             EPWM1_LoadDutyValue(0);
  3577  023A  3000               	movlw	0
  3578  023B  0020               	movlb	0	; select bank0
  3579  023C  00A0               	movwf	EPWM1_LoadDutyValue@dutyValue
  3580  023D  00A1               	movwf	EPWM1_LoadDutyValue@dutyValue+1
  3581  023E  318F  273C  3180   	fcall	_EPWM1_LoadDutyValue
  3582                           
  3583                           ;main.c: 481:             EPWM2_LoadDutyValue(0);
  3584  0241  3000               	movlw	0
  3585  0242  0020               	movlb	0	; select bank0
  3586  0243  00A0               	movwf	EPWM2_LoadDutyValue@dutyValue
  3587  0244  00A1               	movwf	EPWM2_LoadDutyValue@dutyValue+1
  3588  0245  318F  2758  3180   	fcall	_EPWM2_LoadDutyValue
  3589                           
  3590                           ;main.c: 482:             PWM4_LoadDutyValue(0);
  3591  0248  3000               	movlw	0
  3592  0249  0020               	movlb	0	; select bank0
  3593  024A  00A0               	movwf	PWM4_LoadDutyValue@dutyValue
  3594  024B  00A1               	movwf	PWM4_LoadDutyValue@dutyValue+1
  3595  024C  318F  2774  3180   	fcall	_PWM4_LoadDutyValue
  3596                           
  3597                           ;main.c: 484:             DELAY_milliseconds(100);
  3598  024F  3064               	movlw	100
  3599  0250  0020               	movlb	0	; select bank0
  3600  0251  00A0               	movwf	DELAY_milliseconds@milliseconds
  3601  0252  3000               	movlw	0
  3602  0253  00A1               	movwf	DELAY_milliseconds@milliseconds+1
  3603  0254  318E  26D5  3180   	fcall	_DELAY_milliseconds
  3604  0257                     l3665:
  3605                           
  3606                           ;main.c: 485:             if(part < 4 && moves[part-1] != 3){
  3607  0257  0020               	movlb	0	; select bank0
  3608  0258  086D               	movf	_part,w
  3609  0259  3A80               	xorlw	128
  3610  025A  3E7C               	addlw	-132
  3611  025B  1803               	skipnc
  3612  025C  2A5E               	goto	u1491
  3613  025D  2A5F               	goto	u1490
  3614  025E                     u1491:
  3615  025E  2A76               	goto	l3673
  3616  025F                     u1490:
  3617  025F                     l3667:
  3618  025F  086D               	movf	_part,w
  3619  0260  3E68               	addlw	(low ((_moves| 0+255)))& (0+255)
  3620  0261  0086               	movwf	6
  3621  0262  0187               	clrf	7
  3622  0263  3003               	movlw	3
  3623  0264  0601               	xorwf	1,w
  3624  0265  1903               	btfsc	3,2
  3625  0266  2A68               	goto	u1501
  3626  0267  2A69               	goto	u1500
  3627  0268                     u1501:
  3628  0268  2A76               	goto	l3673
  3629  0269                     u1500:
  3630  0269                     l3669:
  3631                           
  3632                           ;main.c: 486:                 moves[part] = 3;
  3633  0269  3003               	movlw	3
  3634  026A  00BB               	movwf	??_main
  3635  026B  086D               	movf	_part,w
  3636  026C  3E69               	addlw	(low (_moves| 0))& (0+255)
  3637  026D  0086               	movwf	6
  3638  026E  0187               	clrf	7
  3639  026F  083B               	movf	??_main,w
  3640  0270  0081               	movwf	1
  3641  0271                     l3671:
  3642                           
  3643                           ;main.c: 487:                 part++;
  3644  0271  3001               	movlw	1
  3645  0272  00BB               	movwf	??_main
  3646  0273  083B               	movf	??_main,w
  3647  0274  07ED               	addwf	_part,f
  3648                           
  3649                           ;main.c: 488:             }else if(moves[part-1] == 3){
  3650  0275  2AB0               	goto	l3695
  3651  0276                     l3673:
  3652  0276  086D               	movf	_part,w
  3653  0277  3E68               	addlw	(low ((_moves| 0+255)))& (0+255)
  3654  0278  0086               	movwf	6
  3655  0279  0187               	clrf	7
  3656  027A  3003               	movlw	3
  3657  027B  0601               	xorwf	1,w
  3658  027C  1D03               	btfss	3,2
  3659  027D  2A7F               	goto	u1511
  3660  027E  2A80               	goto	u1510
  3661  027F                     u1511:
  3662  027F  2AB0               	goto	l3695
  3663  0280                     u1510:
  3664  0280                     l3675:
  3665                           
  3666                           ;main.c: 489:                 if(moves[1] == 2 && moves[2] == 3){
  3667  0280  3002               	movlw	2
  3668  0281  066A               	xorwf	_moves+1,w
  3669  0282  1D03               	btfss	3,2
  3670  0283  2A85               	goto	u1521
  3671  0284  2A86               	goto	u1520
  3672  0285                     u1521:
  3673  0285  2AB0               	goto	l3695
  3674  0286                     u1520:
  3675  0286                     l3677:
  3676  0286  3003               	movlw	3
  3677  0287  066B               	xorwf	_moves+2,w
  3678  0288  1D03               	btfss	3,2
  3679  0289  2A8B               	goto	u1531
  3680  028A  2A8C               	goto	u1530
  3681  028B                     u1531:
  3682  028B  2AB0               	goto	l3695
  3683  028C                     u1530:
  3684  028C                     l3679:
  3685                           
  3686                           ;main.c: 490:                     lumos();
  3687  028C  3185  2551  3180   	fcall	_lumos
  3688  028F                     l3681:
  3689                           
  3690                           ;main.c: 491:                     moves[1] = 0; moves[2] = 0; part = 1;
  3691  028F  0020               	movlb	0	; select bank0
  3692  0290  01EA               	clrf	_moves+1
  3693  0291                     l3683:
  3694  0291  01EB               	clrf	_moves+2
  3695  0292                     l3685:
  3696  0292  01ED               	clrf	_part
  3697  0293  0AED               	incf	_part,f
  3698  0294                     l3687:
  3699                           
  3700                           ;main.c: 492:                     EPWM1_LoadDutyValue(0);
  3701  0294  3000               	movlw	0
  3702  0295  00A0               	movwf	EPWM1_LoadDutyValue@dutyValue
  3703  0296  00A1               	movwf	EPWM1_LoadDutyValue@dutyValue+1
  3704  0297  318F  273C  3180   	fcall	_EPWM1_LoadDutyValue
  3705  029A                     l3689:
  3706                           
  3707                           ;main.c: 493:                     EPWM2_LoadDutyValue(0);
  3708  029A  3000               	movlw	0
  3709  029B  0020               	movlb	0	; select bank0
  3710  029C  00A0               	movwf	EPWM2_LoadDutyValue@dutyValue
  3711  029D  00A1               	movwf	EPWM2_LoadDutyValue@dutyValue+1
  3712  029E  318F  2758  3180   	fcall	_EPWM2_LoadDutyValue
  3713  02A1                     l3691:
  3714                           
  3715                           ;main.c: 494:                     PWM4_LoadDutyValue(0);
  3716  02A1  3000               	movlw	0
  3717  02A2  0020               	movlb	0	; select bank0
  3718  02A3  00A0               	movwf	PWM4_LoadDutyValue@dutyValue
  3719  02A4  00A1               	movwf	PWM4_LoadDutyValue@dutyValue+1
  3720  02A5  318F  2774  3180   	fcall	_PWM4_LoadDutyValue
  3721  02A8                     l3693:
  3722                           
  3723                           ;main.c: 495:                     DELAY_milliseconds(500);
  3724  02A8  30F4               	movlw	244
  3725  02A9  0020               	movlb	0	; select bank0
  3726  02AA  00A0               	movwf	DELAY_milliseconds@milliseconds
  3727  02AB  3001               	movlw	1
  3728  02AC  00A1               	movwf	DELAY_milliseconds@milliseconds+1
  3729  02AD  318E  26D5  3180   	fcall	_DELAY_milliseconds
  3730  02B0                     l3695:
  3731                           
  3732                           ;main.c: 499:                 if(moves[1] == 2 && moves[2] == 1 && moves[3] == 3){
  3733  02B0  3002               	movlw	2
  3734  02B1  0020               	movlb	0	; select bank0
  3735  02B2  066A               	xorwf	_moves+1,w
  3736  02B3  1D03               	btfss	3,2
  3737  02B4  2AB6               	goto	u1541
  3738  02B5  2AB7               	goto	u1540
  3739  02B6                     u1541:
  3740  02B6  2AE7               	goto	l3719
  3741  02B7                     u1540:
  3742  02B7                     l3697:
  3743  02B7  036B               	decf	_moves+2,w
  3744  02B8  1D03               	btfss	3,2
  3745  02B9  2ABB               	goto	u1551
  3746  02BA  2ABC               	goto	u1550
  3747  02BB                     u1551:
  3748  02BB  2AE7               	goto	l3719
  3749  02BC                     u1550:
  3750  02BC                     l3699:
  3751  02BC  3003               	movlw	3
  3752  02BD  066C               	xorwf	_moves+3,w
  3753  02BE  1D03               	btfss	3,2
  3754  02BF  2AC1               	goto	u1561
  3755  02C0  2AC2               	goto	u1560
  3756  02C1                     u1561:
  3757  02C1  2AE7               	goto	l3719
  3758  02C2                     u1560:
  3759  02C2                     l3701:
  3760                           
  3761                           ;main.c: 500:                     patronus();
  3762  02C2  3183  2311  3180   	fcall	_patronus
  3763  02C5                     l3703:
  3764                           
  3765                           ;main.c: 501:                     moves[1] = 0; moves[2] = 0; moves[3] = 0; part = 1;
  3766  02C5  0020               	movlb	0	; select bank0
  3767  02C6  01EA               	clrf	_moves+1
  3768  02C7                     l3705:
  3769  02C7  01EB               	clrf	_moves+2
  3770  02C8                     l3707:
  3771  02C8  01EC               	clrf	_moves+3
  3772  02C9                     l3709:
  3773  02C9  01ED               	clrf	_part
  3774  02CA  0AED               	incf	_part,f
  3775  02CB                     l3711:
  3776                           
  3777                           ;main.c: 502:                     EPWM1_LoadDutyValue(0);
  3778  02CB  3000               	movlw	0
  3779  02CC  00A0               	movwf	EPWM1_LoadDutyValue@dutyValue
  3780  02CD  00A1               	movwf	EPWM1_LoadDutyValue@dutyValue+1
  3781  02CE  318F  273C  3180   	fcall	_EPWM1_LoadDutyValue
  3782  02D1                     l3713:
  3783                           
  3784                           ;main.c: 503:                     EPWM2_LoadDutyValue(0);
  3785  02D1  3000               	movlw	0
  3786  02D2  0020               	movlb	0	; select bank0
  3787  02D3  00A0               	movwf	EPWM2_LoadDutyValue@dutyValue
  3788  02D4  00A1               	movwf	EPWM2_LoadDutyValue@dutyValue+1
  3789  02D5  318F  2758  3180   	fcall	_EPWM2_LoadDutyValue
  3790  02D8                     l3715:
  3791                           
  3792                           ;main.c: 504:                     PWM4_LoadDutyValue(0);
  3793  02D8  3000               	movlw	0
  3794  02D9  0020               	movlb	0	; select bank0
  3795  02DA  00A0               	movwf	PWM4_LoadDutyValue@dutyValue
  3796  02DB  00A1               	movwf	PWM4_LoadDutyValue@dutyValue+1
  3797  02DC  318F  2774  3180   	fcall	_PWM4_LoadDutyValue
  3798  02DF                     l3717:
  3799                           
  3800                           ;main.c: 505:                     DELAY_milliseconds(500);
  3801  02DF  30F4               	movlw	244
  3802  02E0  0020               	movlb	0	; select bank0
  3803  02E1  00A0               	movwf	DELAY_milliseconds@milliseconds
  3804  02E2  3001               	movlw	1
  3805  02E3  00A1               	movwf	DELAY_milliseconds@milliseconds+1
  3806  02E4  318E  26D5  3180   	fcall	_DELAY_milliseconds
  3807  02E7                     l3719:
  3808                           
  3809                           ;main.c: 508:             timer = 0;
  3810  02E7  0020               	movlb	0	; select bank0
  3811  02E8  01C8               	clrf	main@timer
  3812  02E9                     l3721:
  3813                           
  3814                           ;main.c: 562:         previous_data_x = I2C1_Read1ByteRegister(0x0E, 0x07);
  3815  02E9  3007               	movlw	7
  3816  02EA  0020               	movlb	0	; select bank0
  3817  02EB  00BB               	movwf	??_main
  3818  02EC  083B               	movf	??_main,w
  3819  02ED  00B3               	movwf	I2C1_Read1ByteRegister@reg
  3820  02EE  300E               	movlw	14
  3821  02EF  3186  268F  3180   	fcall	_I2C1_Read1ByteRegister
  3822  02F2  0020               	movlb	0	; select bank0
  3823  02F3  00BC               	movwf	??_main+1
  3824  02F4  083C               	movf	??_main+1,w
  3825  02F5  00C4               	movwf	main@previous_data_x
  3826  02F6                     l3723:
  3827                           
  3828                           ;main.c: 563:         previous_data_y = I2C1_Read1ByteRegister(0x0E, 0x09);
  3829  02F6  3009               	movlw	9
  3830  02F7  00BB               	movwf	??_main
  3831  02F8  083B               	movf	??_main,w
  3832  02F9  00B3               	movwf	I2C1_Read1ByteRegister@reg
  3833  02FA  300E               	movlw	14
  3834  02FB  3186  268F  3180   	fcall	_I2C1_Read1ByteRegister
  3835  02FE  0020               	movlb	0	; select bank0
  3836  02FF  00BC               	movwf	??_main+1
  3837  0300  083C               	movf	??_main+1,w
  3838  0301  00C5               	movwf	main@previous_data_y
  3839  0302                     l3725:
  3840                           
  3841                           ;main.c: 564:         previous_data_z = I2C1_Read1ByteRegister(0x0E, 0x0B);
  3842  0302  300B               	movlw	11
  3843  0303  00BB               	movwf	??_main
  3844  0304  083B               	movf	??_main,w
  3845  0305  00B3               	movwf	I2C1_Read1ByteRegister@reg
  3846  0306  300E               	movlw	14
  3847  0307  3186  268F  3180   	fcall	_I2C1_Read1ByteRegister
  3848  030A  0020               	movlb	0	; select bank0
  3849  030B  00BC               	movwf	??_main+1
  3850  030C  083C               	movf	??_main+1,w
  3851  030D  00C6               	movwf	main@previous_data_z
  3852  030E  28C8               	goto	l3591
  3853  030F  3180  2813         	ljmp	start
  3854  0311                     __end_of_main:
  3855                           
  3856                           	psect	text1
  3857  03F7                     __ptext1:	
  3858 ;; *************** function _sparks *****************
  3859 ;; Defined at:
  3860 ;;		line 208 in file "main.c"
  3861 ;; Parameters:    Size  Location     Type
  3862 ;;		None
  3863 ;; Auto vars:     Size  Location     Type
  3864 ;;  i               1    9[BANK0 ] unsigned char 
  3865 ;; Return value:  Size  Location     Type
  3866 ;;                  1    wreg      void 
  3867 ;; Registers used:
  3868 ;;		wreg, status,2, status,0, pclath, cstack
  3869 ;; Tracked objects:
  3870 ;;		On entry : 0/0
  3871 ;;		On exit  : 0/0
  3872 ;;		Unchanged: 0/0
  3873 ;; Data sizes:     COMMON   BANK0   BANK1   BANK2   BANK3   BANK4   BANK5   BANK6   BANK7   BANK8   BANK9  BANK10  BANK1
      +1  BANK12
  3874 ;;      Params:         0       0       0       0       0       0       0       0       0       0       0       0       
      +0       0
  3875 ;;      Locals:         0       1       0       0       0       0       0       0       0       0       0       0       
      +0       0
  3876 ;;      Temps:          0       2       0       0       0       0       0       0       0       0       0       0       
      +0       0
  3877 ;;      Totals:         0       3       0       0       0       0       0       0       0       0       0       0       
      +0       0
  3878 ;;Total ram usage:        3 bytes
  3879 ;; Hardware stack levels used: 1
  3880 ;; Hardware stack levels required when called: 11
  3881 ;; This function calls:
  3882 ;;		_DELAY_milliseconds
  3883 ;;		_EPWM2_LoadDutyValue
  3884 ;;		_flashRED
  3885 ;;		_lightsOff
  3886 ;; This function is called by:
  3887 ;;		_main
  3888 ;; This function uses a non-reentrant model
  3889 ;;
  3890                           
  3891                           
  3892                           ;psect for function _sparks
  3893  03F7                     _sparks:
  3894  03F7                     l3493:	
  3895                           ;incstack = 0
  3896                           ; Regs used in _sparks: [wreg+status,2+status,0+pclath+cstack]
  3897                           
  3898                           
  3899                           ;main.c: 210:     uint8_t i;;main.c: 231:     lightsOff();
  3900  03F7  318E  267A  3183   	fcall	_lightsOff
  3901  03FA                     l3495:
  3902                           
  3903                           ;main.c: 233:     for (i=0;i<160;i++)
  3904  03FA  0020               	movlb	0	; select bank0
  3905  03FB  01A9               	clrf	sparks@i
  3906  03FC                     l3501:
  3907                           
  3908                           ;main.c: 234:     {;main.c: 235:         EPWM2_LoadDutyValue(i);
  3909  03FC  0829               	movf	sparks@i,w
  3910  03FD  00A7               	movwf	??_sparks
  3911  03FE  01A8               	clrf	??_sparks+1
  3912  03FF  0827               	movf	??_sparks,w
  3913  0400  00A0               	movwf	EPWM2_LoadDutyValue@dutyValue
  3914  0401  0828               	movf	??_sparks+1,w
  3915  0402  00A1               	movwf	EPWM2_LoadDutyValue@dutyValue+1
  3916  0403  318F  2758  3183   	fcall	_EPWM2_LoadDutyValue
  3917                           
  3918                           ;main.c: 236:         DELAY_milliseconds(10);
  3919  0406  300A               	movlw	10
  3920  0407  0020               	movlb	0	; select bank0
  3921  0408  00A0               	movwf	DELAY_milliseconds@milliseconds
  3922  0409  3000               	movlw	0
  3923  040A  00A1               	movwf	DELAY_milliseconds@milliseconds+1
  3924  040B  318E  26D5  3183   	fcall	_DELAY_milliseconds
  3925  040E                     l3503:
  3926                           
  3927                           ;main.c: 237:     }
  3928  040E  3001               	movlw	1
  3929  040F  0020               	movlb	0	; select bank0
  3930  0410  00A7               	movwf	??_sparks
  3931  0411  0827               	movf	??_sparks,w
  3932  0412  07A9               	addwf	sparks@i,f
  3933  0413                     l3505:
  3934  0413  30A0               	movlw	160
  3935  0414  0229               	subwf	sparks@i,w
  3936  0415  1C03               	skipc
  3937  0416  2C18               	goto	u1321
  3938  0417  2C19               	goto	u1320
  3939  0418                     u1321:
  3940  0418  2BFC               	goto	l3501
  3941  0419                     u1320:
  3942  0419                     l3507:
  3943                           
  3944                           ;main.c: 239:     lightsOff();
  3945  0419  318E  267A  3183   	fcall	_lightsOff
  3946                           
  3947                           ;main.c: 240:     DELAY_milliseconds(400);
  3948  041C  3090               	movlw	144
  3949  041D  0020               	movlb	0	; select bank0
  3950  041E  00A0               	movwf	DELAY_milliseconds@milliseconds
  3951  041F  3001               	movlw	1
  3952  0420  00A1               	movwf	DELAY_milliseconds@milliseconds+1
  3953  0421  318E  26D5  3183   	fcall	_DELAY_milliseconds
  3954                           
  3955                           ;main.c: 242:     flashRED();
  3956  0424  3186  26FC  3183   	fcall	_flashRED
  3957                           
  3958                           ;main.c: 243:     DELAY_milliseconds(400);
  3959  0427  3090               	movlw	144
  3960  0428  0020               	movlb	0	; select bank0
  3961  0429  00A0               	movwf	DELAY_milliseconds@milliseconds
  3962  042A  3001               	movlw	1
  3963  042B  00A1               	movwf	DELAY_milliseconds@milliseconds+1
  3964  042C  318E  26D5  3183   	fcall	_DELAY_milliseconds
  3965                           
  3966                           ;main.c: 245:     flashRED();
  3967  042F  3186  26FC  3183   	fcall	_flashRED
  3968                           
  3969                           ;main.c: 246:     DELAY_milliseconds(50);
  3970  0432  3032               	movlw	50
  3971  0433  0020               	movlb	0	; select bank0
  3972  0434  00A0               	movwf	DELAY_milliseconds@milliseconds
  3973  0435  3000               	movlw	0
  3974  0436  00A1               	movwf	DELAY_milliseconds@milliseconds+1
  3975  0437  318E  26D5  3183   	fcall	_DELAY_milliseconds
  3976                           
  3977                           ;main.c: 248:     flashRED();
  3978  043A  3186  26FC  3183   	fcall	_flashRED
  3979                           
  3980                           ;main.c: 249:     DELAY_milliseconds(50);
  3981  043D  3032               	movlw	50
  3982  043E  0020               	movlb	0	; select bank0
  3983  043F  00A0               	movwf	DELAY_milliseconds@milliseconds
  3984  0440  3000               	movlw	0
  3985  0441  00A1               	movwf	DELAY_milliseconds@milliseconds+1
  3986  0442  318E  26D5  3183   	fcall	_DELAY_milliseconds
  3987                           
  3988                           ;main.c: 251:     flashRED();
  3989  0445  3186  26FC  3183   	fcall	_flashRED
  3990                           
  3991                           ;main.c: 252:     DELAY_milliseconds(300);
  3992  0448  302C               	movlw	44
  3993  0449  0020               	movlb	0	; select bank0
  3994  044A  00A0               	movwf	DELAY_milliseconds@milliseconds
  3995  044B  3001               	movlw	1
  3996  044C  00A1               	movwf	DELAY_milliseconds@milliseconds+1
  3997  044D  318E  26D5  3183   	fcall	_DELAY_milliseconds
  3998                           
  3999                           ;main.c: 254:     flashRED();
  4000  0450  3186  26FC  3183   	fcall	_flashRED
  4001                           
  4002                           ;main.c: 255:     DELAY_milliseconds(20);
  4003  0453  3014               	movlw	20
  4004  0454  0020               	movlb	0	; select bank0
  4005  0455  00A0               	movwf	DELAY_milliseconds@milliseconds
  4006  0456  3000               	movlw	0
  4007  0457  00A1               	movwf	DELAY_milliseconds@milliseconds+1
  4008  0458  318E  26D5  3183   	fcall	_DELAY_milliseconds
  4009                           
  4010                           ;main.c: 257:     flashRED();
  4011  045B  3186  26FC  3183   	fcall	_flashRED
  4012                           
  4013                           ;main.c: 258:     DELAY_milliseconds(20);
  4014  045E  3014               	movlw	20
  4015  045F  0020               	movlb	0	; select bank0
  4016  0460  00A0               	movwf	DELAY_milliseconds@milliseconds
  4017  0461  3000               	movlw	0
  4018  0462  00A1               	movwf	DELAY_milliseconds@milliseconds+1
  4019  0463  318E  26D5  3183   	fcall	_DELAY_milliseconds
  4020                           
  4021                           ;main.c: 260:     flashRED();
  4022  0466  3186  26FC  3183   	fcall	_flashRED
  4023                           
  4024                           ;main.c: 261:     DELAY_milliseconds(20);
  4025  0469  3014               	movlw	20
  4026  046A  0020               	movlb	0	; select bank0
  4027  046B  00A0               	movwf	DELAY_milliseconds@milliseconds
  4028  046C  3000               	movlw	0
  4029  046D  00A1               	movwf	DELAY_milliseconds@milliseconds+1
  4030  046E  318E  26D5  3183   	fcall	_DELAY_milliseconds
  4031                           
  4032                           ;main.c: 263:     flashRED();
  4033  0471  3186  26FC  3183   	fcall	_flashRED
  4034                           
  4035                           ;main.c: 264:     DELAY_milliseconds(100);
  4036  0474  3064               	movlw	100
  4037  0475  0020               	movlb	0	; select bank0
  4038  0476  00A0               	movwf	DELAY_milliseconds@milliseconds
  4039  0477  3000               	movlw	0
  4040  0478  00A1               	movwf	DELAY_milliseconds@milliseconds+1
  4041  0479  318E  26D5  3183   	fcall	_DELAY_milliseconds
  4042                           
  4043                           ;main.c: 266:     flashRED();
  4044  047C  3186  26FC  3183   	fcall	_flashRED
  4045                           
  4046                           ;main.c: 267:     DELAY_milliseconds(20);
  4047  047F  3014               	movlw	20
  4048  0480  0020               	movlb	0	; select bank0
  4049  0481  00A0               	movwf	DELAY_milliseconds@milliseconds
  4050  0482  3000               	movlw	0
  4051  0483  00A1               	movwf	DELAY_milliseconds@milliseconds+1
  4052  0484  318E  26D5  3183   	fcall	_DELAY_milliseconds
  4053                           
  4054                           ;main.c: 269:     flashRED();
  4055  0487  3186  26FC  3183   	fcall	_flashRED
  4056                           
  4057                           ;main.c: 270:     DELAY_milliseconds(20);
  4058  048A  3014               	movlw	20
  4059  048B  0020               	movlb	0	; select bank0
  4060  048C  00A0               	movwf	DELAY_milliseconds@milliseconds
  4061  048D  3000               	movlw	0
  4062  048E  00A1               	movwf	DELAY_milliseconds@milliseconds+1
  4063  048F  318E  26D5  3183   	fcall	_DELAY_milliseconds
  4064                           
  4065                           ;main.c: 272:     flashRED();
  4066  0492  3186  26FC  3183   	fcall	_flashRED
  4067                           
  4068                           ;main.c: 273:     DELAY_milliseconds(20);
  4069  0495  3014               	movlw	20
  4070  0496  0020               	movlb	0	; select bank0
  4071  0497  00A0               	movwf	DELAY_milliseconds@milliseconds
  4072  0498  3000               	movlw	0
  4073  0499  00A1               	movwf	DELAY_milliseconds@milliseconds+1
  4074  049A  318E  26D5  3183   	fcall	_DELAY_milliseconds
  4075                           
  4076                           ;main.c: 275:     flashRED();
  4077  049D  3186  26FC  3183   	fcall	_flashRED
  4078                           
  4079                           ;main.c: 276:     DELAY_milliseconds(20);
  4080  04A0  3014               	movlw	20
  4081  04A1  0020               	movlb	0	; select bank0
  4082  04A2  00A0               	movwf	DELAY_milliseconds@milliseconds
  4083  04A3  3000               	movlw	0
  4084  04A4  00A1               	movwf	DELAY_milliseconds@milliseconds+1
  4085  04A5  318E  26D5  3183   	fcall	_DELAY_milliseconds
  4086                           
  4087                           ;main.c: 295:     lightsOff();
  4088  04A8  318E  267A  3183   	fcall	_lightsOff
  4089  04AB                     l143:
  4090  04AB  0008               	return
  4091  04AC                     __end_of_sparks:
  4092                           
  4093                           	psect	text2
  4094  06FC                     __ptext2:	
  4095 ;; *************** function _flashRED *****************
  4096 ;; Defined at:
  4097 ;;		line 178 in file "main.c"
  4098 ;; Parameters:    Size  Location     Type
  4099 ;;		None
  4100 ;; Auto vars:     Size  Location     Type
  4101 ;;  i               1    6[BANK0 ] unsigned char 
  4102 ;; Return value:  Size  Location     Type
  4103 ;;                  1    wreg      void 
  4104 ;; Registers used:
  4105 ;;		wreg, status,2, status,0, pclath, cstack
  4106 ;; Tracked objects:
  4107 ;;		On entry : 0/0
  4108 ;;		On exit  : 0/0
  4109 ;;		Unchanged: 0/0
  4110 ;; Data sizes:     COMMON   BANK0   BANK1   BANK2   BANK3   BANK4   BANK5   BANK6   BANK7   BANK8   BANK9  BANK10  BANK1
      +1  BANK12
  4111 ;;      Params:         0       0       0       0       0       0       0       0       0       0       0       0       
      +0       0
  4112 ;;      Locals:         0       1       0       0       0       0       0       0       0       0       0       0       
      +0       0
  4113 ;;      Temps:          0       2       0       0       0       0       0       0       0       0       0       0       
      +0       0
  4114 ;;      Totals:         0       3       0       0       0       0       0       0       0       0       0       0       
      +0       0
  4115 ;;Total ram usage:        3 bytes
  4116 ;; Hardware stack levels used: 1
  4117 ;; Hardware stack levels required when called: 10
  4118 ;; This function calls:
  4119 ;;		_DELAY_milliseconds
  4120 ;;		_EPWM2_LoadDutyValue
  4121 ;;		_lightsOff
  4122 ;; This function is called by:
  4123 ;;		_sparks
  4124 ;; This function uses a non-reentrant model
  4125 ;;
  4126                           
  4127                           
  4128                           ;psect for function _flashRED
  4129  06FC                     _flashRED:
  4130  06FC                     l3399:	
  4131                           ;incstack = 0
  4132                           ; Regs used in _flashRED: [wreg+status,2+status,0+pclath+cstack]
  4133                           
  4134                           
  4135                           ;main.c: 180:     uint8_t i;;main.c: 181:     EPWM2_LoadDutyValue(160);
  4136  06FC  30A0               	movlw	160
  4137  06FD  0020               	movlb	0	; select bank0
  4138  06FE  00A0               	movwf	EPWM2_LoadDutyValue@dutyValue
  4139  06FF  3000               	movlw	0
  4140  0700  00A1               	movwf	EPWM2_LoadDutyValue@dutyValue+1
  4141  0701  318F  2758  3186   	fcall	_EPWM2_LoadDutyValue
  4142                           
  4143                           ;main.c: 182:     DELAY_milliseconds(100);
  4144  0704  3064               	movlw	100
  4145  0705  0020               	movlb	0	; select bank0
  4146  0706  00A0               	movwf	DELAY_milliseconds@milliseconds
  4147  0707  3000               	movlw	0
  4148  0708  00A1               	movwf	DELAY_milliseconds@milliseconds+1
  4149  0709  318E  26D5  3186   	fcall	_DELAY_milliseconds
  4150  070C                     l3401:
  4151                           
  4152                           ;main.c: 183:     for (i=20;i>0;i--)
  4153  070C  3014               	movlw	20
  4154  070D  0020               	movlb	0	; select bank0
  4155  070E  00A4               	movwf	??_flashRED
  4156  070F  0824               	movf	??_flashRED,w
  4157  0710  00A6               	movwf	flashRED@i
  4158  0711                     l3407:
  4159                           
  4160                           ;main.c: 184:     {;main.c: 185:         EPWM2_LoadDutyValue(i);
  4161  0711  0826               	movf	flashRED@i,w
  4162  0712  00A4               	movwf	??_flashRED
  4163  0713  01A5               	clrf	??_flashRED+1
  4164  0714  0824               	movf	??_flashRED,w
  4165  0715  00A0               	movwf	EPWM2_LoadDutyValue@dutyValue
  4166  0716  0825               	movf	??_flashRED+1,w
  4167  0717  00A1               	movwf	EPWM2_LoadDutyValue@dutyValue+1
  4168  0718  318F  2758  3186   	fcall	_EPWM2_LoadDutyValue
  4169                           
  4170                           ;main.c: 186:         DELAY_milliseconds(1);
  4171  071B  3001               	movlw	1
  4172  071C  0020               	movlb	0	; select bank0
  4173  071D  00A0               	movwf	DELAY_milliseconds@milliseconds
  4174  071E  3000               	movlw	0
  4175  071F  00A1               	movwf	DELAY_milliseconds@milliseconds+1
  4176  0720  318E  26D5  3186   	fcall	_DELAY_milliseconds
  4177  0723                     l3409:
  4178                           
  4179                           ;main.c: 187:     }
  4180  0723  3001               	movlw	1
  4181  0724  0020               	movlb	0	; select bank0
  4182  0725  02A6               	subwf	flashRED@i,f
  4183  0726                     l3411:
  4184  0726  0826               	movf	flashRED@i,w
  4185  0727  1D03               	btfss	3,2
  4186  0728  2F2A               	goto	u1241
  4187  0729  2F2B               	goto	u1240
  4188  072A                     u1241:
  4189  072A  2F11               	goto	l3407
  4190  072B                     u1240:
  4191  072B                     l3413:
  4192                           
  4193                           ;main.c: 188:     lightsOff();
  4194  072B  318E  267A  3186   	fcall	_lightsOff
  4195  072E                     l133:
  4196  072E  0008               	return
  4197  072F                     __end_of_flashRED:
  4198                           
  4199                           	psect	text3
  4200  0E7A                     __ptext3:	
  4201 ;; *************** function _lightsOff *****************
  4202 ;; Defined at:
  4203 ;;		line 172 in file "main.c"
  4204 ;; Parameters:    Size  Location     Type
  4205 ;;		None
  4206 ;; Auto vars:     Size  Location     Type
  4207 ;;		None
  4208 ;; Return value:  Size  Location     Type
  4209 ;;                  1    wreg      void 
  4210 ;; Registers used:
  4211 ;;		wreg, status,2, status,0, pclath, cstack
  4212 ;; Tracked objects:
  4213 ;;		On entry : 0/0
  4214 ;;		On exit  : 0/0
  4215 ;;		Unchanged: 0/0
  4216 ;; Data sizes:     COMMON   BANK0   BANK1   BANK2   BANK3   BANK4   BANK5   BANK6   BANK7   BANK8   BANK9  BANK10  BANK1
      +1  BANK12
  4217 ;;      Params:         0       0       0       0       0       0       0       0       0       0       0       0       
      +0       0
  4218 ;;      Locals:         0       0       0       0       0       0       0       0       0       0       0       0       
      +0       0
  4219 ;;      Temps:          0       0       0       0       0       0       0       0       0       0       0       0       
      +0       0
  4220 ;;      Totals:         0       0       0       0       0       0       0       0       0       0       0       0       
      +0       0
  4221 ;;Total ram usage:        0 bytes
  4222 ;; Hardware stack levels used: 1
  4223 ;; Hardware stack levels required when called: 9
  4224 ;; This function calls:
  4225 ;;		_EPWM1_LoadDutyValue
  4226 ;;		_EPWM2_LoadDutyValue
  4227 ;;		_PWM4_LoadDutyValue
  4228 ;; This function is called by:
  4229 ;;		_flashRED
  4230 ;;		_sparks
  4231 ;;		_flashWhite
  4232 ;; This function uses a non-reentrant model
  4233 ;;
  4234                           
  4235                           
  4236                           ;psect for function _lightsOff
  4237  0E7A                     _lightsOff:
  4238  0E7A                     l3211:	
  4239                           ;incstack = 0
  4240                           ; Regs used in _lightsOff: [wreg+status,2+status,0+pclath+cstack]
  4241                           
  4242                           
  4243                           ;main.c: 173:     EPWM1_LoadDutyValue(0);
  4244  0E7A  3000               	movlw	0
  4245  0E7B  0020               	movlb	0	; select bank0
  4246  0E7C  00A0               	movwf	EPWM1_LoadDutyValue@dutyValue
  4247  0E7D  00A1               	movwf	EPWM1_LoadDutyValue@dutyValue+1
  4248  0E7E  318F  273C  318E   	fcall	_EPWM1_LoadDutyValue
  4249                           
  4250                           ;main.c: 174:     EPWM2_LoadDutyValue(0);
  4251  0E81  3000               	movlw	0
  4252  0E82  0020               	movlb	0	; select bank0
  4253  0E83  00A0               	movwf	EPWM2_LoadDutyValue@dutyValue
  4254  0E84  00A1               	movwf	EPWM2_LoadDutyValue@dutyValue+1
  4255  0E85  318F  2758  318E   	fcall	_EPWM2_LoadDutyValue
  4256                           
  4257                           ;main.c: 175:     PWM4_LoadDutyValue(0);
  4258  0E88  3000               	movlw	0
  4259  0E89  0020               	movlb	0	; select bank0
  4260  0E8A  00A0               	movwf	PWM4_LoadDutyValue@dutyValue
  4261  0E8B  00A1               	movwf	PWM4_LoadDutyValue@dutyValue+1
  4262  0E8C  318F  2774  318E   	fcall	_PWM4_LoadDutyValue
  4263  0E8F                     l128:
  4264  0E8F  0008               	return
  4265  0E90                     __end_of_lightsOff:
  4266                           
  4267                           	psect	text4
  4268  0311                     __ptext4:	
  4269 ;; *************** function _patronus *****************
  4270 ;; Defined at:
  4271 ;;		line 87 in file "main.c"
  4272 ;; Parameters:    Size  Location     Type
  4273 ;;		None
  4274 ;; Auto vars:     Size  Location     Type
  4275 ;;  i               1    6[BANK0 ] unsigned char 
  4276 ;; Return value:  Size  Location     Type
  4277 ;;                  1    wreg      void 
  4278 ;; Registers used:
  4279 ;;		wreg, status,2, status,0, pclath, cstack
  4280 ;; Tracked objects:
  4281 ;;		On entry : 0/0
  4282 ;;		On exit  : 0/0
  4283 ;;		Unchanged: 0/0
  4284 ;; Data sizes:     COMMON   BANK0   BANK1   BANK2   BANK3   BANK4   BANK5   BANK6   BANK7   BANK8   BANK9  BANK10  BANK1
      +1  BANK12
  4285 ;;      Params:         0       0       0       0       0       0       0       0       0       0       0       0       
      +0       0
  4286 ;;      Locals:         0       1       0       0       0       0       0       0       0       0       0       0       
      +0       0
  4287 ;;      Temps:          0       2       0       0       0       0       0       0       0       0       0       0       
      +0       0
  4288 ;;      Totals:         0       3       0       0       0       0       0       0       0       0       0       0       
      +0       0
  4289 ;;Total ram usage:        3 bytes
  4290 ;; Hardware stack levels used: 1
  4291 ;; Hardware stack levels required when called: 9
  4292 ;; This function calls:
  4293 ;;		_DELAY_milliseconds
  4294 ;;		_EPWM1_LoadDutyValue
  4295 ;;		_EPWM2_LoadDutyValue
  4296 ;;		_PWM4_LoadDutyValue
  4297 ;; This function is called by:
  4298 ;;		_main
  4299 ;; This function uses a non-reentrant model
  4300 ;;
  4301                           
  4302                           
  4303                           ;psect for function _patronus
  4304  0311                     _patronus:
  4305  0311                     l3423:	
  4306                           ;incstack = 0
  4307                           ; Regs used in _patronus: [wreg+status,2+status,0+pclath+cstack]
  4308                           
  4309                           
  4310                           ;main.c: 89:     EPWM1_LoadDutyValue(0);
  4311  0311  3000               	movlw	0
  4312  0312  0020               	movlb	0	; select bank0
  4313  0313  00A0               	movwf	EPWM1_LoadDutyValue@dutyValue
  4314  0314  00A1               	movwf	EPWM1_LoadDutyValue@dutyValue+1
  4315  0315  318F  273C  3183   	fcall	_EPWM1_LoadDutyValue
  4316                           
  4317                           ;main.c: 90:     EPWM2_LoadDutyValue(0);
  4318  0318  3000               	movlw	0
  4319  0319  0020               	movlb	0	; select bank0
  4320  031A  00A0               	movwf	EPWM2_LoadDutyValue@dutyValue
  4321  031B  00A1               	movwf	EPWM2_LoadDutyValue@dutyValue+1
  4322  031C  318F  2758  3183   	fcall	_EPWM2_LoadDutyValue
  4323                           
  4324                           ;main.c: 91:     PWM4_LoadDutyValue(0);
  4325  031F  3000               	movlw	0
  4326  0320  0020               	movlb	0	; select bank0
  4327  0321  00A0               	movwf	PWM4_LoadDutyValue@dutyValue
  4328  0322  00A1               	movwf	PWM4_LoadDutyValue@dutyValue+1
  4329  0323  318F  2774  3183   	fcall	_PWM4_LoadDutyValue
  4330  0326                     l3425:
  4331                           
  4332                           ;main.c: 93:     uint8_t i;;main.c: 96:     for (i=0;i<20;i++)
  4333  0326  0020               	movlb	0	; select bank0
  4334  0327  01A6               	clrf	patronus@i
  4335  0328                     l3431:
  4336                           
  4337                           ;main.c: 97:     {;main.c: 98:         EPWM1_LoadDutyValue(i);
  4338  0328  0826               	movf	patronus@i,w
  4339  0329  00A4               	movwf	??_patronus
  4340  032A  01A5               	clrf	??_patronus+1
  4341  032B  0824               	movf	??_patronus,w
  4342  032C  00A0               	movwf	EPWM1_LoadDutyValue@dutyValue
  4343  032D  0825               	movf	??_patronus+1,w
  4344  032E  00A1               	movwf	EPWM1_LoadDutyValue@dutyValue+1
  4345  032F  318F  273C  3183   	fcall	_EPWM1_LoadDutyValue
  4346                           
  4347                           ;main.c: 99:         DELAY_milliseconds(100);
  4348  0332  3064               	movlw	100
  4349  0333  0020               	movlb	0	; select bank0
  4350  0334  00A0               	movwf	DELAY_milliseconds@milliseconds
  4351  0335  3000               	movlw	0
  4352  0336  00A1               	movwf	DELAY_milliseconds@milliseconds+1
  4353  0337  318E  26D5  3183   	fcall	_DELAY_milliseconds
  4354  033A                     l3433:
  4355                           
  4356                           ;main.c: 100:     }
  4357  033A  3001               	movlw	1
  4358  033B  0020               	movlb	0	; select bank0
  4359  033C  00A4               	movwf	??_patronus
  4360  033D  0824               	movf	??_patronus,w
  4361  033E  07A6               	addwf	patronus@i,f
  4362  033F                     l3435:
  4363  033F  3014               	movlw	20
  4364  0340  0226               	subwf	patronus@i,w
  4365  0341  1C03               	skipc
  4366  0342  2B44               	goto	u1261
  4367  0343  2B45               	goto	u1260
  4368  0344                     u1261:
  4369  0344  2B28               	goto	l3431
  4370  0345                     u1260:
  4371  0345                     l3437:
  4372                           
  4373                           ;main.c: 103:     for (i=0;i<20;i++)
  4374  0345  01A6               	clrf	patronus@i
  4375  0346                     l3443:
  4376                           
  4377                           ;main.c: 104:     {;main.c: 105:         EPWM2_LoadDutyValue(i);
  4378  0346  0826               	movf	patronus@i,w
  4379  0347  00A4               	movwf	??_patronus
  4380  0348  01A5               	clrf	??_patronus+1
  4381  0349  0824               	movf	??_patronus,w
  4382  034A  00A0               	movwf	EPWM2_LoadDutyValue@dutyValue
  4383  034B  0825               	movf	??_patronus+1,w
  4384  034C  00A1               	movwf	EPWM2_LoadDutyValue@dutyValue+1
  4385  034D  318F  2758  3183   	fcall	_EPWM2_LoadDutyValue
  4386                           
  4387                           ;main.c: 106:         PWM4_LoadDutyValue(i);
  4388  0350  0020               	movlb	0	; select bank0
  4389  0351  0826               	movf	patronus@i,w
  4390  0352  00A4               	movwf	??_patronus
  4391  0353  01A5               	clrf	??_patronus+1
  4392  0354  0824               	movf	??_patronus,w
  4393  0355  00A0               	movwf	PWM4_LoadDutyValue@dutyValue
  4394  0356  0825               	movf	??_patronus+1,w
  4395  0357  00A1               	movwf	PWM4_LoadDutyValue@dutyValue+1
  4396  0358  318F  2774  3183   	fcall	_PWM4_LoadDutyValue
  4397                           
  4398                           ;main.c: 107:         DELAY_milliseconds(100);
  4399  035B  3064               	movlw	100
  4400  035C  0020               	movlb	0	; select bank0
  4401  035D  00A0               	movwf	DELAY_milliseconds@milliseconds
  4402  035E  3000               	movlw	0
  4403  035F  00A1               	movwf	DELAY_milliseconds@milliseconds+1
  4404  0360  318E  26D5  3183   	fcall	_DELAY_milliseconds
  4405  0363                     l3445:
  4406                           
  4407                           ;main.c: 108:     }
  4408  0363  3001               	movlw	1
  4409  0364  0020               	movlb	0	; select bank0
  4410  0365  00A4               	movwf	??_patronus
  4411  0366  0824               	movf	??_patronus,w
  4412  0367  07A6               	addwf	patronus@i,f
  4413  0368                     l3447:
  4414  0368  3014               	movlw	20
  4415  0369  0226               	subwf	patronus@i,w
  4416  036A  1C03               	skipc
  4417  036B  2B6D               	goto	u1271
  4418  036C  2B6E               	goto	u1270
  4419  036D                     u1271:
  4420  036D  2B46               	goto	l3443
  4421  036E                     u1270:
  4422  036E                     l3449:
  4423                           
  4424                           ;main.c: 111:     for (i=20;i<100;i++)
  4425  036E  3014               	movlw	20
  4426  036F  00A4               	movwf	??_patronus
  4427  0370  0824               	movf	??_patronus,w
  4428  0371  00A6               	movwf	patronus@i
  4429  0372                     l3453:
  4430                           
  4431                           ;main.c: 112:     {;main.c: 113:         EPWM1_LoadDutyValue(i);
  4432  0372  0826               	movf	patronus@i,w
  4433  0373  00A4               	movwf	??_patronus
  4434  0374  01A5               	clrf	??_patronus+1
  4435  0375  0824               	movf	??_patronus,w
  4436  0376  00A0               	movwf	EPWM1_LoadDutyValue@dutyValue
  4437  0377  0825               	movf	??_patronus+1,w
  4438  0378  00A1               	movwf	EPWM1_LoadDutyValue@dutyValue+1
  4439  0379  318F  273C  3183   	fcall	_EPWM1_LoadDutyValue
  4440                           
  4441                           ;main.c: 114:         EPWM2_LoadDutyValue(i);
  4442  037C  0020               	movlb	0	; select bank0
  4443  037D  0826               	movf	patronus@i,w
  4444  037E  00A4               	movwf	??_patronus
  4445  037F  01A5               	clrf	??_patronus+1
  4446  0380  0824               	movf	??_patronus,w
  4447  0381  00A0               	movwf	EPWM2_LoadDutyValue@dutyValue
  4448  0382  0825               	movf	??_patronus+1,w
  4449  0383  00A1               	movwf	EPWM2_LoadDutyValue@dutyValue+1
  4450  0384  318F  2758  3183   	fcall	_EPWM2_LoadDutyValue
  4451                           
  4452                           ;main.c: 115:         PWM4_LoadDutyValue(i);
  4453  0387  0020               	movlb	0	; select bank0
  4454  0388  0826               	movf	patronus@i,w
  4455  0389  00A4               	movwf	??_patronus
  4456  038A  01A5               	clrf	??_patronus+1
  4457  038B  0824               	movf	??_patronus,w
  4458  038C  00A0               	movwf	PWM4_LoadDutyValue@dutyValue
  4459  038D  0825               	movf	??_patronus+1,w
  4460  038E  00A1               	movwf	PWM4_LoadDutyValue@dutyValue+1
  4461  038F  318F  2774  3183   	fcall	_PWM4_LoadDutyValue
  4462                           
  4463                           ;main.c: 116:         DELAY_milliseconds(10);
  4464  0392  300A               	movlw	10
  4465  0393  0020               	movlb	0	; select bank0
  4466  0394  00A0               	movwf	DELAY_milliseconds@milliseconds
  4467  0395  3000               	movlw	0
  4468  0396  00A1               	movwf	DELAY_milliseconds@milliseconds+1
  4469  0397  318E  26D5  3183   	fcall	_DELAY_milliseconds
  4470  039A                     l3455:
  4471                           
  4472                           ;main.c: 117:     }
  4473  039A  3001               	movlw	1
  4474  039B  0020               	movlb	0	; select bank0
  4475  039C  00A4               	movwf	??_patronus
  4476  039D  0824               	movf	??_patronus,w
  4477  039E  07A6               	addwf	patronus@i,f
  4478  039F                     l3457:
  4479  039F  3064               	movlw	100
  4480  03A0  0226               	subwf	patronus@i,w
  4481  03A1  1C03               	skipc
  4482  03A2  2BA4               	goto	u1281
  4483  03A3  2BA5               	goto	u1280
  4484  03A4                     u1281:
  4485  03A4  2B72               	goto	l3453
  4486  03A5                     u1280:
  4487  03A5                     l3459:
  4488                           
  4489                           ;main.c: 119:     DELAY_milliseconds(3000);
  4490  03A5  30B8               	movlw	184
  4491  03A6  00A0               	movwf	DELAY_milliseconds@milliseconds
  4492  03A7  300B               	movlw	11
  4493  03A8  00A1               	movwf	DELAY_milliseconds@milliseconds+1
  4494  03A9  318E  26D5  3183   	fcall	_DELAY_milliseconds
  4495  03AC                     l3461:
  4496                           
  4497                           ;main.c: 122:     for (i=100;i>1;i--)
  4498  03AC  3064               	movlw	100
  4499  03AD  0020               	movlb	0	; select bank0
  4500  03AE  00A4               	movwf	??_patronus
  4501  03AF  0824               	movf	??_patronus,w
  4502  03B0  00A6               	movwf	patronus@i
  4503  03B1                     l3467:
  4504                           
  4505                           ;main.c: 123:     {;main.c: 124:         EPWM1_LoadDutyValue(i);
  4506  03B1  0826               	movf	patronus@i,w
  4507  03B2  00A4               	movwf	??_patronus
  4508  03B3  01A5               	clrf	??_patronus+1
  4509  03B4  0824               	movf	??_patronus,w
  4510  03B5  00A0               	movwf	EPWM1_LoadDutyValue@dutyValue
  4511  03B6  0825               	movf	??_patronus+1,w
  4512  03B7  00A1               	movwf	EPWM1_LoadDutyValue@dutyValue+1
  4513  03B8  318F  273C  3183   	fcall	_EPWM1_LoadDutyValue
  4514                           
  4515                           ;main.c: 125:         EPWM2_LoadDutyValue(i);
  4516  03BB  0020               	movlb	0	; select bank0
  4517  03BC  0826               	movf	patronus@i,w
  4518  03BD  00A4               	movwf	??_patronus
  4519  03BE  01A5               	clrf	??_patronus+1
  4520  03BF  0824               	movf	??_patronus,w
  4521  03C0  00A0               	movwf	EPWM2_LoadDutyValue@dutyValue
  4522  03C1  0825               	movf	??_patronus+1,w
  4523  03C2  00A1               	movwf	EPWM2_LoadDutyValue@dutyValue+1
  4524  03C3  318F  2758  3183   	fcall	_EPWM2_LoadDutyValue
  4525                           
  4526                           ;main.c: 126:         PWM4_LoadDutyValue(i);
  4527  03C6  0020               	movlb	0	; select bank0
  4528  03C7  0826               	movf	patronus@i,w
  4529  03C8  00A4               	movwf	??_patronus
  4530  03C9  01A5               	clrf	??_patronus+1
  4531  03CA  0824               	movf	??_patronus,w
  4532  03CB  00A0               	movwf	PWM4_LoadDutyValue@dutyValue
  4533  03CC  0825               	movf	??_patronus+1,w
  4534  03CD  00A1               	movwf	PWM4_LoadDutyValue@dutyValue+1
  4535  03CE  318F  2774  3183   	fcall	_PWM4_LoadDutyValue
  4536                           
  4537                           ;main.c: 127:         DELAY_milliseconds(10);
  4538  03D1  300A               	movlw	10
  4539  03D2  0020               	movlb	0	; select bank0
  4540  03D3  00A0               	movwf	DELAY_milliseconds@milliseconds
  4541  03D4  3000               	movlw	0
  4542  03D5  00A1               	movwf	DELAY_milliseconds@milliseconds+1
  4543  03D6  318E  26D5  3183   	fcall	_DELAY_milliseconds
  4544  03D9                     l3469:
  4545                           
  4546                           ;main.c: 128:     }
  4547  03D9  3001               	movlw	1
  4548  03DA  0020               	movlb	0	; select bank0
  4549  03DB  02A6               	subwf	patronus@i,f
  4550  03DC                     l3471:
  4551  03DC  3002               	movlw	2
  4552  03DD  0226               	subwf	patronus@i,w
  4553  03DE  1803               	skipnc
  4554  03DF  2BE1               	goto	u1291
  4555  03E0  2BE2               	goto	u1290
  4556  03E1                     u1291:
  4557  03E1  2BB1               	goto	l3467
  4558  03E2                     u1290:
  4559  03E2                     l3473:
  4560                           
  4561                           ;main.c: 129:     EPWM1_LoadDutyValue(0);
  4562  03E2  3000               	movlw	0
  4563  03E3  00A0               	movwf	EPWM1_LoadDutyValue@dutyValue
  4564  03E4  00A1               	movwf	EPWM1_LoadDutyValue@dutyValue+1
  4565  03E5  318F  273C  3183   	fcall	_EPWM1_LoadDutyValue
  4566                           
  4567                           ;main.c: 130:     EPWM2_LoadDutyValue(0);
  4568  03E8  3000               	movlw	0
  4569  03E9  0020               	movlb	0	; select bank0
  4570  03EA  00A0               	movwf	EPWM2_LoadDutyValue@dutyValue
  4571  03EB  00A1               	movwf	EPWM2_LoadDutyValue@dutyValue+1
  4572  03EC  318F  2758  3183   	fcall	_EPWM2_LoadDutyValue
  4573                           
  4574                           ;main.c: 131:     PWM4_LoadDutyValue(0);
  4575  03EF  3000               	movlw	0
  4576  03F0  0020               	movlb	0	; select bank0
  4577  03F1  00A0               	movwf	PWM4_LoadDutyValue@dutyValue
  4578  03F2  00A1               	movwf	PWM4_LoadDutyValue@dutyValue+1
  4579  03F3  318F  2774  3183   	fcall	_PWM4_LoadDutyValue
  4580  03F6                     l118:
  4581  03F6  0008               	return
  4582  03F7                     __end_of_patronus:
  4583                           
  4584                           	psect	text5
  4585  0551                     __ptext5:	
  4586 ;; *************** function _lumos *****************
  4587 ;; Defined at:
  4588 ;;		line 134 in file "main.c"
  4589 ;; Parameters:    Size  Location     Type
  4590 ;;		None
  4591 ;; Auto vars:     Size  Location     Type
  4592 ;;  on              1   26[BANK0 ] char 
  4593 ;;  previous        1   25[BANK0 ] char 
  4594 ;; Return value:  Size  Location     Type
  4595 ;;                  1    wreg      void 
  4596 ;; Registers used:
  4597 ;;		wreg, fsr0l, fsr0h, fsr1l, fsr1h, status,2, status,0, pclath, cstack
  4598 ;; Tracked objects:
  4599 ;;		On entry : 0/0
  4600 ;;		On exit  : 0/0
  4601 ;;		Unchanged: 0/0
  4602 ;; Data sizes:     COMMON   BANK0   BANK1   BANK2   BANK3   BANK4   BANK5   BANK6   BANK7   BANK8   BANK9  BANK10  BANK1
      +1  BANK12
  4603 ;;      Params:         0       0       0       0       0       0       0       0       0       0       0       0       
      +0       0
  4604 ;;      Locals:         0       2       0       0       0       0       0       0       0       0       0       0       
      +0       0
  4605 ;;      Temps:          0       2       0       0       0       0       0       0       0       0       0       0       
      +0       0
  4606 ;;      Totals:         0       4       0       0       0       0       0       0       0       0       0       0       
      +0       0
  4607 ;;Total ram usage:        4 bytes
  4608 ;; Hardware stack levels used: 1
  4609 ;; Hardware stack levels required when called: 17
  4610 ;; This function calls:
  4611 ;;		_DELAY_milliseconds
  4612 ;;		_EPWM1_LoadDutyValue
  4613 ;;		_EPWM2_LoadDutyValue
  4614 ;;		_I2C1_Read1ByteRegister
  4615 ;;		_PWM4_LoadDutyValue
  4616 ;;		_mathAbs
  4617 ;; This function is called by:
  4618 ;;		_main
  4619 ;; This function uses a non-reentrant model
  4620 ;;
  4621                           
  4622                           
  4623                           ;psect for function _lumos
  4624  0551                     _lumos:
  4625  0551                     l3475:	
  4626                           ;incstack = 0
  4627 ;; hardware stack exceeded
  4628                           ; Regs used in _lumos: [wreg-fsr1h+status,2+status,0+pclath+cstack]
  4629                           
  4630                           
  4631                           ;main.c: 135:     int8_t on = 1;
  4632  0551  0020               	movlb	0	; select bank0
  4633  0552  01BA               	clrf	lumos@on
  4634  0553  0ABA               	incf	lumos@on,f
  4635  0554                     l3477:
  4636                           
  4637                           ;main.c: 136:     EPWM1_LoadDutyValue(10);
  4638  0554  300A               	movlw	10
  4639  0555  00A0               	movwf	EPWM1_LoadDutyValue@dutyValue
  4640  0556  3000               	movlw	0
  4641  0557  00A1               	movwf	EPWM1_LoadDutyValue@dutyValue+1
  4642  0558  318F  273C  3185   	fcall	_EPWM1_LoadDutyValue
  4643                           
  4644                           ;main.c: 137:     EPWM2_LoadDutyValue(100);
  4645  055B  3064               	movlw	100
  4646  055C  0020               	movlb	0	; select bank0
  4647  055D  00A0               	movwf	EPWM2_LoadDutyValue@dutyValue
  4648  055E  3000               	movlw	0
  4649  055F  00A1               	movwf	EPWM2_LoadDutyValue@dutyValue+1
  4650  0560  318F  2758  3185   	fcall	_EPWM2_LoadDutyValue
  4651                           
  4652                           ;main.c: 138:     PWM4_LoadDutyValue(85);
  4653  0563  3055               	movlw	85
  4654  0564  0020               	movlb	0	; select bank0
  4655  0565  00A0               	movwf	PWM4_LoadDutyValue@dutyValue
  4656  0566  3000               	movlw	0
  4657  0567  00A1               	movwf	PWM4_LoadDutyValue@dutyValue+1
  4658  0568  318F  2774  3185   	fcall	_PWM4_LoadDutyValue
  4659                           
  4660                           ;main.c: 139:     DELAY_milliseconds(100);
  4661  056B  3064               	movlw	100
  4662  056C  0020               	movlb	0	; select bank0
  4663  056D  00A0               	movwf	DELAY_milliseconds@milliseconds
  4664  056E  3000               	movlw	0
  4665  056F  00A1               	movwf	DELAY_milliseconds@milliseconds+1
  4666  0570  318E  26D5  3185   	fcall	_DELAY_milliseconds
  4667  0573                     l3479:
  4668                           
  4669                           ;main.c: 140:     int8_t previous = I2C1_Read1ByteRegister(0x0E, 0x09);
  4670  0573  3009               	movlw	9
  4671  0574  0020               	movlb	0	; select bank0
  4672  0575  00B7               	movwf	??_lumos
  4673  0576  0837               	movf	??_lumos,w
  4674  0577  00B3               	movwf	I2C1_Read1ByteRegister@reg
  4675  0578  300E               	movlw	14
  4676  0579  3186  268F  3185   	fcall	_I2C1_Read1ByteRegister
  4677  057C  0020               	movlb	0	; select bank0
  4678  057D  00B8               	movwf	??_lumos+1
  4679  057E  0838               	movf	??_lumos+1,w
  4680  057F  00B9               	movwf	lumos@previous
  4681                           
  4682                           ;main.c: 141:     while(on){
  4683  0580  2DB0               	goto	l3491
  4684  0581                     l3481:
  4685                           
  4686                           ;main.c: 144:         if(mathAbs(I2C1_Read1ByteRegister(0x0E, 0x09)-previous) > 20){
  4687  0581  3009               	movlw	9
  4688  0582  00B7               	movwf	??_lumos
  4689  0583  0837               	movf	??_lumos,w
  4690  0584  00B3               	movwf	I2C1_Read1ByteRegister@reg
  4691  0585  300E               	movlw	14
  4692  0586  3186  268F  3185   	fcall	_I2C1_Read1ByteRegister
  4693  0589  0020               	movlb	0	; select bank0
  4694  058A  00B8               	movwf	??_lumos+1
  4695  058B  0839               	movf	lumos@previous,w
  4696  058C  0238               	subwf	??_lumos+1,w
  4697  058D  318E  2650  3185   	fcall	_mathAbs
  4698  0590  3A80               	xorlw	128
  4699  0591  3E6B               	addlw	-149
  4700  0592  1C03               	skipc
  4701  0593  2D95               	goto	u1301
  4702  0594  2D96               	goto	u1300
  4703  0595                     u1301:
  4704  0595  2D98               	goto	l3485
  4705  0596                     u1300:
  4706  0596                     l3483:
  4707                           
  4708                           ;main.c: 145:             on = 0;
  4709  0596  0020               	movlb	0	; select bank0
  4710  0597  01BA               	clrf	lumos@on
  4711  0598                     l3485:
  4712                           
  4713                           ;main.c: 165:         EPWM1_LoadDutyValue(11);
  4714  0598  300B               	movlw	11
  4715  0599  0020               	movlb	0	; select bank0
  4716  059A  00A0               	movwf	EPWM1_LoadDutyValue@dutyValue
  4717  059B  3000               	movlw	0
  4718  059C  00A1               	movwf	EPWM1_LoadDutyValue@dutyValue+1
  4719  059D  318F  273C  3185   	fcall	_EPWM1_LoadDutyValue
  4720  05A0                     l3487:
  4721                           
  4722                           ;main.c: 166:         EPWM2_LoadDutyValue(160);
  4723  05A0  30A0               	movlw	160
  4724  05A1  0020               	movlb	0	; select bank0
  4725  05A2  00A0               	movwf	EPWM2_LoadDutyValue@dutyValue
  4726  05A3  3000               	movlw	0
  4727  05A4  00A1               	movwf	EPWM2_LoadDutyValue@dutyValue+1
  4728  05A5  318F  2758  3185   	fcall	_EPWM2_LoadDutyValue
  4729  05A8                     l3489:
  4730                           
  4731                           ;main.c: 167:         PWM4_LoadDutyValue(160);
  4732  05A8  30A0               	movlw	160
  4733  05A9  0020               	movlb	0	; select bank0
  4734  05AA  00A0               	movwf	PWM4_LoadDutyValue@dutyValue
  4735  05AB  3000               	movlw	0
  4736  05AC  00A1               	movwf	PWM4_LoadDutyValue@dutyValue+1
  4737  05AD  318F  2774  3185   	fcall	_PWM4_LoadDutyValue
  4738  05B0                     l3491:
  4739                           
  4740                           ;main.c: 141:     while(on){
  4741  05B0  0020               	movlb	0	; select bank0
  4742  05B1  083A               	movf	lumos@on,w
  4743  05B2  1D03               	btfss	3,2
  4744  05B3  2DB5               	goto	u1311
  4745  05B4  2DB6               	goto	u1310
  4746  05B5                     u1311:
  4747  05B5  2D81               	goto	l3481
  4748  05B6                     u1310:
  4749  05B6                     l125:
  4750  05B6  0008               	return
  4751  05B7                     __end_of_lumos:
  4752                           
  4753                           	psect	text6
  4754  0E50                     __ptext6:	
  4755 ;; *************** function _mathAbs *****************
  4756 ;; Defined at:
  4757 ;;		line 60 in file "main.c"
  4758 ;; Parameters:    Size  Location     Type
  4759 ;;  num             1    wreg     char 
  4760 ;; Auto vars:     Size  Location     Type
  4761 ;;  num             1    0[BANK0 ] char 
  4762 ;; Return value:  Size  Location     Type
  4763 ;;                  1    wreg      char 
  4764 ;; Registers used:
  4765 ;;		wreg, status,2, status,0
  4766 ;; Tracked objects:
  4767 ;;		On entry : 0/0
  4768 ;;		On exit  : 0/0
  4769 ;;		Unchanged: 0/0
  4770 ;; Data sizes:     COMMON   BANK0   BANK1   BANK2   BANK3   BANK4   BANK5   BANK6   BANK7   BANK8   BANK9  BANK10  BANK1
      +1  BANK12
  4771 ;;      Params:         0       0       0       0       0       0       0       0       0       0       0       0       
      +0       0
  4772 ;;      Locals:         0       1       0       0       0       0       0       0       0       0       0       0       
      +0       0
  4773 ;;      Temps:          0       0       0       0       0       0       0       0       0       0       0       0       
      +0       0
  4774 ;;      Totals:         0       1       0       0       0       0       0       0       0       0       0       0       
      +0       0
  4775 ;;Total ram usage:        1 bytes
  4776 ;; Hardware stack levels used: 1
  4777 ;; Hardware stack levels required when called: 8
  4778 ;; This function calls:
  4779 ;;		Nothing
  4780 ;; This function is called by:
  4781 ;;		_lumos
  4782 ;;		_main
  4783 ;; This function uses a non-reentrant model
  4784 ;;
  4785                           
  4786                           
  4787                           ;psect for function _mathAbs
  4788  0E50                     _mathAbs:
  4789                           
  4790                           ;incstack = 0
  4791                           ; Regs used in _mathAbs: [wreg+status,2+status,0]
  4792                           ;mathAbs@num stored from wreg
  4793  0E50  0020               	movlb	0	; select bank0
  4794  0E51  00A0               	movwf	mathAbs@num
  4795  0E52                     l3363:
  4796                           
  4797                           ;main.c: 61:     if(num > 0)
  4798  0E52  0820               	movf	mathAbs@num,w
  4799  0E53  3A80               	xorlw	128
  4800  0E54  3E7F               	addlw	-129
  4801  0E55  1C03               	skipc
  4802  0E56  2E58               	goto	u1201
  4803  0E57  2E59               	goto	u1200
  4804  0E58                     u1201:
  4805  0E58  2E5B               	goto	l91
  4806  0E59                     u1200:
  4807  0E59                     l3365:
  4808                           
  4809                           ;main.c: 62:         return num;
  4810  0E59  0820               	movf	mathAbs@num,w
  4811  0E5A  2E63               	goto	l92
  4812  0E5B                     l91:	
  4813                           ;main.c: 63:     else if(num < 0)
  4814                           
  4815  0E5B  1FA0               	btfss	mathAbs@num,7
  4816  0E5C  2E5E               	goto	u1211
  4817  0E5D  2E5F               	goto	u1210
  4818  0E5E                     u1211:
  4819  0E5E  2E62               	goto	l3377
  4820  0E5F                     u1210:
  4821  0E5F                     l3371:
  4822                           
  4823                           ;main.c: 64:         return -num;
  4824  0E5F  0320               	decf	mathAbs@num,w
  4825  0E60  3AFF               	xorlw	255
  4826  0E61  2E63               	goto	l92
  4827  0E62                     l3377:
  4828                           
  4829                           ;main.c: 66:         return 0;
  4830  0E62  3000               	movlw	0
  4831  0E63                     l92:
  4832  0E63  0008               	return
  4833  0E64                     __end_of_mathAbs:
  4834                           
  4835                           	psect	text7
  4836  0F74                     __ptext7:	
  4837 ;; *************** function _PWM4_LoadDutyValue *****************
  4838 ;; Defined at:
  4839 ;;		line 82 in file "mcc_generated_files/pwm4.c"
  4840 ;; Parameters:    Size  Location     Type
  4841 ;;  dutyValue       2    0[BANK0 ] unsigned short 
  4842 ;; Auto vars:     Size  Location     Type
  4843 ;;		None
  4844 ;; Return value:  Size  Location     Type
  4845 ;;                  1    wreg      void 
  4846 ;; Registers used:
  4847 ;;		wreg, status,2, status,0
  4848 ;; Tracked objects:
  4849 ;;		On entry : 0/0
  4850 ;;		On exit  : 0/0
  4851 ;;		Unchanged: 0/0
  4852 ;; Data sizes:     COMMON   BANK0   BANK1   BANK2   BANK3   BANK4   BANK5   BANK6   BANK7   BANK8   BANK9  BANK10  BANK1
      +1  BANK12
  4853 ;;      Params:         0       2       0       0       0       0       0       0       0       0       0       0       
      +0       0
  4854 ;;      Locals:         0       0       0       0       0       0       0       0       0       0       0       0       
      +0       0
  4855 ;;      Temps:          0       2       0       0       0       0       0       0       0       0       0       0       
      +0       0
  4856 ;;      Totals:         0       4       0       0       0       0       0       0       0       0       0       0       
      +0       0
  4857 ;;Total ram usage:        4 bytes
  4858 ;; Hardware stack levels used: 1
  4859 ;; Hardware stack levels required when called: 8
  4860 ;; This function calls:
  4861 ;;		Nothing
  4862 ;; This function is called by:
  4863 ;;		_patronus
  4864 ;;		_lumos
  4865 ;;		_lightsOff
  4866 ;;		_main
  4867 ;;		_flashWhite
  4868 ;;		_WakeUpInterrupt
  4869 ;; This function uses a non-reentrant model
  4870 ;;
  4871                           
  4872                           
  4873                           ;psect for function _PWM4_LoadDutyValue
  4874  0F74                     _PWM4_LoadDutyValue:
  4875  0F74                     l3147:	
  4876                           ;incstack = 0
  4877                           ; Regs used in _PWM4_LoadDutyValue: [wreg+status,2+status,0]
  4878                           
  4879                           
  4880                           ;mcc_generated_files/pwm4.c: 82: void PWM4_LoadDutyValue(uint16_t dutyValue);mcc_generat
      +                          ed_files/pwm4.c: 83: {;mcc_generated_files/pwm4.c: 85:     CCPR4L = ((dutyValue & 0x03FC
      +                          )>>2);
  4881  0F74  0020               	movlb	0	; select bank0
  4882  0F75  0821               	movf	PWM4_LoadDutyValue@dutyValue+1,w
  4883  0F76  00A3               	movwf	??_PWM4_LoadDutyValue+1
  4884  0F77  0820               	movf	PWM4_LoadDutyValue@dutyValue,w
  4885  0F78  00A2               	movwf	??_PWM4_LoadDutyValue
  4886  0F79  36A3               	lsrf	??_PWM4_LoadDutyValue+1,f
  4887  0F7A  0CA2               	rrf	??_PWM4_LoadDutyValue,f
  4888  0F7B  36A3               	lsrf	??_PWM4_LoadDutyValue+1,f
  4889  0F7C  0CA2               	rrf	??_PWM4_LoadDutyValue,f
  4890  0F7D  0822               	movf	??_PWM4_LoadDutyValue,w
  4891  0F7E  0026               	movlb	6	; select bank6
  4892  0F7F  0098               	movwf	24	;volatile
  4893                           
  4894                           ;mcc_generated_files/pwm4.c: 88:     CCP4CON = ((uint8_t)(CCP4CON & 0xCF) | ((dutyValue 
      +                          & 0x0003)<<4));
  4895  0F80  0020               	movlb	0	; select bank0
  4896  0F81  0820               	movf	PWM4_LoadDutyValue@dutyValue,w
  4897  0F82  3903               	andlw	3
  4898  0F83  00A2               	movwf	??_PWM4_LoadDutyValue
  4899  0F84  3004               	movlw	4
  4900  0F85                     u1095:
  4901  0F85  35A2               	lslf	??_PWM4_LoadDutyValue,f
  4902  0F86  0B89               	decfsz	9,f
  4903  0F87  2F85               	goto	u1095
  4904  0F88  0026               	movlb	6	; select bank6
  4905  0F89  081A               	movf	26,w	;volatile
  4906  0F8A  39CF               	andlw	207
  4907  0F8B  0020               	movlb	0	; select bank0
  4908  0F8C  0422               	iorwf	??_PWM4_LoadDutyValue,w
  4909  0F8D  0026               	movlb	6	; select bank6
  4910  0F8E  009A               	movwf	26	;volatile
  4911  0F8F                     l52:
  4912  0F8F  0008               	return
  4913  0F90                     __end_of_PWM4_LoadDutyValue:
  4914                           
  4915                           	psect	text8
  4916  068F                     __ptext8:	
  4917 ;; *************** function _I2C1_Read1ByteRegister *****************
  4918 ;; Defined at:
  4919 ;;		line 63 in file "mcc_generated_files/examples/i2c1_master_example.c"
  4920 ;; Parameters:    Size  Location     Type
  4921 ;;  address         1    wreg     unsigned char 
  4922 ;;  reg             1   19[BANK0 ] unsigned char 
  4923 ;; Auto vars:     Size  Location     Type
  4924 ;;  address         1   21[BANK0 ] unsigned char 
  4925 ;;  returnValue     1   22[BANK0 ] unsigned char 
  4926 ;; Return value:  Size  Location     Type
  4927 ;;                  1    wreg      unsigned char 
  4928 ;; Registers used:
  4929 ;;		wreg, fsr0l, fsr0h, fsr1l, fsr1h, status,2, status,0, pclath, cstack
  4930 ;; Tracked objects:
  4931 ;;		On entry : 0/0
  4932 ;;		On exit  : 0/0
  4933 ;;		Unchanged: 0/0
  4934 ;; Data sizes:     COMMON   BANK0   BANK1   BANK2   BANK3   BANK4   BANK5   BANK6   BANK7   BANK8   BANK9  BANK10  BANK1
      +1  BANK12
  4935 ;;      Params:         0       1       0       0       0       0       0       0       0       0       0       0       
      +0       0
  4936 ;;      Locals:         0       2       0       0       0       0       0       0       0       0       0       0       
      +0       0
  4937 ;;      Temps:          0       1       0       0       0       0       0       0       0       0       0       0       
      +0       0
  4938 ;;      Totals:         0       4       0       0       0       0       0       0       0       0       0       0       
      +0       0
  4939 ;;Total ram usage:        4 bytes
  4940 ;; Hardware stack levels used: 1
  4941 ;; Hardware stack levels required when called: 16
  4942 ;; This function calls:
  4943 ;;		_I2C1_Close
  4944 ;;		_I2C1_MasterWrite
  4945 ;;		_I2C1_Open
  4946 ;;		_I2C1_SetAddressNackCallback
  4947 ;;		_I2C1_SetBuffer
  4948 ;;		_I2C1_SetDataCompleteCallback
  4949 ;; This function is called by:
  4950 ;;		_lumos
  4951 ;;		_main
  4952 ;; This function uses a non-reentrant model
  4953 ;;
  4954                           
  4955                           
  4956                           ;psect for function _I2C1_Read1ByteRegister
  4957  068F                     _I2C1_Read1ByteRegister:
  4958                           
  4959                           ;incstack = 0
  4960 ;; hardware stack exceeded
  4961                           ; Regs used in _I2C1_Read1ByteRegister: [wreg-fsr1h+status,2+status,0+pclath+cstack]
  4962                           ;I2C1_Read1ByteRegister@address stored from wreg
  4963  068F  0020               	movlb	0	; select bank0
  4964  0690  00B5               	movwf	I2C1_Read1ByteRegister@address
  4965  0691                     l3381:
  4966                           
  4967                           ;mcc_generated_files/examples/i2c1_master_example.c: 63: uint8_t I2C1_Read1ByteRegister(
      +                          i2c1_address_t address, uint8_t reg);mcc_generated_files/examples/i2c1_master_example.c:
      +                           64: {;mcc_generated_files/examples/i2c1_master_example.c: 65:     uint8_t returnValue =
      +                           0x00;
  4968  0691  01B6               	clrf	I2C1_Read1ByteRegister@returnValue
  4969  0692                     l3383:	
  4970                           ;mcc_generated_files/examples/i2c1_master_example.c: 67:     while(!I2C1_Open(address));
  4971                           
  4972  0692  0020               	movlb	0	; select bank0
  4973  0693  0835               	movf	I2C1_Read1ByteRegister@address,w
  4974  0694  3186  2654  3186   	fcall	_I2C1_Open
  4975  0697  3A00               	xorlw	0
  4976  0698  1903               	skipnz
  4977  0699  2E9B               	goto	u1221
  4978  069A  2E9C               	goto	u1220
  4979  069B                     u1221:
  4980  069B  2E92               	goto	l3383
  4981  069C                     u1220:
  4982  069C                     l3385:
  4983                           
  4984                           ;mcc_generated_files/examples/i2c1_master_example.c: 68:     I2C1_SetDataCompleteCallbac
      +                          k(rd1RegCompleteHandler,&returnValue);
  4985  069C  30CB               	movlw	low _rd1RegCompleteHandler
  4986  069D  0020               	movlb	0	; select bank0
  4987  069E  00A5               	movwf	I2C1_SetDataCompleteCallback@cb
  4988  069F  300D               	movlw	high _rd1RegCompleteHandler
  4989  06A0  00A6               	movwf	I2C1_SetDataCompleteCallback@cb+1
  4990  06A1  3036               	movlw	(low (I2C1_Read1ByteRegister@returnValue| 0))& (0+255)
  4991  06A2  00B4               	movwf	??_I2C1_Read1ByteRegister
  4992  06A3  0834               	movf	??_I2C1_Read1ByteRegister,w
  4993  06A4  00A7               	movwf	I2C1_SetDataCompleteCallback@ptr
  4994  06A5  318D  255D  3186   	fcall	_I2C1_SetDataCompleteCallback
  4995  06A8                     l3387:
  4996                           
  4997                           ;mcc_generated_files/examples/i2c1_master_example.c: 69:     I2C1_SetBuffer(&reg,1);
  4998  06A8  3001               	movlw	1
  4999  06A9  0020               	movlb	0	; select bank0
  5000  06AA  00A0               	movwf	I2C1_SetBuffer@bufferSize
  5001  06AB  3000               	movlw	0
  5002  06AC  00A1               	movwf	I2C1_SetBuffer@bufferSize+1
  5003  06AD  3033               	movlw	(low (I2C1_Read1ByteRegister@reg| 0))& (0+255)
  5004  06AE  318D  2595  3186   	fcall	_I2C1_SetBuffer
  5005  06B1                     l3389:
  5006                           
  5007                           ;mcc_generated_files/examples/i2c1_master_example.c: 70:     I2C1_SetAddressNackCallback
      +                          (((void*)0),((void*)0));
  5008  06B1  3000               	movlw	0
  5009  06B2  0020               	movlb	0	; select bank0
  5010  06B3  00A5               	movwf	I2C1_SetAddressNackCallback@cb
  5011  06B4  00A6               	movwf	I2C1_SetAddressNackCallback@cb+1
  5012  06B5  01A7               	clrf	I2C1_SetAddressNackCallback@ptr
  5013  06B6  318D  256B  3186   	fcall	_I2C1_SetAddressNackCallback
  5014  06B9                     l3391:
  5015                           
  5016                           ;mcc_generated_files/examples/i2c1_master_example.c: 71:     I2C1_MasterWrite();
  5017  06B9  318C  24CA  3186   	fcall	_I2C1_MasterWrite
  5018  06BC                     l3393:	
  5019                           ;mcc_generated_files/examples/i2c1_master_example.c: 72:     while(I2C1_BUSY == I2C1_Clo
      +                          se());
  5020                           
  5021  06BC  318F  2720  3186   	fcall	_I2C1_Close
  5022  06BF  3A01               	xorlw	1
  5023  06C0  1903               	skipnz
  5024  06C1  2EC3               	goto	u1231
  5025  06C2  2EC4               	goto	u1230
  5026  06C3                     u1231:
  5027  06C3  2EBC               	goto	l3393
  5028  06C4                     u1230:
  5029  06C4                     l3395:
  5030                           
  5031                           ;mcc_generated_files/examples/i2c1_master_example.c: 74:     return returnValue;
  5032  06C4  0020               	movlb	0	; select bank0
  5033  06C5  0836               	movf	I2C1_Read1ByteRegister@returnValue,w
  5034  06C6                     l361:
  5035  06C6  0008               	return
  5036  06C7                     __end_of_I2C1_Read1ByteRegister:
  5037                           
  5038                           	psect	text9
  5039  0F58                     __ptext9:	
  5040 ;; *************** function _EPWM2_LoadDutyValue *****************
  5041 ;; Defined at:
  5042 ;;		line 90 in file "mcc_generated_files/epwm2.c"
  5043 ;; Parameters:    Size  Location     Type
  5044 ;;  dutyValue       2    0[BANK0 ] unsigned short 
  5045 ;; Auto vars:     Size  Location     Type
  5046 ;;		None
  5047 ;; Return value:  Size  Location     Type
  5048 ;;                  1    wreg      void 
  5049 ;; Registers used:
  5050 ;;		wreg, status,2, status,0
  5051 ;; Tracked objects:
  5052 ;;		On entry : 0/0
  5053 ;;		On exit  : 0/0
  5054 ;;		Unchanged: 0/0
  5055 ;; Data sizes:     COMMON   BANK0   BANK1   BANK2   BANK3   BANK4   BANK5   BANK6   BANK7   BANK8   BANK9  BANK10  BANK1
      +1  BANK12
  5056 ;;      Params:         0       2       0       0       0       0       0       0       0       0       0       0       
      +0       0
  5057 ;;      Locals:         0       0       0       0       0       0       0       0       0       0       0       0       
      +0       0
  5058 ;;      Temps:          0       2       0       0       0       0       0       0       0       0       0       0       
      +0       0
  5059 ;;      Totals:         0       4       0       0       0       0       0       0       0       0       0       0       
      +0       0
  5060 ;;Total ram usage:        4 bytes
  5061 ;; Hardware stack levels used: 1
  5062 ;; Hardware stack levels required when called: 8
  5063 ;; This function calls:
  5064 ;;		Nothing
  5065 ;; This function is called by:
  5066 ;;		_patronus
  5067 ;;		_lumos
  5068 ;;		_lightsOff
  5069 ;;		_flashRED
  5070 ;;		_sparks
  5071 ;;		_main
  5072 ;;		_flashWhite
  5073 ;;		_WakeUpInterrupt
  5074 ;; This function uses a non-reentrant model
  5075 ;;
  5076                           
  5077                           
  5078                           ;psect for function _EPWM2_LoadDutyValue
  5079  0F58                     _EPWM2_LoadDutyValue:
  5080  0F58                     l3151:	
  5081                           ;incstack = 0
  5082                           ; Regs used in _EPWM2_LoadDutyValue: [wreg+status,2+status,0]
  5083                           
  5084                           
  5085                           ;mcc_generated_files/epwm2.c: 90: void EPWM2_LoadDutyValue(uint16_t dutyValue);mcc_gener
      +                          ated_files/epwm2.c: 91: {;mcc_generated_files/epwm2.c: 93:     CCPR2L = ((dutyValue & 0x
      +                          03FC)>>2);
  5086  0F58  0020               	movlb	0	; select bank0
  5087  0F59  0821               	movf	EPWM2_LoadDutyValue@dutyValue+1,w
  5088  0F5A  00A3               	movwf	??_EPWM2_LoadDutyValue+1
  5089  0F5B  0820               	movf	EPWM2_LoadDutyValue@dutyValue,w
  5090  0F5C  00A2               	movwf	??_EPWM2_LoadDutyValue
  5091  0F5D  36A3               	lsrf	??_EPWM2_LoadDutyValue+1,f
  5092  0F5E  0CA2               	rrf	??_EPWM2_LoadDutyValue,f
  5093  0F5F  36A3               	lsrf	??_EPWM2_LoadDutyValue+1,f
  5094  0F60  0CA2               	rrf	??_EPWM2_LoadDutyValue,f
  5095  0F61  0822               	movf	??_EPWM2_LoadDutyValue,w
  5096  0F62  0025               	movlb	5	; select bank5
  5097  0F63  0098               	movwf	24	;volatile
  5098                           
  5099                           ;mcc_generated_files/epwm2.c: 96:     CCP2CON = ((uint8_t)(CCP2CON & 0xCF) | ((dutyValue
      +                           & 0x0003)<<4));
  5100  0F64  0020               	movlb	0	; select bank0
  5101  0F65  0820               	movf	EPWM2_LoadDutyValue@dutyValue,w
  5102  0F66  3903               	andlw	3
  5103  0F67  00A2               	movwf	??_EPWM2_LoadDutyValue
  5104  0F68  3004               	movlw	4
  5105  0F69                     u1115:
  5106  0F69  35A2               	lslf	??_EPWM2_LoadDutyValue,f
  5107  0F6A  0B89               	decfsz	9,f
  5108  0F6B  2F69               	goto	u1115
  5109  0F6C  0025               	movlb	5	; select bank5
  5110  0F6D  081A               	movf	26,w	;volatile
  5111  0F6E  39CF               	andlw	207
  5112  0F6F  0020               	movlb	0	; select bank0
  5113  0F70  0422               	iorwf	??_EPWM2_LoadDutyValue,w
  5114  0F71  0025               	movlb	5	; select bank5
  5115  0F72  009A               	movwf	26	;volatile
  5116  0F73                     l196:
  5117  0F73  0008               	return
  5118  0F74                     __end_of_EPWM2_LoadDutyValue:
  5119                           
  5120                           	psect	text10
  5121  0F3C                     __ptext10:	
  5122 ;; *************** function _EPWM1_LoadDutyValue *****************
  5123 ;; Defined at:
  5124 ;;		line 90 in file "mcc_generated_files/epwm1.c"
  5125 ;; Parameters:    Size  Location     Type
  5126 ;;  dutyValue       2    0[BANK0 ] unsigned short 
  5127 ;; Auto vars:     Size  Location     Type
  5128 ;;		None
  5129 ;; Return value:  Size  Location     Type
  5130 ;;                  1    wreg      void 
  5131 ;; Registers used:
  5132 ;;		wreg, status,2, status,0
  5133 ;; Tracked objects:
  5134 ;;		On entry : 0/0
  5135 ;;		On exit  : 0/0
  5136 ;;		Unchanged: 0/0
  5137 ;; Data sizes:     COMMON   BANK0   BANK1   BANK2   BANK3   BANK4   BANK5   BANK6   BANK7   BANK8   BANK9  BANK10  BANK1
      +1  BANK12
  5138 ;;      Params:         0       2       0       0       0       0       0       0       0       0       0       0       
      +0       0
  5139 ;;      Locals:         0       0       0       0       0       0       0       0       0       0       0       0       
      +0       0
  5140 ;;      Temps:          0       2       0       0       0       0       0       0       0       0       0       0       
      +0       0
  5141 ;;      Totals:         0       4       0       0       0       0       0       0       0       0       0       0       
      +0       0
  5142 ;;Total ram usage:        4 bytes
  5143 ;; Hardware stack levels used: 1
  5144 ;; Hardware stack levels required when called: 8
  5145 ;; This function calls:
  5146 ;;		Nothing
  5147 ;; This function is called by:
  5148 ;;		_patronus
  5149 ;;		_lumos
  5150 ;;		_lightsOff
  5151 ;;		_main
  5152 ;;		_flashWhite
  5153 ;;		_WakeUpInterrupt
  5154 ;; This function uses a non-reentrant model
  5155 ;;
  5156                           
  5157                           
  5158                           ;psect for function _EPWM1_LoadDutyValue
  5159  0F3C                     _EPWM1_LoadDutyValue:
  5160  0F3C                     l3149:	
  5161                           ;incstack = 0
  5162                           ; Regs used in _EPWM1_LoadDutyValue: [wreg+status,2+status,0]
  5163                           
  5164                           
  5165                           ;mcc_generated_files/epwm1.c: 90: void EPWM1_LoadDutyValue(uint16_t dutyValue);mcc_gener
      +                          ated_files/epwm1.c: 91: {;mcc_generated_files/epwm1.c: 93:     CCPR1L = ((dutyValue & 0x
      +                          03FC)>>2);
  5166  0F3C  0020               	movlb	0	; select bank0
  5167  0F3D  0821               	movf	EPWM1_LoadDutyValue@dutyValue+1,w
  5168  0F3E  00A3               	movwf	??_EPWM1_LoadDutyValue+1
  5169  0F3F  0820               	movf	EPWM1_LoadDutyValue@dutyValue,w
  5170  0F40  00A2               	movwf	??_EPWM1_LoadDutyValue
  5171  0F41  36A3               	lsrf	??_EPWM1_LoadDutyValue+1,f
  5172  0F42  0CA2               	rrf	??_EPWM1_LoadDutyValue,f
  5173  0F43  36A3               	lsrf	??_EPWM1_LoadDutyValue+1,f
  5174  0F44  0CA2               	rrf	??_EPWM1_LoadDutyValue,f
  5175  0F45  0822               	movf	??_EPWM1_LoadDutyValue,w
  5176  0F46  0025               	movlb	5	; select bank5
  5177  0F47  0091               	movwf	17	;volatile
  5178                           
  5179                           ;mcc_generated_files/epwm1.c: 96:     CCP1CON = ((uint8_t)(CCP1CON & 0xCF) | ((dutyValue
      +                           & 0x0003)<<4));
  5180  0F48  0020               	movlb	0	; select bank0
  5181  0F49  0820               	movf	EPWM1_LoadDutyValue@dutyValue,w
  5182  0F4A  3903               	andlw	3
  5183  0F4B  00A2               	movwf	??_EPWM1_LoadDutyValue
  5184  0F4C  3004               	movlw	4
  5185  0F4D                     u1105:
  5186  0F4D  35A2               	lslf	??_EPWM1_LoadDutyValue,f
  5187  0F4E  0B89               	decfsz	9,f
  5188  0F4F  2F4D               	goto	u1105
  5189  0F50  0025               	movlb	5	; select bank5
  5190  0F51  0813               	movf	19,w	;volatile
  5191  0F52  39CF               	andlw	207
  5192  0F53  0020               	movlb	0	; select bank0
  5193  0F54  0422               	iorwf	??_EPWM1_LoadDutyValue,w
  5194  0F55  0025               	movlb	5	; select bank5
  5195  0F56  0093               	movwf	19	;volatile
  5196  0F57                     l216:
  5197  0F57  0008               	return
  5198  0F58                     __end_of_EPWM1_LoadDutyValue:
  5199                           
  5200                           	psect	text11
  5201  0ED5                     __ptext11:	
  5202 ;; *************** function _DELAY_milliseconds *****************
  5203 ;; Defined at:
  5204 ;;		line 38 in file "mcc_generated_files/delay.c"
  5205 ;; Parameters:    Size  Location     Type
  5206 ;;  milliseconds    2    0[BANK0 ] unsigned short 
  5207 ;; Auto vars:     Size  Location     Type
  5208 ;;		None
  5209 ;; Return value:  Size  Location     Type
  5210 ;;                  1    wreg      void 
  5211 ;; Registers used:
  5212 ;;		wreg, status,2, status,0
  5213 ;; Tracked objects:
  5214 ;;		On entry : 0/0
  5215 ;;		On exit  : 0/0
  5216 ;;		Unchanged: 0/0
  5217 ;; Data sizes:     COMMON   BANK0   BANK1   BANK2   BANK3   BANK4   BANK5   BANK6   BANK7   BANK8   BANK9  BANK10  BANK1
      +1  BANK12
  5218 ;;      Params:         0       2       0       0       0       0       0       0       0       0       0       0       
      +0       0
  5219 ;;      Locals:         0       0       0       0       0       0       0       0       0       0       0       0       
      +0       0
  5220 ;;      Temps:          0       1       0       0       0       0       0       0       0       0       0       0       
      +0       0
  5221 ;;      Totals:         0       3       0       0       0       0       0       0       0       0       0       0       
      +0       0
  5222 ;;Total ram usage:        3 bytes
  5223 ;; Hardware stack levels used: 1
  5224 ;; Hardware stack levels required when called: 8
  5225 ;; This function calls:
  5226 ;;		Nothing
  5227 ;; This function is called by:
  5228 ;;		_patronus
  5229 ;;		_lumos
  5230 ;;		_flashRED
  5231 ;;		_sparks
  5232 ;;		_main
  5233 ;;		_DELAY_MsExample
  5234 ;;		_flashWhite
  5235 ;; This function uses a non-reentrant model
  5236 ;;
  5237                           
  5238                           
  5239                           ;psect for function _DELAY_milliseconds
  5240  0ED5                     _DELAY_milliseconds:
  5241  0ED5                     l3205:	
  5242                           ;incstack = 0
  5243                           ; Regs used in _DELAY_milliseconds: [wreg+status,2+status,0]
  5244                           
  5245                           
  5246                           ;mcc_generated_files/delay.c: 39:     while(milliseconds--){
  5247  0ED5  2EDF               	goto	l3209
  5248  0ED6                     l3207:
  5249                           
  5250                           ;mcc_generated_files/delay.c: 40:         _delay((unsigned long)((1)*(32000000/4000.0)))
      +                          ;
  5251  0ED6  300B               	movlw	11
  5252  0ED7  0020               	movlb	0	; select bank0
  5253  0ED8  00A2               	movwf	??_DELAY_milliseconds
  5254  0ED9  3062               	movlw	98
  5255  0EDA                     u1867:
  5256  0EDA  0B89               	decfsz	9,f
  5257  0EDB  2EDA               	goto	u1867
  5258  0EDC  0BA2               	decfsz	??_DELAY_milliseconds,f
  5259  0EDD  2EDA               	goto	u1867
  5260  0EDE  0000               	nop
  5261  0EDF                     l3209:
  5262                           
  5263                           ;mcc_generated_files/delay.c: 39:     while(milliseconds--){
  5264  0EDF  3001               	movlw	1
  5265  0EE0  0020               	movlb	0	; select bank0
  5266  0EE1  02A0               	subwf	DELAY_milliseconds@milliseconds,f
  5267  0EE2  3000               	movlw	0
  5268  0EE3  3BA1               	subwfb	DELAY_milliseconds@milliseconds+1,f
  5269  0EE4  0A20               	incf	DELAY_milliseconds@milliseconds,w
  5270  0EE5  1D03               	skipz
  5271  0EE6  2EEB               	goto	u1161
  5272  0EE7  0A21               	incf	DELAY_milliseconds@milliseconds+1,w
  5273  0EE8  1D03               	btfss	3,2
  5274  0EE9  2EEB               	goto	u1161
  5275  0EEA  2EEC               	goto	u1160
  5276  0EEB                     u1161:
  5277  0EEB  2ED6               	goto	l3207
  5278  0EEC                     u1160:
  5279  0EEC                     l319:
  5280  0EEC  0008               	return
  5281  0EED                     __end_of_DELAY_milliseconds:
  5282                           
  5283                           	psect	text12
  5284  0EED                     __ptext12:	
  5285 ;; *************** function _SYSTEM_Initialize *****************
  5286 ;; Defined at:
  5287 ;;		line 50 in file "mcc_generated_files/mcc.c"
  5288 ;; Parameters:    Size  Location     Type
  5289 ;;		None
  5290 ;; Auto vars:     Size  Location     Type
  5291 ;;		None
  5292 ;; Return value:  Size  Location     Type
  5293 ;;                  1    wreg      void 
  5294 ;; Registers used:
  5295 ;;		wreg, status,2, status,0, pclath, cstack
  5296 ;; Tracked objects:
  5297 ;;		On entry : 0/0
  5298 ;;		On exit  : 0/0
  5299 ;;		Unchanged: 0/0
  5300 ;; Data sizes:     COMMON   BANK0   BANK1   BANK2   BANK3   BANK4   BANK5   BANK6   BANK7   BANK8   BANK9  BANK10  BANK1
      +1  BANK12
  5301 ;;      Params:         0       0       0       0       0       0       0       0       0       0       0       0       
      +0       0
  5302 ;;      Locals:         0       0       0       0       0       0       0       0       0       0       0       0       
      +0       0
  5303 ;;      Temps:          0       0       0       0       0       0       0       0       0       0       0       0       
      +0       0
  5304 ;;      Totals:         0       0       0       0       0       0       0       0       0       0       0       0       
      +0       0
  5305 ;;Total ram usage:        0 bytes
  5306 ;; Hardware stack levels used: 1
  5307 ;; Hardware stack levels required when called: 10
  5308 ;; This function calls:
  5309 ;;		_EPWM1_Initialize
  5310 ;;		_EPWM2_Initialize
  5311 ;;		_I2C1_Initialize
  5312 ;;		_OSCILLATOR_Initialize
  5313 ;;		_PIN_MANAGER_Initialize
  5314 ;;		_PWM4_Initialize
  5315 ;;		_TMR2_Initialize
  5316 ;;		_WDT_Initialize
  5317 ;; This function is called by:
  5318 ;;		_main
  5319 ;; This function uses a non-reentrant model
  5320 ;;
  5321                           
  5322                           
  5323                           ;psect for function _SYSTEM_Initialize
  5324  0EED                     _SYSTEM_Initialize:
  5325  0EED                     l3421:	
  5326                           ;incstack = 0
  5327                           ; Regs used in _SYSTEM_Initialize: [wreg+status,2+status,0+pclath+cstack]
  5328                           
  5329                           
  5330                           ;mcc_generated_files/mcc.c: 53:     I2C1_Initialize();
  5331  0EED  318D  2516  318E   	fcall	_I2C1_Initialize
  5332                           
  5333                           ;mcc_generated_files/mcc.c: 54:     PIN_MANAGER_Initialize();
  5334  0EF0  318F  27D6  318E   	fcall	_PIN_MANAGER_Initialize
  5335                           
  5336                           ;mcc_generated_files/mcc.c: 55:     OSCILLATOR_Initialize();
  5337  0EF3  318D  2529  318E   	fcall	_OSCILLATOR_Initialize
  5338                           
  5339                           ;mcc_generated_files/mcc.c: 56:     WDT_Initialize();
  5340  0EF6  318C  2499  318E   	fcall	_WDT_Initialize
  5341                           
  5342                           ;mcc_generated_files/mcc.c: 57:     EPWM2_Initialize();
  5343  0EF9  318D  2587  318E   	fcall	_EPWM2_Initialize
  5344                           
  5345                           ;mcc_generated_files/mcc.c: 58:     EPWM1_Initialize();
  5346  0EFC  318D  2579  318E   	fcall	_EPWM1_Initialize
  5347                           
  5348                           ;mcc_generated_files/mcc.c: 59:     PWM4_Initialize();
  5349  0EFF  318D  251F  318E   	fcall	_PWM4_Initialize
  5350                           
  5351                           ;mcc_generated_files/mcc.c: 60:     TMR2_Initialize();
  5352  0F02  318C  24FC  318E   	fcall	_TMR2_Initialize
  5353  0F05                     l29:
  5354  0F05  0008               	return
  5355  0F06                     __end_of_SYSTEM_Initialize:
  5356                           
  5357                           	psect	text13
  5358  0C99                     __ptext13:	
  5359 ;; *************** function _WDT_Initialize *****************
  5360 ;; Defined at:
  5361 ;;		line 77 in file "mcc_generated_files/mcc.c"
  5362 ;; Parameters:    Size  Location     Type
  5363 ;;		None
  5364 ;; Auto vars:     Size  Location     Type
  5365 ;;		None
  5366 ;; Return value:  Size  Location     Type
  5367 ;;                  1    wreg      void 
  5368 ;; Registers used:
  5369 ;;		wreg
  5370 ;; Tracked objects:
  5371 ;;		On entry : 0/0
  5372 ;;		On exit  : 0/0
  5373 ;;		Unchanged: 0/0
  5374 ;; Data sizes:     COMMON   BANK0   BANK1   BANK2   BANK3   BANK4   BANK5   BANK6   BANK7   BANK8   BANK9  BANK10  BANK1
      +1  BANK12
  5375 ;;      Params:         0       0       0       0       0       0       0       0       0       0       0       0       
      +0       0
  5376 ;;      Locals:         0       0       0       0       0       0       0       0       0       0       0       0       
      +0       0
  5377 ;;      Temps:          0       0       0       0       0       0       0       0       0       0       0       0       
      +0       0
  5378 ;;      Totals:         0       0       0       0       0       0       0       0       0       0       0       0       
      +0       0
  5379 ;;Total ram usage:        0 bytes
  5380 ;; Hardware stack levels used: 1
  5381 ;; Hardware stack levels required when called: 8
  5382 ;; This function calls:
  5383 ;;		Nothing
  5384 ;; This function is called by:
  5385 ;;		_SYSTEM_Initialize
  5386 ;; This function uses a non-reentrant model
  5387 ;;
  5388                           
  5389                           
  5390                           ;psect for function _WDT_Initialize
  5391  0C99                     _WDT_Initialize:
  5392  0C99                     l3323:	
  5393                           ;incstack = 0
  5394                           ; Regs used in _WDT_Initialize: [wreg]
  5395                           
  5396                           
  5397                           ;mcc_generated_files/mcc.c: 80:     WDTCON = 0x16;
  5398  0C99  3016               	movlw	22
  5399  0C9A  0021               	movlb	1	; select bank1
  5400  0C9B  0097               	movwf	23	;volatile
  5401  0C9C                     l38:
  5402  0C9C  0008               	return
  5403  0C9D                     __end_of_WDT_Initialize:
  5404                           
  5405                           	psect	text14
  5406  0CFC                     __ptext14:	
  5407 ;; *************** function _TMR2_Initialize *****************
  5408 ;; Defined at:
  5409 ;;		line 62 in file "mcc_generated_files/tmr2.c"
  5410 ;; Parameters:    Size  Location     Type
  5411 ;;		None
  5412 ;; Auto vars:     Size  Location     Type
  5413 ;;		None
  5414 ;; Return value:  Size  Location     Type
  5415 ;;                  1    wreg      void 
  5416 ;; Registers used:
  5417 ;;		wreg, status,2
  5418 ;; Tracked objects:
  5419 ;;		On entry : 0/0
  5420 ;;		On exit  : 0/0
  5421 ;;		Unchanged: 0/0
  5422 ;; Data sizes:     COMMON   BANK0   BANK1   BANK2   BANK3   BANK4   BANK5   BANK6   BANK7   BANK8   BANK9  BANK10  BANK1
      +1  BANK12
  5423 ;;      Params:         0       0       0       0       0       0       0       0       0       0       0       0       
      +0       0
  5424 ;;      Locals:         0       0       0       0       0       0       0       0       0       0       0       0       
      +0       0
  5425 ;;      Temps:          0       0       0       0       0       0       0       0       0       0       0       0       
      +0       0
  5426 ;;      Totals:         0       0       0       0       0       0       0       0       0       0       0       0       
      +0       0
  5427 ;;Total ram usage:        0 bytes
  5428 ;; Hardware stack levels used: 1
  5429 ;; Hardware stack levels required when called: 8
  5430 ;; This function calls:
  5431 ;;		Nothing
  5432 ;; This function is called by:
  5433 ;;		_SYSTEM_Initialize
  5434 ;; This function uses a non-reentrant model
  5435 ;;
  5436                           
  5437                           
  5438                           ;psect for function _TMR2_Initialize
  5439  0CFC                     _TMR2_Initialize:
  5440  0CFC                     l3355:	
  5441                           ;incstack = 0
  5442                           ; Regs used in _TMR2_Initialize: [wreg+status,2]
  5443                           
  5444                           
  5445                           ;mcc_generated_files/tmr2.c: 67:     PR2 = 0x27;
  5446  0CFC  3027               	movlw	39
  5447  0CFD  0020               	movlb	0	; select bank0
  5448  0CFE  009B               	movwf	27	;volatile
  5449  0CFF                     l3357:
  5450                           
  5451                           ;mcc_generated_files/tmr2.c: 70:     TMR2 = 0x00;
  5452  0CFF  019A               	clrf	26	;volatile
  5453  0D00                     l3359:
  5454                           
  5455                           ;mcc_generated_files/tmr2.c: 73:     PIR1bits.TMR2IF = 0;
  5456  0D00  1091               	bcf	17,1	;volatile
  5457  0D01                     l3361:
  5458                           
  5459                           ;mcc_generated_files/tmr2.c: 76:     T2CON = 0x07;
  5460  0D01  3007               	movlw	7
  5461  0D02  009C               	movwf	28	;volatile
  5462  0D03                     l292:
  5463  0D03  0008               	return
  5464  0D04                     __end_of_TMR2_Initialize:
  5465                           
  5466                           	psect	text15
  5467  0D1F                     __ptext15:	
  5468 ;; *************** function _PWM4_Initialize *****************
  5469 ;; Defined at:
  5470 ;;		line 64 in file "mcc_generated_files/pwm4.c"
  5471 ;; Parameters:    Size  Location     Type
  5472 ;;		None
  5473 ;; Auto vars:     Size  Location     Type
  5474 ;;		None
  5475 ;; Return value:  Size  Location     Type
  5476 ;;                  1    wreg      void 
  5477 ;; Registers used:
  5478 ;;		wreg, status,2, status,0
  5479 ;; Tracked objects:
  5480 ;;		On entry : 0/0
  5481 ;;		On exit  : 0/0
  5482 ;;		Unchanged: 0/0
  5483 ;; Data sizes:     COMMON   BANK0   BANK1   BANK2   BANK3   BANK4   BANK5   BANK6   BANK7   BANK8   BANK9  BANK10  BANK1
      +1  BANK12
  5484 ;;      Params:         0       0       0       0       0       0       0       0       0       0       0       0       
      +0       0
  5485 ;;      Locals:         0       0       0       0       0       0       0       0       0       0       0       0       
      +0       0
  5486 ;;      Temps:          0       0       0       0       0       0       0       0       0       0       0       0       
      +0       0
  5487 ;;      Totals:         0       0       0       0       0       0       0       0       0       0       0       0       
      +0       0
  5488 ;;Total ram usage:        0 bytes
  5489 ;; Hardware stack levels used: 1
  5490 ;; Hardware stack levels required when called: 8
  5491 ;; This function calls:
  5492 ;;		Nothing
  5493 ;; This function is called by:
  5494 ;;		_SYSTEM_Initialize
  5495 ;; This function uses a non-reentrant model
  5496 ;;
  5497                           
  5498                           
  5499                           ;psect for function _PWM4_Initialize
  5500  0D1F                     _PWM4_Initialize:
  5501  0D1F                     l3349:	
  5502                           ;incstack = 0
  5503                           ; Regs used in _PWM4_Initialize: [wreg+status,2+status,0]
  5504                           
  5505                           
  5506                           ;mcc_generated_files/pwm4.c: 69:  CCP4CON = 0x3C;
  5507  0D1F  303C               	movlw	60
  5508  0D20  0026               	movlb	6	; select bank6
  5509  0D21  009A               	movwf	26	;volatile
  5510                           
  5511                           ;mcc_generated_files/pwm4.c: 72:  CCPR4L = 0x03;
  5512  0D22  3003               	movlw	3
  5513  0D23  0098               	movwf	24	;volatile
  5514  0D24                     l3351:
  5515                           
  5516                           ;mcc_generated_files/pwm4.c: 75:  CCPR4H = 0x00;
  5517  0D24  0199               	clrf	25	;volatile
  5518  0D25                     l3353:
  5519                           
  5520                           ;mcc_generated_files/pwm4.c: 78:  CCPTMRSbits.C4TSEL = 0x0;
  5521  0D25  303F               	movlw	-193
  5522  0D26  0025               	movlb	5	; select bank5
  5523  0D27  059E               	andwf	30,f	;volatile
  5524  0D28                     l49:
  5525  0D28  0008               	return
  5526  0D29                     __end_of_PWM4_Initialize:
  5527                           
  5528                           	psect	text16
  5529  0FD6                     __ptext16:	
  5530 ;; *************** function _PIN_MANAGER_Initialize *****************
  5531 ;; Defined at:
  5532 ;;		line 57 in file "mcc_generated_files/pin_manager.c"
  5533 ;; Parameters:    Size  Location     Type
  5534 ;;		None
  5535 ;; Auto vars:     Size  Location     Type
  5536 ;;		None
  5537 ;; Return value:  Size  Location     Type
  5538 ;;                  1    wreg      void 
  5539 ;; Registers used:
  5540 ;;		wreg, status,2, status,0, pclath, cstack
  5541 ;; Tracked objects:
  5542 ;;		On entry : 0/0
  5543 ;;		On exit  : 0/0
  5544 ;;		Unchanged: 0/0
  5545 ;; Data sizes:     COMMON   BANK0   BANK1   BANK2   BANK3   BANK4   BANK5   BANK6   BANK7   BANK8   BANK9  BANK10  BANK1
      +1  BANK12
  5546 ;;      Params:         0       0       0       0       0       0       0       0       0       0       0       0       
      +0       0
  5547 ;;      Locals:         0       0       0       0       0       0       0       0       0       0       0       0       
      +0       0
  5548 ;;      Temps:          0       0       0       0       0       0       0       0       0       0       0       0       
      +0       0
  5549 ;;      Totals:         0       0       0       0       0       0       0       0       0       0       0       0       
      +0       0
  5550 ;;Total ram usage:        0 bytes
  5551 ;; Hardware stack levels used: 1
  5552 ;; Hardware stack levels required when called: 9
  5553 ;; This function calls:
  5554 ;;		_IOCBF7_SetInterruptHandler
  5555 ;; This function is called by:
  5556 ;;		_SYSTEM_Initialize
  5557 ;; This function uses a non-reentrant model
  5558 ;;
  5559                           
  5560                           
  5561                           ;psect for function _PIN_MANAGER_Initialize
  5562  0FD6                     _PIN_MANAGER_Initialize:
  5563  0FD6                     l3281:	
  5564                           ;incstack = 0
  5565                           ; Regs used in _PIN_MANAGER_Initialize: [wreg+status,2+status,0+pclath+cstack]
  5566                           
  5567                           
  5568                           ;mcc_generated_files/pin_manager.c: 62:     LATA = 0x00;
  5569  0FD6  0022               	movlb	2	; select bank2
  5570  0FD7  018C               	clrf	12	;volatile
  5571                           
  5572                           ;mcc_generated_files/pin_manager.c: 63:     LATB = 0x00;
  5573  0FD8  018D               	clrf	13	;volatile
  5574                           
  5575                           ;mcc_generated_files/pin_manager.c: 64:     LATC = 0x00;
  5576  0FD9  018E               	clrf	14	;volatile
  5577  0FDA                     l3283:
  5578                           
  5579                           ;mcc_generated_files/pin_manager.c: 69:     TRISA = 0x3F;
  5580  0FDA  303F               	movlw	63
  5581  0FDB  0021               	movlb	1	; select bank1
  5582  0FDC  008C               	movwf	12	;volatile
  5583  0FDD                     l3285:
  5584                           
  5585                           ;mcc_generated_files/pin_manager.c: 70:     TRISB = 0xF0;
  5586  0FDD  30F0               	movlw	240
  5587  0FDE  008D               	movwf	13	;volatile
  5588  0FDF                     l3287:
  5589                           
  5590                           ;mcc_generated_files/pin_manager.c: 71:     TRISC = 0x97;
  5591  0FDF  3097               	movlw	151
  5592  0FE0  008E               	movwf	14	;volatile
  5593  0FE1                     l3289:
  5594                           
  5595                           ;mcc_generated_files/pin_manager.c: 76:     ANSELC = 0x87;
  5596  0FE1  3087               	movlw	135
  5597  0FE2  0023               	movlb	3	; select bank3
  5598  0FE3  008E               	movwf	14	;volatile
  5599  0FE4                     l3291:
  5600                           
  5601                           ;mcc_generated_files/pin_manager.c: 77:     ANSELB = 0x20;
  5602  0FE4  3020               	movlw	32
  5603  0FE5  008D               	movwf	13	;volatile
  5604  0FE6                     l3293:
  5605                           
  5606                           ;mcc_generated_files/pin_manager.c: 78:     ANSELA = 0x17;
  5607  0FE6  3017               	movlw	23
  5608  0FE7  008C               	movwf	12	;volatile
  5609  0FE8                     l3295:
  5610                           
  5611                           ;mcc_generated_files/pin_manager.c: 83:     WPUB = 0x80;
  5612  0FE8  3080               	movlw	128
  5613  0FE9  0024               	movlb	4	; select bank4
  5614  0FEA  008D               	movwf	13	;volatile
  5615  0FEB                     l3297:
  5616                           
  5617                           ;mcc_generated_files/pin_manager.c: 84:     WPUA = 0x00;
  5618  0FEB  018C               	clrf	12	;volatile
  5619  0FEC                     l3299:
  5620                           
  5621                           ;mcc_generated_files/pin_manager.c: 85:     WPUC = 0x00;
  5622  0FEC  018E               	clrf	14	;volatile
  5623  0FED                     l3301:
  5624                           
  5625                           ;mcc_generated_files/pin_manager.c: 86:     OPTION_REGbits.nWPUEN = 0;
  5626  0FED  0021               	movlb	1	; select bank1
  5627  0FEE  1395               	bcf	21,7	;volatile
  5628  0FEF                     l3303:
  5629                           
  5630                           ;mcc_generated_files/pin_manager.c: 92:     APFCON0 = 0x00;
  5631  0FEF  0022               	movlb	2	; select bank2
  5632  0FF0  019D               	clrf	29	;volatile
  5633  0FF1                     l3305:
  5634                           
  5635                           ;mcc_generated_files/pin_manager.c: 93:     APFCON1 = 0x00;
  5636  0FF1  019E               	clrf	30	;volatile
  5637  0FF2                     l3307:
  5638                           
  5639                           ;mcc_generated_files/pin_manager.c: 99:     IOCBFbits.IOCBF7 = 0;
  5640  0FF2  0027               	movlb	7	; select bank7
  5641  0FF3  1396               	bcf	22,7	;volatile
  5642  0FF4                     l3309:
  5643                           
  5644                           ;mcc_generated_files/pin_manager.c: 101:     IOCBNbits.IOCBN7 = 1;
  5645  0FF4  1795               	bsf	21,7	;volatile
  5646  0FF5                     l3311:
  5647                           
  5648                           ;mcc_generated_files/pin_manager.c: 103:     IOCBPbits.IOCBP7 = 0;
  5649  0FF5  1394               	bcf	20,7	;volatile
  5650  0FF6                     l3313:
  5651                           
  5652                           ;mcc_generated_files/pin_manager.c: 108:     IOCBF7_SetInterruptHandler(IOCBF7_DefaultIn
      +                          terruptHandler);
  5653  0FF6  306F               	movlw	low _IOCBF7_DefaultInterruptHandler
  5654  0FF7  0020               	movlb	0	; select bank0
  5655  0FF8  00A0               	movwf	IOCBF7_SetInterruptHandler@InterruptHandler
  5656  0FF9  300C               	movlw	high _IOCBF7_DefaultInterruptHandler
  5657  0FFA  00A1               	movwf	IOCBF7_SetInterruptHandler@InterruptHandler+1
  5658  0FFB  318C  24E1  318F   	fcall	_IOCBF7_SetInterruptHandler
  5659  0FFE                     l3315:
  5660                           
  5661                           ;mcc_generated_files/pin_manager.c: 111:     INTCONbits.IOCIE = 1;
  5662  0FFE  158B               	bsf	11,3	;volatile
  5663  0FFF                     l265:
  5664  0FFF  0008               	return
  5665  1000                     __end_of_PIN_MANAGER_Initialize:
  5666                           
  5667                           	psect	text17
  5668  0CE1                     __ptext17:	
  5669 ;; *************** function _IOCBF7_SetInterruptHandler *****************
  5670 ;; Defined at:
  5671 ;;		line 142 in file "mcc_generated_files/pin_manager.c"
  5672 ;; Parameters:    Size  Location     Type
  5673 ;;  InterruptHan    2    0[BANK0 ] PTR FTN()void 
  5674 ;;		 -> IOCBF7_DefaultInterruptHandler(1), ButtonInterrupt(1), 
  5675 ;; Auto vars:     Size  Location     Type
  5676 ;;		None
  5677 ;; Return value:  Size  Location     Type
  5678 ;;                  1    wreg      void 
  5679 ;; Registers used:
  5680 ;;		wreg
  5681 ;; Tracked objects:
  5682 ;;		On entry : 0/0
  5683 ;;		On exit  : 0/0
  5684 ;;		Unchanged: 0/0
  5685 ;; Data sizes:     COMMON   BANK0   BANK1   BANK2   BANK3   BANK4   BANK5   BANK6   BANK7   BANK8   BANK9  BANK10  BANK1
      +1  BANK12
  5686 ;;      Params:         0       2       0       0       0       0       0       0       0       0       0       0       
      +0       0
  5687 ;;      Locals:         0       0       0       0       0       0       0       0       0       0       0       0       
      +0       0
  5688 ;;      Temps:          0       0       0       0       0       0       0       0       0       0       0       0       
      +0       0
  5689 ;;      Totals:         0       2       0       0       0       0       0       0       0       0       0       0       
      +0       0
  5690 ;;Total ram usage:        2 bytes
  5691 ;; Hardware stack levels used: 1
  5692 ;; Hardware stack levels required when called: 8
  5693 ;; This function calls:
  5694 ;;		Nothing
  5695 ;; This function is called by:
  5696 ;;		_main
  5697 ;;		_PIN_MANAGER_Initialize
  5698 ;; This function uses a non-reentrant model
  5699 ;;
  5700                           
  5701                           
  5702                           ;psect for function _IOCBF7_SetInterruptHandler
  5703  0CE1                     _IOCBF7_SetInterruptHandler:
  5704  0CE1                     l3213:	
  5705                           ;incstack = 0
  5706                           ; Regs used in _IOCBF7_SetInterruptHandler: [wreg]
  5707                           
  5708                           
  5709                           ;mcc_generated_files/pin_manager.c: 143:     IOCBF7_InterruptHandler = InterruptHandler;
  5710  0CE1  0020               	movlb	0	; select bank0
  5711  0CE2  0821               	movf	IOCBF7_SetInterruptHandler@InterruptHandler+1,w
  5712  0CE3  00FB               	movwf	_IOCBF7_InterruptHandler+1
  5713  0CE4  0820               	movf	IOCBF7_SetInterruptHandler@InterruptHandler,w
  5714  0CE5  00FA               	movwf	_IOCBF7_InterruptHandler
  5715  0CE6                     l276:
  5716  0CE6  0008               	return
  5717  0CE7                     __end_of_IOCBF7_SetInterruptHandler:
  5718                           
  5719                           	psect	text18
  5720  0D29                     __ptext18:	
  5721 ;; *************** function _OSCILLATOR_Initialize *****************
  5722 ;; Defined at:
  5723 ;;		line 63 in file "mcc_generated_files/mcc.c"
  5724 ;; Parameters:    Size  Location     Type
  5725 ;;		None
  5726 ;; Auto vars:     Size  Location     Type
  5727 ;;		None
  5728 ;; Return value:  Size  Location     Type
  5729 ;;                  1    wreg      void 
  5730 ;; Registers used:
  5731 ;;		wreg, status,2
  5732 ;; Tracked objects:
  5733 ;;		On entry : 0/0
  5734 ;;		On exit  : 0/0
  5735 ;;		Unchanged: 0/0
  5736 ;; Data sizes:     COMMON   BANK0   BANK1   BANK2   BANK3   BANK4   BANK5   BANK6   BANK7   BANK8   BANK9  BANK10  BANK1
      +1  BANK12
  5737 ;;      Params:         0       0       0       0       0       0       0       0       0       0       0       0       
      +0       0
  5738 ;;      Locals:         0       0       0       0       0       0       0       0       0       0       0       0       
      +0       0
  5739 ;;      Temps:          0       0       0       0       0       0       0       0       0       0       0       0       
      +0       0
  5740 ;;      Totals:         0       0       0       0       0       0       0       0       0       0       0       0       
      +0       0
  5741 ;;Total ram usage:        0 bytes
  5742 ;; Hardware stack levels used: 1
  5743 ;; Hardware stack levels required when called: 8
  5744 ;; This function calls:
  5745 ;;		Nothing
  5746 ;; This function is called by:
  5747 ;;		_SYSTEM_Initialize
  5748 ;; This function uses a non-reentrant model
  5749 ;;
  5750                           
  5751                           
  5752                           ;psect for function _OSCILLATOR_Initialize
  5753  0D29                     _OSCILLATOR_Initialize:
  5754  0D29                     l3317:	
  5755                           ;incstack = 0
  5756                           ; Regs used in _OSCILLATOR_Initialize: [wreg+status,2]
  5757                           
  5758                           
  5759                           ;mcc_generated_files/mcc.c: 66:     OSCCON = 0x70;
  5760  0D29  3070               	movlw	112
  5761  0D2A  0021               	movlb	1	; select bank1
  5762  0D2B  0099               	movwf	25	;volatile
  5763  0D2C                     l3319:
  5764                           
  5765                           ;mcc_generated_files/mcc.c: 68:     OSCTUNE = 0x00;
  5766  0D2C  0198               	clrf	24	;volatile
  5767  0D2D                     l3321:
  5768                           
  5769                           ;mcc_generated_files/mcc.c: 70:     BORCON = 0x00;
  5770  0D2D  0022               	movlb	2	; select bank2
  5771  0D2E  0196               	clrf	22	;volatile
  5772  0D2F                     l32:	
  5773                           ;mcc_generated_files/mcc.c: 73:     {;mcc_generated_files/mcc.c: 74:     }
  5774                           
  5775                           
  5776                           ;mcc_generated_files/mcc.c: 72:     while(PLLR == 0)
  5777  0D2F  0021               	movlb	1	; select bank1
  5778  0D30  1F1A               	btfss	26,6	;volatile
  5779  0D31  2D33               	goto	u1191
  5780  0D32  2D34               	goto	u1190
  5781  0D33                     u1191:
  5782  0D33  2D2F               	goto	l32
  5783  0D34                     u1190:
  5784  0D34                     l35:
  5785  0D34  0008               	return
  5786  0D35                     __end_of_OSCILLATOR_Initialize:
  5787                           
  5788                           	psect	text19
  5789  0D16                     __ptext19:	
  5790 ;; *************** function _I2C1_Initialize *****************
  5791 ;; Defined at:
  5792 ;;		line 167 in file "mcc_generated_files/i2c1_master.c"
  5793 ;; Parameters:    Size  Location     Type
  5794 ;;		None
  5795 ;; Auto vars:     Size  Location     Type
  5796 ;;		None
  5797 ;; Return value:  Size  Location     Type
  5798 ;;                  1    wreg      void 
  5799 ;; Registers used:
  5800 ;;		wreg, status,2
  5801 ;; Tracked objects:
  5802 ;;		On entry : 0/0
  5803 ;;		On exit  : 0/0
  5804 ;;		Unchanged: 0/0
  5805 ;; Data sizes:     COMMON   BANK0   BANK1   BANK2   BANK3   BANK4   BANK5   BANK6   BANK7   BANK8   BANK9  BANK10  BANK1
      +1  BANK12
  5806 ;;      Params:         0       0       0       0       0       0       0       0       0       0       0       0       
      +0       0
  5807 ;;      Locals:         0       0       0       0       0       0       0       0       0       0       0       0       
      +0       0
  5808 ;;      Temps:          0       0       0       0       0       0       0       0       0       0       0       0       
      +0       0
  5809 ;;      Totals:         0       0       0       0       0       0       0       0       0       0       0       0       
      +0       0
  5810 ;;Total ram usage:        0 bytes
  5811 ;; Hardware stack levels used: 1
  5812 ;; Hardware stack levels required when called: 8
  5813 ;; This function calls:
  5814 ;;		Nothing
  5815 ;; This function is called by:
  5816 ;;		_SYSTEM_Initialize
  5817 ;; This function uses a non-reentrant model
  5818 ;;
  5819                           
  5820                           
  5821                           ;psect for function _I2C1_Initialize
  5822  0D16                     _I2C1_Initialize:
  5823  0D16                     l3273:	
  5824                           ;incstack = 0
  5825                           ; Regs used in _I2C1_Initialize: [wreg+status,2]
  5826                           
  5827                           
  5828                           ;mcc_generated_files/i2c1_master.c: 169:     SSP1STAT = 0x00;
  5829  0D16  0024               	movlb	4	; select bank4
  5830  0D17  0194               	clrf	20	;volatile
  5831  0D18                     l3275:
  5832                           
  5833                           ;mcc_generated_files/i2c1_master.c: 170:     SSP1CON1 = 0x08;
  5834  0D18  3008               	movlw	8
  5835  0D19  0095               	movwf	21	;volatile
  5836  0D1A                     l3277:
  5837                           
  5838                           ;mcc_generated_files/i2c1_master.c: 171:     SSP1CON2 = 0x00;
  5839  0D1A  0196               	clrf	22	;volatile
  5840                           
  5841                           ;mcc_generated_files/i2c1_master.c: 172:     SSP1ADD = 0x4F;
  5842  0D1B  304F               	movlw	79
  5843  0D1C  0092               	movwf	18	;volatile
  5844  0D1D                     l3279:
  5845                           
  5846                           ;mcc_generated_files/i2c1_master.c: 173:     SSP1CON1bits.SSPEN = 0;
  5847  0D1D  1295               	bcf	21,5	;volatile
  5848  0D1E                     l537:
  5849  0D1E  0008               	return
  5850  0D1F                     __end_of_I2C1_Initialize:
  5851                           
  5852                           	psect	text20
  5853  0D87                     __ptext20:	
  5854 ;; *************** function _EPWM2_Initialize *****************
  5855 ;; Defined at:
  5856 ;;		line 64 in file "mcc_generated_files/epwm2.c"
  5857 ;; Parameters:    Size  Location     Type
  5858 ;;		None
  5859 ;; Auto vars:     Size  Location     Type
  5860 ;;		None
  5861 ;; Return value:  Size  Location     Type
  5862 ;;                  1    wreg      void 
  5863 ;; Registers used:
  5864 ;;		wreg, status,2, status,0
  5865 ;; Tracked objects:
  5866 ;;		On entry : 0/0
  5867 ;;		On exit  : 0/0
  5868 ;;		Unchanged: 0/0
  5869 ;; Data sizes:     COMMON   BANK0   BANK1   BANK2   BANK3   BANK4   BANK5   BANK6   BANK7   BANK8   BANK9  BANK10  BANK1
      +1  BANK12
  5870 ;;      Params:         0       0       0       0       0       0       0       0       0       0       0       0       
      +0       0
  5871 ;;      Locals:         0       0       0       0       0       0       0       0       0       0       0       0       
      +0       0
  5872 ;;      Temps:          0       0       0       0       0       0       0       0       0       0       0       0       
      +0       0
  5873 ;;      Totals:         0       0       0       0       0       0       0       0       0       0       0       0       
      +0       0
  5874 ;;Total ram usage:        0 bytes
  5875 ;; Hardware stack levels used: 1
  5876 ;; Hardware stack levels required when called: 8
  5877 ;; This function calls:
  5878 ;;		Nothing
  5879 ;; This function is called by:
  5880 ;;		_SYSTEM_Initialize
  5881 ;; This function uses a non-reentrant model
  5882 ;;
  5883                           
  5884                           
  5885                           ;psect for function _EPWM2_Initialize
  5886  0D87                     _EPWM2_Initialize:
  5887  0D87                     l3325:	
  5888                           ;incstack = 0
  5889                           ; Regs used in _EPWM2_Initialize: [wreg+status,2+status,0]
  5890                           
  5891                           
  5892                           ;mcc_generated_files/epwm2.c: 69:  CCP2CON = 0x3C;
  5893  0D87  303C               	movlw	60
  5894  0D88  0025               	movlb	5	; select bank5
  5895  0D89  009A               	movwf	26	;volatile
  5896  0D8A                     l3327:
  5897                           
  5898                           ;mcc_generated_files/epwm2.c: 72:  CCP2AS = 0x00;
  5899  0D8A  019C               	clrf	28	;volatile
  5900  0D8B                     l3329:
  5901                           
  5902                           ;mcc_generated_files/epwm2.c: 75:  PWM2CON = 0x80;
  5903  0D8B  3080               	movlw	128
  5904  0D8C  009B               	movwf	27	;volatile
  5905  0D8D                     l3331:
  5906                           
  5907                           ;mcc_generated_files/epwm2.c: 78:  PSTR2CON = 0x01;
  5908  0D8D  3001               	movlw	1
  5909  0D8E  009D               	movwf	29	;volatile
  5910  0D8F                     l3333:
  5911                           
  5912                           ;mcc_generated_files/epwm2.c: 81:  CCPR2H = 0x00;
  5913  0D8F  0199               	clrf	25	;volatile
  5914                           
  5915                           ;mcc_generated_files/epwm2.c: 84:  CCPR2L = 0x13;
  5916  0D90  3013               	movlw	19
  5917  0D91  0098               	movwf	24	;volatile
  5918  0D92                     l3335:
  5919                           
  5920                           ;mcc_generated_files/epwm2.c: 87:  CCPTMRSbits.C2TSEL = 0x0;
  5921  0D92  30F3               	movlw	-13
  5922  0D93  059E               	andwf	30,f	;volatile
  5923  0D94                     l193:
  5924  0D94  0008               	return
  5925  0D95                     __end_of_EPWM2_Initialize:
  5926                           
  5927                           	psect	text21
  5928  0D79                     __ptext21:	
  5929 ;; *************** function _EPWM1_Initialize *****************
  5930 ;; Defined at:
  5931 ;;		line 64 in file "mcc_generated_files/epwm1.c"
  5932 ;; Parameters:    Size  Location     Type
  5933 ;;		None
  5934 ;; Auto vars:     Size  Location     Type
  5935 ;;		None
  5936 ;; Return value:  Size  Location     Type
  5937 ;;                  1    wreg      void 
  5938 ;; Registers used:
  5939 ;;		wreg, status,2, status,0
  5940 ;; Tracked objects:
  5941 ;;		On entry : 0/0
  5942 ;;		On exit  : 0/0
  5943 ;;		Unchanged: 0/0
  5944 ;; Data sizes:     COMMON   BANK0   BANK1   BANK2   BANK3   BANK4   BANK5   BANK6   BANK7   BANK8   BANK9  BANK10  BANK1
      +1  BANK12
  5945 ;;      Params:         0       0       0       0       0       0       0       0       0       0       0       0       
      +0       0
  5946 ;;      Locals:         0       0       0       0       0       0       0       0       0       0       0       0       
      +0       0
  5947 ;;      Temps:          0       0       0       0       0       0       0       0       0       0       0       0       
      +0       0
  5948 ;;      Totals:         0       0       0       0       0       0       0       0       0       0       0       0       
      +0       0
  5949 ;;Total ram usage:        0 bytes
  5950 ;; Hardware stack levels used: 1
  5951 ;; Hardware stack levels required when called: 8
  5952 ;; This function calls:
  5953 ;;		Nothing
  5954 ;; This function is called by:
  5955 ;;		_SYSTEM_Initialize
  5956 ;; This function uses a non-reentrant model
  5957 ;;
  5958                           
  5959                           
  5960                           ;psect for function _EPWM1_Initialize
  5961  0D79                     _EPWM1_Initialize:
  5962  0D79                     l3337:	
  5963                           ;incstack = 0
  5964                           ; Regs used in _EPWM1_Initialize: [wreg+status,2+status,0]
  5965                           
  5966                           
  5967                           ;mcc_generated_files/epwm1.c: 69:  CCP1CON = 0x3C;
  5968  0D79  303C               	movlw	60
  5969  0D7A  0025               	movlb	5	; select bank5
  5970  0D7B  0093               	movwf	19	;volatile
  5971  0D7C                     l3339:
  5972                           
  5973                           ;mcc_generated_files/epwm1.c: 72:  ECCP1AS = 0x00;
  5974  0D7C  0195               	clrf	21	;volatile
  5975  0D7D                     l3341:
  5976                           
  5977                           ;mcc_generated_files/epwm1.c: 75:  PWM1CON = 0x80;
  5978  0D7D  3080               	movlw	128
  5979  0D7E  0094               	movwf	20	;volatile
  5980  0D7F                     l3343:
  5981                           
  5982                           ;mcc_generated_files/epwm1.c: 78:  PSTR1CON = 0x01;
  5983  0D7F  3001               	movlw	1
  5984  0D80  0096               	movwf	22	;volatile
  5985  0D81                     l3345:
  5986                           
  5987                           ;mcc_generated_files/epwm1.c: 81:  CCPR1H = 0x00;
  5988  0D81  0192               	clrf	18	;volatile
  5989                           
  5990                           ;mcc_generated_files/epwm1.c: 84:  CCPR1L = 0x13;
  5991  0D82  3013               	movlw	19
  5992  0D83  0091               	movwf	17	;volatile
  5993  0D84                     l3347:
  5994                           
  5995                           ;mcc_generated_files/epwm1.c: 87:  CCPTMRSbits.C1TSEL = 0x0;
  5996  0D84  30FC               	movlw	-4
  5997  0D85  059E               	andwf	30,f	;volatile
  5998  0D86                     l213:
  5999  0D86  0008               	return
  6000  0D87                     __end_of_EPWM1_Initialize:
  6001                           
  6002                           	psect	text22
  6003  06C7                     __ptext22:	
  6004 ;; *************** function _I2C1_Write1ByteRegister *****************
  6005 ;; Defined at:
  6006 ;;		line 91 in file "mcc_generated_files/examples/i2c1_master_example.c"
  6007 ;; Parameters:    Size  Location     Type
  6008 ;;  address         1    wreg     unsigned char 
  6009 ;;  reg             1   19[BANK0 ] unsigned char 
  6010 ;;  data            1   20[BANK0 ] unsigned char 
  6011 ;; Auto vars:     Size  Location     Type
  6012 ;;  address         1   22[BANK0 ] unsigned char 
  6013 ;; Return value:  Size  Location     Type
  6014 ;;                  1    wreg      void 
  6015 ;; Registers used:
  6016 ;;		wreg, fsr0l, fsr0h, fsr1l, fsr1h, status,2, status,0, pclath, cstack
  6017 ;; Tracked objects:
  6018 ;;		On entry : 0/0
  6019 ;;		On exit  : 0/0
  6020 ;;		Unchanged: 0/0
  6021 ;; Data sizes:     COMMON   BANK0   BANK1   BANK2   BANK3   BANK4   BANK5   BANK6   BANK7   BANK8   BANK9  BANK10  BANK1
      +1  BANK12
  6022 ;;      Params:         0       2       0       0       0       0       0       0       0       0       0       0       
      +0       0
  6023 ;;      Locals:         0       1       0       0       0       0       0       0       0       0       0       0       
      +0       0
  6024 ;;      Temps:          0       1       0       0       0       0       0       0       0       0       0       0       
      +0       0
  6025 ;;      Totals:         0       4       0       0       0       0       0       0       0       0       0       0       
      +0       0
  6026 ;;Total ram usage:        4 bytes
  6027 ;; Hardware stack levels used: 1
  6028 ;; Hardware stack levels required when called: 16
  6029 ;; This function calls:
  6030 ;;		_I2C1_Close
  6031 ;;		_I2C1_MasterWrite
  6032 ;;		_I2C1_Open
  6033 ;;		_I2C1_SetAddressNackCallback
  6034 ;;		_I2C1_SetBuffer
  6035 ;;		_I2C1_SetDataCompleteCallback
  6036 ;; This function is called by:
  6037 ;;		_main
  6038 ;; This function uses a non-reentrant model
  6039 ;;
  6040                           
  6041                           
  6042                           ;psect for function _I2C1_Write1ByteRegister
  6043  06C7                     _I2C1_Write1ByteRegister:
  6044                           
  6045                           ;incstack = 0
  6046 ;; hardware stack exceeded
  6047                           ; Regs used in _I2C1_Write1ByteRegister: [wreg-fsr1h+status,2+status,0+pclath+cstack]
  6048                           ;I2C1_Write1ByteRegister@address stored from wreg
  6049  06C7  0020               	movlb	0	; select bank0
  6050  06C8  00B6               	movwf	I2C1_Write1ByteRegister@address
  6051  06C9                     l3509:
  6052  06C9                     l3511:	
  6053                           ;mcc_generated_files/examples/i2c1_master_example.c: 91: void I2C1_Write1ByteRegister(i2
      +                          c1_address_t address, uint8_t reg, uint8_t data);mcc_generated_files/examples/i2c1_maste
      +                          r_example.c: 92: {;mcc_generated_files/examples/i2c1_master_example.c: 93:     while(!I2
      +                          C1_Open(address));
  6054                           
  6055  06C9  0020               	movlb	0	; select bank0
  6056  06CA  0836               	movf	I2C1_Write1ByteRegister@address,w
  6057  06CB  3186  2654  3186   	fcall	_I2C1_Open
  6058  06CE  3A00               	xorlw	0
  6059  06CF  1903               	skipnz
  6060  06D0  2ED2               	goto	u1331
  6061  06D1  2ED3               	goto	u1330
  6062  06D2                     u1331:
  6063  06D2  2EC9               	goto	l3511
  6064  06D3                     u1330:
  6065  06D3                     l3513:
  6066                           
  6067                           ;mcc_generated_files/examples/i2c1_master_example.c: 94:     I2C1_SetDataCompleteCallbac
      +                          k(wr1RegCompleteHandler,&data);
  6068  06D3  30F1               	movlw	low _wr1RegCompleteHandler
  6069  06D4  0020               	movlb	0	; select bank0
  6070  06D5  00A5               	movwf	I2C1_SetDataCompleteCallback@cb
  6071  06D6  300D               	movlw	high _wr1RegCompleteHandler
  6072  06D7  00A6               	movwf	I2C1_SetDataCompleteCallback@cb+1
  6073  06D8  3034               	movlw	(low (I2C1_Write1ByteRegister@data| 0))& (0+255)
  6074  06D9  00B5               	movwf	??_I2C1_Write1ByteRegister
  6075  06DA  0835               	movf	??_I2C1_Write1ByteRegister,w
  6076  06DB  00A7               	movwf	I2C1_SetDataCompleteCallback@ptr
  6077  06DC  318D  255D  3186   	fcall	_I2C1_SetDataCompleteCallback
  6078  06DF                     l3515:
  6079                           
  6080                           ;mcc_generated_files/examples/i2c1_master_example.c: 95:     I2C1_SetBuffer(&reg,1);
  6081  06DF  3001               	movlw	1
  6082  06E0  0020               	movlb	0	; select bank0
  6083  06E1  00A0               	movwf	I2C1_SetBuffer@bufferSize
  6084  06E2  3000               	movlw	0
  6085  06E3  00A1               	movwf	I2C1_SetBuffer@bufferSize+1
  6086  06E4  3033               	movlw	(low (I2C1_Write1ByteRegister@reg| 0))& (0+255)
  6087  06E5  318D  2595  3186   	fcall	_I2C1_SetBuffer
  6088  06E8                     l3517:
  6089                           
  6090                           ;mcc_generated_files/examples/i2c1_master_example.c: 96:     I2C1_SetAddressNackCallback
      +                          (((void*)0),((void*)0));
  6091  06E8  3000               	movlw	0
  6092  06E9  0020               	movlb	0	; select bank0
  6093  06EA  00A5               	movwf	I2C1_SetAddressNackCallback@cb
  6094  06EB  00A6               	movwf	I2C1_SetAddressNackCallback@cb+1
  6095  06EC  01A7               	clrf	I2C1_SetAddressNackCallback@ptr
  6096  06ED  318D  256B  3186   	fcall	_I2C1_SetAddressNackCallback
  6097  06F0                     l3519:
  6098                           
  6099                           ;mcc_generated_files/examples/i2c1_master_example.c: 97:     I2C1_MasterWrite();
  6100  06F0  318C  24CA  3186   	fcall	_I2C1_MasterWrite
  6101  06F3                     l3521:	
  6102                           ;mcc_generated_files/examples/i2c1_master_example.c: 98:     while(I2C1_BUSY == I2C1_Clo
      +                          se());
  6103                           
  6104  06F3  318F  2720  3186   	fcall	_I2C1_Close
  6105  06F6  3A01               	xorlw	1
  6106  06F7  1903               	skipnz
  6107  06F8  2EFA               	goto	u1341
  6108  06F9  2EFB               	goto	u1340
  6109  06FA                     u1341:
  6110  06FA  2EF3               	goto	l3521
  6111  06FB                     u1340:
  6112  06FB                     l379:
  6113  06FB  0008               	return
  6114  06FC                     __end_of_I2C1_Write1ByteRegister:
  6115                           
  6116                           	psect	text23
  6117  0D6B                     __ptext23:	
  6118 ;; *************** function _I2C1_SetAddressNackCallback *****************
  6119 ;; Defined at:
  6120 ;;		line 283 in file "mcc_generated_files/i2c1_master.c"
  6121 ;; Parameters:    Size  Location     Type
  6122 ;;  cb              2    5[BANK0 ] PTR FTN(PTR void ,)enum 
  6123 ;;		 -> Absolute function(1), 
  6124 ;;  ptr             1    7[BANK0 ] PTR void 
  6125 ;;		 -> NULL(0), 
  6126 ;; Auto vars:     Size  Location     Type
  6127 ;;		None
  6128 ;; Return value:  Size  Location     Type
  6129 ;;                  1    wreg      void 
  6130 ;; Registers used:
  6131 ;;		wreg, fsr1l, fsr1h, status,2, status,0, pclath, cstack
  6132 ;; Tracked objects:
  6133 ;;		On entry : 0/0
  6134 ;;		On exit  : 0/0
  6135 ;;		Unchanged: 0/0
  6136 ;; Data sizes:     COMMON   BANK0   BANK1   BANK2   BANK3   BANK4   BANK5   BANK6   BANK7   BANK8   BANK9  BANK10  BANK1
      +1  BANK12
  6137 ;;      Params:         0       3       0       0       0       0       0       0       0       0       0       0       
      +0       0
  6138 ;;      Locals:         0       0       0       0       0       0       0       0       0       0       0       0       
      +0       0
  6139 ;;      Temps:          0       1       0       0       0       0       0       0       0       0       0       0       
      +0       0
  6140 ;;      Totals:         0       4       0       0       0       0       0       0       0       0       0       0       
      +0       0
  6141 ;;Total ram usage:        4 bytes
  6142 ;; Hardware stack levels used: 1
  6143 ;; Hardware stack levels required when called: 9
  6144 ;; This function calls:
  6145 ;;		_I2C1_SetCallback
  6146 ;; This function is called by:
  6147 ;;		_I2C1_Read1ByteRegister
  6148 ;;		_I2C1_Write1ByteRegister
  6149 ;;		_I2C1_Read2ByteRegister
  6150 ;;		_I2C1_Write2ByteRegister
  6151 ;;		_I2C1_WriteNBytes
  6152 ;;		_I2C1_ReadDataBlock
  6153 ;;		_i2c_write1ByteRegister
  6154 ;;		_i2c_writeNBytes
  6155 ;;		_i2c_read1ByteRegister
  6156 ;;		_i2c_read2ByteRegister
  6157 ;;		_i2c_write2ByteRegister
  6158 ;;		_i2c_readDataBlock
  6159 ;; This function uses a non-reentrant model
  6160 ;;
  6161                           
  6162                           
  6163                           ;psect for function _I2C1_SetAddressNackCallback
  6164  0D6B                     _I2C1_SetAddressNackCallback:
  6165  0D6B                     l3249:	
  6166                           ;incstack = 0
  6167                           ; Regs used in _I2C1_SetAddressNackCallback: [wreg+fsr1l+fsr1h+status,2+status,0+pclath+
      +                          cstack]
  6168                           
  6169                           
  6170                           ;mcc_generated_files/i2c1_master.c: 283: void I2C1_SetAddressNackCallback(i2c1_callback_
      +                          t cb, void *ptr);mcc_generated_files/i2c1_master.c: 284: {;mcc_generated_files/i2c1_mast
      +                          er.c: 285:     I2C1_SetCallback(I2C1_ADDR_NACK, cb, ptr);
  6171  0D6B  0020               	movlb	0	; select bank0
  6172  0D6C  0826               	movf	I2C1_SetAddressNackCallback@cb+1,w
  6173  0D6D  00A1               	movwf	I2C1_SetCallback@cb+1
  6174  0D6E  0825               	movf	I2C1_SetAddressNackCallback@cb,w
  6175  0D6F  00A0               	movwf	I2C1_SetCallback@cb
  6176  0D70  0827               	movf	I2C1_SetAddressNackCallback@ptr,w
  6177  0D71  00A8               	movwf	??_I2C1_SetAddressNackCallback
  6178  0D72  0828               	movf	??_I2C1_SetAddressNackCallback,w
  6179  0D73  00A2               	movwf	I2C1_SetCallback@ptr
  6180  0D74  3002               	movlw	2
  6181  0D75  318F  27AF  318D   	fcall	_I2C1_SetCallback
  6182  0D78                     l573:
  6183  0D78  0008               	return
  6184  0D79                     __end_of_I2C1_SetAddressNackCallback:
  6185                           
  6186                           	psect	text24
  6187  0654                     __ptext24:	
  6188 ;; *************** function _I2C1_Open *****************
  6189 ;; Defined at:
  6190 ;;		line 176 in file "mcc_generated_files/i2c1_master.c"
  6191 ;; Parameters:    Size  Location     Type
  6192 ;;  address         1    wreg     unsigned char 
  6193 ;; Auto vars:     Size  Location     Type
  6194 ;;  address         1    1[BANK0 ] unsigned char 
  6195 ;;  returnValue     1    2[BANK0 ] enum E355
  6196 ;; Return value:  Size  Location     Type
  6197 ;;                  1    wreg      enum E355
  6198 ;; Registers used:
  6199 ;;		wreg, status,2, status,0, pclath, cstack
  6200 ;; Tracked objects:
  6201 ;;		On entry : 0/0
  6202 ;;		On exit  : 0/0
  6203 ;;		Unchanged: 0/0
  6204 ;; Data sizes:     COMMON   BANK0   BANK1   BANK2   BANK3   BANK4   BANK5   BANK6   BANK7   BANK8   BANK9  BANK10  BANK1
      +1  BANK12
  6205 ;;      Params:         0       0       0       0       0       0       0       0       0       0       0       0       
      +0       0
  6206 ;;      Locals:         0       2       0       0       0       0       0       0       0       0       0       0       
      +0       0
  6207 ;;      Temps:          0       1       0       0       0       0       0       0       0       0       0       0       
      +0       0
  6208 ;;      Totals:         0       3       0       0       0       0       0       0       0       0       0       0       
      +0       0
  6209 ;;Total ram usage:        3 bytes
  6210 ;; Hardware stack levels used: 1
  6211 ;; Hardware stack levels required when called: 9
  6212 ;; This function calls:
  6213 ;;		_I2C1_MasterClearIrq
  6214 ;;		_I2C1_MasterOpen
  6215 ;; This function is called by:
  6216 ;;		_I2C1_Read1ByteRegister
  6217 ;;		_I2C1_Write1ByteRegister
  6218 ;;		_I2C1_Read2ByteRegister
  6219 ;;		_I2C1_Write2ByteRegister
  6220 ;;		_I2C1_WriteNBytes
  6221 ;;		_I2C1_ReadNBytes
  6222 ;;		_I2C1_ReadDataBlock
  6223 ;;		_i2c_write1ByteRegister
  6224 ;;		_i2c_writeNBytes
  6225 ;;		_i2c_read1ByteRegister
  6226 ;;		_i2c_read2ByteRegister
  6227 ;;		_i2c_write2ByteRegister
  6228 ;;		_i2c_readDataBlock
  6229 ;;		_i2c_readNBytes
  6230 ;; This function uses a non-reentrant model
  6231 ;;
  6232                           
  6233                           
  6234                           ;psect for function _I2C1_Open
  6235  0654                     _I2C1_Open:
  6236                           
  6237                           ;incstack = 0
  6238                           ; Regs used in _I2C1_Open: [wreg+status,2+status,0+pclath+cstack]
  6239                           ;I2C1_Open@address stored from wreg
  6240  0654  0020               	movlb	0	; select bank0
  6241  0655  00A1               	movwf	I2C1_Open@address
  6242  0656                     l3217:
  6243                           
  6244                           ;mcc_generated_files/i2c1_master.c: 176: i2c1_error_t I2C1_Open(i2c1_address_t address);
      +                          mcc_generated_files/i2c1_master.c: 177: {;mcc_generated_files/i2c1_master.c: 178:     i2
      +                          c1_error_t returnValue = I2C1_BUSY;
  6245  0656  01A2               	clrf	I2C1_Open@returnValue
  6246  0657  0AA2               	incf	I2C1_Open@returnValue,f
  6247                           
  6248                           ;mcc_generated_files/i2c1_master.c: 180:     if(!I2C1_Status.inUse)
  6249  0658  1968               	btfsc	_I2C1_Status+28,2
  6250  0659  2E5B               	goto	u1171
  6251  065A  2E5C               	goto	u1170
  6252  065B                     u1171:
  6253  065B  2E8D               	goto	l540
  6254  065C                     u1170:
  6255  065C                     l3219:
  6256                           
  6257                           ;mcc_generated_files/i2c1_master.c: 181:     {;mcc_generated_files/i2c1_master.c: 182:  
      +                                 I2C1_Status.address = address;
  6258  065C  0821               	movf	I2C1_Open@address,w
  6259  065D  00A0               	movwf	??_I2C1_Open
  6260  065E  0820               	movf	??_I2C1_Open,w
  6261  065F  00E2               	movwf	_I2C1_Status+22
  6262  0660                     l3221:
  6263                           
  6264                           ;mcc_generated_files/i2c1_master.c: 183:         I2C1_Status.busy = 0;
  6265  0660  10E8               	bcf	_I2C1_Status+28,1
  6266  0661                     l3223:
  6267                           
  6268                           ;mcc_generated_files/i2c1_master.c: 184:         I2C1_Status.inUse = 1;
  6269  0661  1568               	bsf	_I2C1_Status+28,2
  6270  0662                     l3225:
  6271                           
  6272                           ;mcc_generated_files/i2c1_master.c: 185:         I2C1_Status.addressNackCheck = 0;
  6273  0662  1068               	bcf	_I2C1_Status+28,0
  6274                           
  6275                           ;mcc_generated_files/i2c1_master.c: 186:         I2C1_Status.state = I2C1_RESET;
  6276  0663  300E               	movlw	14
  6277  0664  00A0               	movwf	??_I2C1_Open
  6278  0665  0820               	movf	??_I2C1_Open,w
  6279  0666  00E6               	movwf	_I2C1_Status+26
  6280                           
  6281                           ;mcc_generated_files/i2c1_master.c: 187:         I2C1_Status.time_out_value = 500;
  6282  0667  30F4               	movlw	244
  6283  0668  00E0               	movwf	_I2C1_Status+20
  6284  0669  3001               	movlw	1
  6285  066A  00E1               	movwf	_I2C1_Status+21
  6286  066B                     l3227:
  6287                           
  6288                           ;mcc_generated_files/i2c1_master.c: 188:         I2C1_Status.bufferFree = 1;
  6289  066B  15E8               	bsf	_I2C1_Status+28,3
  6290                           
  6291                           ;mcc_generated_files/i2c1_master.c: 191:         I2C1_Status.callbackTable[I2C1_DATA_COM
      +                          PLETE]=I2C1_CallbackReturnStop;
  6292  066C  3070               	movlw	low _I2C1_CallbackReturnStop
  6293  066D  00CC               	movwf	_I2C1_Status
  6294  066E  300C               	movlw	high _I2C1_CallbackReturnStop
  6295  066F  00CD               	movwf	_I2C1_Status+1
  6296  0670                     l3229:
  6297                           
  6298                           ;mcc_generated_files/i2c1_master.c: 192:         I2C1_Status.callbackPayload[I2C1_DATA_C
      +                          OMPLETE] = ((void*)0);
  6299  0670  01D8               	clrf	low ((_I2C1_Status| 0+12))
  6300  0671                     l3231:
  6301                           
  6302                           ;mcc_generated_files/i2c1_master.c: 193:         I2C1_Status.callbackTable[I2C1_WRITE_CO
      +                          LLISION]=I2C1_CallbackReturnStop;
  6303  0671  3070               	movlw	low _I2C1_CallbackReturnStop
  6304  0672  00CE               	movwf	low ((_I2C1_Status| 0+2))
  6305  0673  300C               	movlw	high _I2C1_CallbackReturnStop
  6306  0674  00CF               	movwf	(low ((_I2C1_Status| 0+2))+1)
  6307                           
  6308                           ;mcc_generated_files/i2c1_master.c: 194:         I2C1_Status.callbackPayload[I2C1_WRITE_
      +                          COLLISION] = ((void*)0);
  6309  0675  01D9               	clrf	low ((_I2C1_Status| 0+13))
  6310  0676                     l3233:
  6311                           
  6312                           ;mcc_generated_files/i2c1_master.c: 195:         I2C1_Status.callbackTable[I2C1_ADDR_NAC
      +                          K]=I2C1_CallbackReturnStop;
  6313  0676  3070               	movlw	low _I2C1_CallbackReturnStop
  6314  0677  00D0               	movwf	low ((_I2C1_Status| 0+4))
  6315  0678  300C               	movlw	high _I2C1_CallbackReturnStop
  6316  0679  00D1               	movwf	(low ((_I2C1_Status| 0+4))+1)
  6317  067A                     l3235:
  6318                           
  6319                           ;mcc_generated_files/i2c1_master.c: 196:         I2C1_Status.callbackPayload[I2C1_ADDR_N
      +                          ACK] = ((void*)0);
  6320  067A  01DA               	clrf	low ((_I2C1_Status| 0+14))
  6321                           
  6322                           ;mcc_generated_files/i2c1_master.c: 197:         I2C1_Status.callbackTable[I2C1_DATA_NAC
      +                          K]=I2C1_CallbackReturnStop;
  6323  067B  3070               	movlw	low _I2C1_CallbackReturnStop
  6324  067C  00D2               	movwf	low ((_I2C1_Status| 0+6))
  6325  067D  300C               	movlw	high _I2C1_CallbackReturnStop
  6326  067E  00D3               	movwf	(low ((_I2C1_Status| 0+6))+1)
  6327  067F                     l3237:
  6328                           
  6329                           ;mcc_generated_files/i2c1_master.c: 198:         I2C1_Status.callbackPayload[I2C1_DATA_N
      +                          ACK] = ((void*)0);
  6330  067F  01DB               	clrf	low ((_I2C1_Status| 0+15))
  6331  0680                     l3239:
  6332                           
  6333                           ;mcc_generated_files/i2c1_master.c: 199:         I2C1_Status.callbackTable[I2C1_TIMEOUT]
      +                          =I2C1_CallbackReturnReset;
  6334  0680  3002               	movlw	low _I2C1_CallbackReturnReset
  6335  0681  00D4               	movwf	low ((_I2C1_Status| 0+8))
  6336  0682  3000               	movlw	high _I2C1_CallbackReturnReset
  6337  0683  00D5               	movwf	(low ((_I2C1_Status| 0+8))+1)
  6338                           
  6339                           ;mcc_generated_files/i2c1_master.c: 200:         I2C1_Status.callbackPayload[I2C1_TIMEOU
      +                          T] = ((void*)0);
  6340  0684  01DC               	clrf	low ((_I2C1_Status| 0+16))
  6341  0685                     l3241:
  6342                           
  6343                           ;mcc_generated_files/i2c1_master.c: 202:         I2C1_MasterClearIrq();
  6344  0685  318C  2472  3186   	fcall	_I2C1_MasterClearIrq
  6345  0688                     l3243:
  6346                           
  6347                           ;mcc_generated_files/i2c1_master.c: 203:         I2C1_MasterOpen();
  6348  0688  318D  2542  3186   	fcall	_I2C1_MasterOpen
  6349  068B                     l3245:
  6350                           
  6351                           ;mcc_generated_files/i2c1_master.c: 204:         returnValue = I2C1_NOERR;
  6352  068B  0020               	movlb	0	; select bank0
  6353  068C  01A2               	clrf	I2C1_Open@returnValue
  6354  068D                     l540:	
  6355                           ;mcc_generated_files/i2c1_master.c: 205:     }
  6356                           
  6357                           
  6358                           ;mcc_generated_files/i2c1_master.c: 206:     return returnValue;
  6359  068D  0822               	movf	I2C1_Open@returnValue,w
  6360  068E                     l541:
  6361  068E  0008               	return
  6362  068F                     __end_of_I2C1_Open:
  6363                           
  6364                           	psect	text25
  6365  0D42                     __ptext25:	
  6366 ;; *************** function _I2C1_MasterOpen *****************
  6367 ;; Defined at:
  6368 ;;		line 543 in file "mcc_generated_files/i2c1_master.c"
  6369 ;; Parameters:    Size  Location     Type
  6370 ;;		None
  6371 ;; Auto vars:     Size  Location     Type
  6372 ;;		None
  6373 ;; Return value:  Size  Location     Type
  6374 ;;                  1    wreg      _Bool 
  6375 ;; Registers used:
  6376 ;;		wreg, status,2
  6377 ;; Tracked objects:
  6378 ;;		On entry : 0/0
  6379 ;;		On exit  : 0/0
  6380 ;;		Unchanged: 0/0
  6381 ;; Data sizes:     COMMON   BANK0   BANK1   BANK2   BANK3   BANK4   BANK5   BANK6   BANK7   BANK8   BANK9  BANK10  BANK1
      +1  BANK12
  6382 ;;      Params:         0       0       0       0       0       0       0       0       0       0       0       0       
      +0       0
  6383 ;;      Locals:         0       0       0       0       0       0       0       0       0       0       0       0       
      +0       0
  6384 ;;      Temps:          0       0       0       0       0       0       0       0       0       0       0       0       
      +0       0
  6385 ;;      Totals:         0       0       0       0       0       0       0       0       0       0       0       0       
      +0       0
  6386 ;;Total ram usage:        0 bytes
  6387 ;; Hardware stack levels used: 1
  6388 ;; Hardware stack levels required when called: 8
  6389 ;; This function calls:
  6390 ;;		Nothing
  6391 ;; This function is called by:
  6392 ;;		_I2C1_Open
  6393 ;; This function uses a non-reentrant model
  6394 ;;
  6395                           
  6396                           
  6397                           ;psect for function _I2C1_MasterOpen
  6398  0D42                     _I2C1_MasterOpen:
  6399  0D42                     l3153:	
  6400                           ;incstack = 0
  6401                           ; Regs used in _I2C1_MasterOpen: [wreg+status,2]
  6402                           
  6403                           
  6404                           ;mcc_generated_files/i2c1_master.c: 545:     if(!SSP1CON1bits.SSPEN)
  6405  0D42  0024               	movlb	4	; select bank4
  6406  0D43  1A95               	btfsc	21,5	;volatile
  6407  0D44  2D46               	goto	u1121
  6408  0D45  2D47               	goto	u1120
  6409  0D46                     u1121:
  6410  0D46  2D4E               	goto	l706
  6411  0D47                     u1120:
  6412  0D47                     l3155:
  6413                           
  6414                           ;mcc_generated_files/i2c1_master.c: 546:     {;mcc_generated_files/i2c1_master.c: 547:  
      +                                 SSP1STAT = 0x00;
  6415  0D47  0194               	clrf	20	;volatile
  6416  0D48                     l3157:
  6417                           
  6418                           ;mcc_generated_files/i2c1_master.c: 548:         SSP1CON1 = 0x08;
  6419  0D48  3008               	movlw	8
  6420  0D49  0095               	movwf	21	;volatile
  6421  0D4A                     l3159:
  6422                           
  6423                           ;mcc_generated_files/i2c1_master.c: 549:         SSP1CON2 = 0x00;
  6424  0D4A  0196               	clrf	22	;volatile
  6425                           
  6426                           ;mcc_generated_files/i2c1_master.c: 550:         SSP1ADD = 0x4F;
  6427  0D4B  304F               	movlw	79
  6428  0D4C  0092               	movwf	18	;volatile
  6429  0D4D                     l3161:
  6430                           
  6431                           ;mcc_generated_files/i2c1_master.c: 551:         SSP1CON1bits.SSPEN = 1;
  6432  0D4D  1695               	bsf	21,5	;volatile
  6433  0D4E                     l706:
  6434  0D4E  0008               	return
  6435  0D4F                     __end_of_I2C1_MasterOpen:
  6436                           
  6437                           	psect	text26
  6438  0CCA                     __ptext26:	
  6439 ;; *************** function _I2C1_MasterWrite *****************
  6440 ;; Defined at:
  6441 ;;		line 251 in file "mcc_generated_files/i2c1_master.c"
  6442 ;; Parameters:    Size  Location     Type
  6443 ;;		None
  6444 ;; Auto vars:     Size  Location     Type
  6445 ;;		None
  6446 ;; Return value:  Size  Location     Type
  6447 ;;                  1    wreg      enum E355
  6448 ;; Registers used:
  6449 ;;		wreg, fsr0l, fsr0h, fsr1l, fsr1h, status,2, status,0, pclath, cstack
  6450 ;; Tracked objects:
  6451 ;;		On entry : 0/0
  6452 ;;		On exit  : 0/0
  6453 ;;		Unchanged: 0/0
  6454 ;; Data sizes:     COMMON   BANK0   BANK1   BANK2   BANK3   BANK4   BANK5   BANK6   BANK7   BANK8   BANK9  BANK10  BANK1
      +1  BANK12
  6455 ;;      Params:         0       0       0       0       0       0       0       0       0       0       0       0       
      +0       0
  6456 ;;      Locals:         0       0       0       0       0       0       0       0       0       0       0       0       
      +0       0
  6457 ;;      Temps:          0       0       0       0       0       0       0       0       0       0       0       0       
      +0       0
  6458 ;;      Totals:         0       0       0       0       0       0       0       0       0       0       0       0       
      +0       0
  6459 ;;Total ram usage:        0 bytes
  6460 ;; Hardware stack levels used: 1
  6461 ;; Hardware stack levels required when called: 15
  6462 ;; This function calls:
  6463 ;;		_I2C1_MasterOperation
  6464 ;; This function is called by:
  6465 ;;		_I2C1_Read1ByteRegister
  6466 ;;		_I2C1_Write1ByteRegister
  6467 ;;		_I2C1_Read2ByteRegister
  6468 ;;		_I2C1_Write2ByteRegister
  6469 ;;		_I2C1_WriteNBytes
  6470 ;;		_I2C1_ReadDataBlock
  6471 ;;		_i2c_write1ByteRegister
  6472 ;;		_i2c_writeNBytes
  6473 ;;		_i2c_read1ByteRegister
  6474 ;;		_i2c_read2ByteRegister
  6475 ;;		_i2c_write2ByteRegister
  6476 ;;		_i2c_readDataBlock
  6477 ;; This function uses a non-reentrant model
  6478 ;;
  6479                           
  6480                           
  6481                           ;psect for function _I2C1_MasterWrite
  6482  0CCA                     _I2C1_MasterWrite:
  6483  0CCA                     l3251:	
  6484                           ;incstack = 0
  6485 ;; hardware stack exceeded
  6486                           ; Regs used in _I2C1_MasterWrite: [wreg-fsr1h+status,2+status,0+pclath+cstack]
  6487                           
  6488                           
  6489                           ;mcc_generated_files/i2c1_master.c: 253:     return I2C1_MasterOperation(0);;	Return val
      +                          ue of _I2C1_MasterWrite is never used
  6490  0CCA  3000               	movlw	0
  6491  0CCB  318F  2790  318C   	fcall	_I2C1_MasterOperation
  6492  0CCE                     l557:
  6493  0CCE  0008               	return
  6494  0CCF                     __end_of_I2C1_MasterWrite:
  6495                           
  6496                           	psect	text27
  6497  0F90                     __ptext27:	
  6498 ;; *************** function _I2C1_MasterOperation *****************
  6499 ;; Defined at:
  6500 ;;		line 224 in file "mcc_generated_files/i2c1_master.c"
  6501 ;; Parameters:    Size  Location     Type
  6502 ;;  read            1    wreg     _Bool 
  6503 ;; Auto vars:     Size  Location     Type
  6504 ;;  read            1   17[BANK0 ] _Bool 
  6505 ;;  returnValue     1   18[BANK0 ] enum E355
  6506 ;; Return value:  Size  Location     Type
  6507 ;;                  1    wreg      enum E355
  6508 ;; Registers used:
  6509 ;;		wreg, fsr0l, fsr0h, fsr1l, fsr1h, status,2, status,0, pclath, cstack
  6510 ;; Tracked objects:
  6511 ;;		On entry : 0/0
  6512 ;;		On exit  : 0/0
  6513 ;;		Unchanged: 0/0
  6514 ;; Data sizes:     COMMON   BANK0   BANK1   BANK2   BANK3   BANK4   BANK5   BANK6   BANK7   BANK8   BANK9  BANK10  BANK1
      +1  BANK12
  6515 ;;      Params:         0       0       0       0       0       0       0       0       0       0       0       0       
      +0       0
  6516 ;;      Locals:         0       2       0       0       0       0       0       0       0       0       0       0       
      +0       0
  6517 ;;      Temps:          0       1       0       0       0       0       0       0       0       0       0       0       
      +0       0
  6518 ;;      Totals:         0       3       0       0       0       0       0       0       0       0       0       0       
      +0       0
  6519 ;;Total ram usage:        3 bytes
  6520 ;; Hardware stack levels used: 1
  6521 ;; Hardware stack levels required when called: 14
  6522 ;; This function calls:
  6523 ;;		_I2C1_MasterStart
  6524 ;;		_I2C1_Poller
  6525 ;; This function is called by:
  6526 ;;		_I2C1_MasterWrite
  6527 ;;		_I2C1_MasterRead
  6528 ;; This function uses a non-reentrant model
  6529 ;;
  6530                           
  6531                           
  6532                           ;psect for function _I2C1_MasterOperation
  6533  0F90                     _I2C1_MasterOperation:
  6534                           
  6535                           ;incstack = 0
  6536 ;; hardware stack exceeded
  6537                           ; Regs used in _I2C1_MasterOperation: [wreg-fsr1h+status,2+status,0+pclath+cstack]
  6538                           ;I2C1_MasterOperation@read stored from wreg
  6539  0F90  0020               	movlb	0	; select bank0
  6540  0F91  00B1               	movwf	I2C1_MasterOperation@read
  6541  0F92                     l3169:
  6542                           
  6543                           ;mcc_generated_files/i2c1_master.c: 224: i2c1_error_t I2C1_MasterOperation(_Bool read);m
      +                          cc_generated_files/i2c1_master.c: 225: {;mcc_generated_files/i2c1_master.c: 226:     i2c
      +                          1_error_t returnValue = I2C1_BUSY;
  6544  0F92  01B2               	clrf	I2C1_MasterOperation@returnValue
  6545  0F93  0AB2               	incf	I2C1_MasterOperation@returnValue,f
  6546                           
  6547                           ;mcc_generated_files/i2c1_master.c: 227:     if(!I2C1_Status.busy)
  6548  0F94  18E8               	btfsc	_I2C1_Status+28,1
  6549  0F95  2F97               	goto	u1131
  6550  0F96  2F98               	goto	u1130
  6551  0F97                     u1131:
  6552  0F97  2FAC               	goto	l3185
  6553  0F98                     u1130:
  6554  0F98                     l3171:
  6555                           
  6556                           ;mcc_generated_files/i2c1_master.c: 228:     {;mcc_generated_files/i2c1_master.c: 229:  
      +                                 I2C1_Status.busy = 1;
  6557  0F98  14E8               	bsf	_I2C1_Status+28,1
  6558  0F99                     l3173:
  6559                           
  6560                           ;mcc_generated_files/i2c1_master.c: 230:         returnValue = I2C1_NOERR;
  6561  0F99  01B2               	clrf	I2C1_MasterOperation@returnValue
  6562  0F9A                     l3175:
  6563                           
  6564                           ;mcc_generated_files/i2c1_master.c: 232:         if(read)
  6565  0F9A  0831               	movf	I2C1_MasterOperation@read,w
  6566  0F9B  1903               	btfsc	3,2
  6567  0F9C  2F9E               	goto	u1141
  6568  0F9D  2F9F               	goto	u1140
  6569  0F9E                     u1141:
  6570  0F9E  2FA2               	goto	l3179
  6571  0F9F                     u1140:
  6572  0F9F                     l3177:
  6573                           
  6574                           ;mcc_generated_files/i2c1_master.c: 233:         {;mcc_generated_files/i2c1_master.c: 23
      +                          4:             I2C1_Status.state = I2C1_SEND_ADR_READ;
  6575  0F9F  01E6               	clrf	_I2C1_Status+26
  6576  0FA0  0AE6               	incf	_I2C1_Status+26,f
  6577                           
  6578                           ;mcc_generated_files/i2c1_master.c: 235:         }
  6579  0FA1  2FA6               	goto	l3181
  6580  0FA2                     l3179:
  6581                           
  6582                           ;mcc_generated_files/i2c1_master.c: 237:         {;mcc_generated_files/i2c1_master.c: 23
      +                          8:             I2C1_Status.state = I2C1_SEND_ADR_WRITE;
  6583  0FA2  3002               	movlw	2
  6584  0FA3  00B0               	movwf	??_I2C1_MasterOperation
  6585  0FA4  0830               	movf	??_I2C1_MasterOperation,w
  6586  0FA5  00E6               	movwf	_I2C1_Status+26
  6587  0FA6                     l3181:
  6588                           
  6589                           ;mcc_generated_files/i2c1_master.c: 240:         I2C1_MasterStart();
  6590  0FA6  318C  247B  318F   	fcall	_I2C1_MasterStart
  6591  0FA9                     l3183:
  6592                           
  6593                           ;mcc_generated_files/i2c1_master.c: 241:         I2C1_Poller();
  6594  0FA9  318D  2535  318F   	fcall	_I2C1_Poller
  6595  0FAC                     l3185:
  6596                           
  6597                           ;mcc_generated_files/i2c1_master.c: 243:     return returnValue;
  6598  0FAC  0020               	movlb	0	; select bank0
  6599  0FAD  0832               	movf	I2C1_MasterOperation@returnValue,w
  6600  0FAE                     l551:
  6601  0FAE  0008               	return
  6602  0FAF                     __end_of_I2C1_MasterOperation:
  6603                           
  6604                           	psect	text28
  6605  0D35                     __ptext28:	
  6606 ;; *************** function _I2C1_Poller *****************
  6607 ;; Defined at:
  6608 ;;		line 312 in file "mcc_generated_files/i2c1_master.c"
  6609 ;; Parameters:    Size  Location     Type
  6610 ;;		None
  6611 ;; Auto vars:     Size  Location     Type
  6612 ;;		None
  6613 ;; Return value:  Size  Location     Type
  6614 ;;                  1    wreg      void 
  6615 ;; Registers used:
  6616 ;;		wreg, fsr0l, fsr0h, fsr1l, fsr1h, status,2, status,0, pclath, cstack
  6617 ;; Tracked objects:
  6618 ;;		On entry : 0/0
  6619 ;;		On exit  : 0/0
  6620 ;;		Unchanged: 0/0
  6621 ;; Data sizes:     COMMON   BANK0   BANK1   BANK2   BANK3   BANK4   BANK5   BANK6   BANK7   BANK8   BANK9  BANK10  BANK1
      +1  BANK12
  6622 ;;      Params:         0       0       0       0       0       0       0       0       0       0       0       0       
      +0       0
  6623 ;;      Locals:         0       0       0       0       0       0       0       0       0       0       0       0       
      +0       0
  6624 ;;      Temps:          0       0       0       0       0       0       0       0       0       0       0       0       
      +0       0
  6625 ;;      Totals:         0       0       0       0       0       0       0       0       0       0       0       0       
      +0       0
  6626 ;;Total ram usage:        0 bytes
  6627 ;; Hardware stack levels used: 1
  6628 ;; Hardware stack levels required when called: 13
  6629 ;; This function calls:
  6630 ;;		_I2C1_MasterFsm
  6631 ;;		_I2C1_MasterWaitForEvent
  6632 ;; This function is called by:
  6633 ;;		_I2C1_MasterOperation
  6634 ;; This function uses a non-reentrant model
  6635 ;;
  6636                           
  6637                           
  6638                           ;psect for function _I2C1_Poller
  6639  0D35                     _I2C1_Poller:
  6640  0D35                     l3123:	
  6641                           ;incstack = 0
  6642 ;; hardware stack exceeded
  6643                           ; Regs used in _I2C1_Poller: [wreg-fsr1h+status,2+status,0+pclath+cstack]
  6644                           
  6645                           
  6646                           ;mcc_generated_files/i2c1_master.c: 314:     while(I2C1_Status.busy)
  6647  0D35  2D3C               	goto	l3129
  6648  0D36                     l3125:
  6649                           
  6650                           ;mcc_generated_files/i2c1_master.c: 315:     {;mcc_generated_files/i2c1_master.c: 316:  
      +                                 I2C1_MasterWaitForEvent();
  6651  0D36  318C  24DB  318D   	fcall	_I2C1_MasterWaitForEvent
  6652  0D39                     l3127:
  6653                           
  6654                           ;mcc_generated_files/i2c1_master.c: 317:         I2C1_MasterFsm();
  6655  0D39  3187  27BA  318D   	fcall	_I2C1_MasterFsm
  6656  0D3C                     l3129:
  6657                           
  6658                           ;mcc_generated_files/i2c1_master.c: 314:     while(I2C1_Status.busy)
  6659  0D3C  0020               	movlb	0	; select bank0
  6660  0D3D  18E8               	btfsc	_I2C1_Status+28,1
  6661  0D3E  2D40               	goto	u1071
  6662  0D3F  2D41               	goto	u1070
  6663  0D40                     u1071:
  6664  0D40  2D36               	goto	l3125
  6665  0D41                     u1070:
  6666  0D41                     l590:
  6667  0D41  0008               	return
  6668  0D42                     __end_of_I2C1_Poller:
  6669                           
  6670                           	psect	text29
  6671  0CDB                     __ptext29:	
  6672 ;; *************** function _I2C1_MasterWaitForEvent *****************
  6673 ;; Defined at:
  6674 ;;		line 650 in file "mcc_generated_files/i2c1_master.c"
  6675 ;; Parameters:    Size  Location     Type
  6676 ;;		None
  6677 ;; Auto vars:     Size  Location     Type
  6678 ;;		None
  6679 ;; Return value:  Size  Location     Type
  6680 ;;                  1    wreg      void 
  6681 ;; Registers used:
  6682 ;;		None
  6683 ;; Tracked objects:
  6684 ;;		On entry : 0/0
  6685 ;;		On exit  : 0/0
  6686 ;;		Unchanged: 0/0
  6687 ;; Data sizes:     COMMON   BANK0   BANK1   BANK2   BANK3   BANK4   BANK5   BANK6   BANK7   BANK8   BANK9  BANK10  BANK1
      +1  BANK12
  6688 ;;      Params:         0       0       0       0       0       0       0       0       0       0       0       0       
      +0       0
  6689 ;;      Locals:         0       0       0       0       0       0       0       0       0       0       0       0       
      +0       0
  6690 ;;      Temps:          0       0       0       0       0       0       0       0       0       0       0       0       
      +0       0
  6691 ;;      Totals:         0       0       0       0       0       0       0       0       0       0       0       0       
      +0       0
  6692 ;;Total ram usage:        0 bytes
  6693 ;; Hardware stack levels used: 1
  6694 ;; Hardware stack levels required when called: 8
  6695 ;; This function calls:
  6696 ;;		Nothing
  6697 ;; This function is called by:
  6698 ;;		_I2C1_Poller
  6699 ;; This function uses a non-reentrant model
  6700 ;;
  6701                           
  6702                           
  6703                           ;psect for function _I2C1_MasterWaitForEvent
  6704  0CDB                     _I2C1_MasterWaitForEvent:
  6705  0CDB                     l763:	
  6706                           ;incstack = 0
  6707                           ; Regs used in _I2C1_MasterWaitForEvent: []
  6708                           ;mcc_generated_files/i2c1_master.c: 652:     while(1)
  6709                           
  6710                           
  6711                           ;mcc_generated_files/i2c1_master.c: 653:     {;mcc_generated_files/i2c1_master.c: 654:  
      +                                 if(PIR1bits.SSP1IF)
  6712  0CDB  0020               	movlb	0	; select bank0
  6713  0CDC  1D91               	btfss	17,3	;volatile
  6714  0CDD  2CDF               	goto	u1031
  6715  0CDE  2CE0               	goto	u1030
  6716  0CDF                     u1031:
  6717  0CDF  2CDB               	goto	l763
  6718  0CE0                     u1030:
  6719  0CE0                     l767:
  6720  0CE0  0008               	return
  6721  0CE1                     __end_of_I2C1_MasterWaitForEvent:
  6722                           
  6723                           	psect	text30
  6724  07BA                     __ptext30:	
  6725 ;; *************** function _I2C1_MasterFsm *****************
  6726 ;; Defined at:
  6727 ;;		line 321 in file "mcc_generated_files/i2c1_master.c"
  6728 ;; Parameters:    Size  Location     Type
  6729 ;;		None
  6730 ;; Auto vars:     Size  Location     Type
  6731 ;;		None
  6732 ;; Return value:  Size  Location     Type
  6733 ;;                  1    wreg      void 
  6734 ;; Registers used:
  6735 ;;		wreg, fsr0l, fsr0h, fsr1l, fsr1h, status,2, status,0, pclath, cstack
  6736 ;; Tracked objects:
  6737 ;;		On entry : 0/0
  6738 ;;		On exit  : 0/0
  6739 ;;		Unchanged: 0/0
  6740 ;; Data sizes:     COMMON   BANK0   BANK1   BANK2   BANK3   BANK4   BANK5   BANK6   BANK7   BANK8   BANK9  BANK10  BANK1
      +1  BANK12
  6741 ;;      Params:         0       0       0       0       0       0       0       0       0       0       0       0       
      +0       0
  6742 ;;      Locals:         0       0       0       0       0       0       0       0       0       0       0       0       
      +0       0
  6743 ;;      Temps:          0       3       0       0       0       0       0       0       0       0       0       0       
      +0       0
  6744 ;;      Totals:         0       3       0       0       0       0       0       0       0       0       0       0       
      +0       0
  6745 ;;Total ram usage:        3 bytes
  6746 ;; Hardware stack levels used: 1
  6747 ;; Hardware stack levels required when called: 12
  6748 ;; This function calls:
  6749 ;;		_I2C1_DO_ADDRESS_NACK
  6750 ;;		_I2C1_DO_IDLE
  6751 ;;		_I2C1_DO_RCEN
  6752 ;;		_I2C1_DO_RESET
  6753 ;;		_I2C1_DO_RX
  6754 ;;		_I2C1_DO_RX_ACK
  6755 ;;		_I2C1_DO_RX_NACK_RESTART
  6756 ;;		_I2C1_DO_RX_NACK_STOP
  6757 ;;		_I2C1_DO_SEND_ADR_READ
  6758 ;;		_I2C1_DO_SEND_ADR_WRITE
  6759 ;;		_I2C1_DO_SEND_RESTART
  6760 ;;		_I2C1_DO_SEND_RESTART_READ
  6761 ;;		_I2C1_DO_SEND_RESTART_WRITE
  6762 ;;		_I2C1_DO_SEND_STOP
  6763 ;;		_I2C1_DO_TX
  6764 ;;		_I2C1_DO_TX_EMPTY
  6765 ;;		_I2C1_MasterClearIrq
  6766 ;;		_I2C1_MasterIsNack
  6767 ;; This function is called by:
  6768 ;;		_I2C1_Poller
  6769 ;; This function uses a non-reentrant model
  6770 ;;
  6771                           
  6772                           
  6773                           ;psect for function _I2C1_MasterFsm
  6774  07BA                     _I2C1_MasterFsm:
  6775  07BA                     l3103:	
  6776                           ;incstack = 0
  6777 ;; hardware stack exceeded
  6778                           ; Regs used in _I2C1_MasterFsm: [wreg-fsr1h+status,2+status,0+pclath+cstack]
  6779                           
  6780                           
  6781                           ;mcc_generated_files/i2c1_master.c: 323:     I2C1_MasterClearIrq();
  6782  07BA  318C  2472  3187   	fcall	_I2C1_MasterClearIrq
  6783  07BD                     l3105:
  6784                           
  6785                           ;mcc_generated_files/i2c1_master.c: 325:     if(I2C1_Status.addressNackCheck && I2C1_Mas
      +                          terIsNack())
  6786  07BD  0020               	movlb	0	; select bank0
  6787  07BE  1C68               	btfss	_I2C1_Status+28,0
  6788  07BF  2FC1               	goto	u1041
  6789  07C0  2FC2               	goto	u1040
  6790  07C1                     u1041:
  6791  07C1  2FCF               	goto	l3111
  6792  07C2                     u1040:
  6793  07C2                     l3107:
  6794  07C2  318C  24D5  3187   	fcall	_I2C1_MasterIsNack
  6795  07C5  3A00               	xorlw	0
  6796  07C6  1903               	skipnz
  6797  07C7  2FC9               	goto	u1051
  6798  07C8  2FCA               	goto	u1050
  6799  07C9                     u1051:
  6800  07C9  2FCF               	goto	l3111
  6801  07CA                     u1050:
  6802  07CA                     l3109:
  6803                           
  6804                           ;mcc_generated_files/i2c1_master.c: 326:     {;mcc_generated_files/i2c1_master.c: 327:  
      +                                 I2C1_Status.state = I2C1_ADDRESS_NACK;
  6805  07CA  300F               	movlw	15
  6806  07CB  0020               	movlb	0	; select bank0
  6807  07CC  00AD               	movwf	??_I2C1_MasterFsm
  6808  07CD  082D               	movf	??_I2C1_MasterFsm,w
  6809  07CE  00E6               	movwf	_I2C1_Status+26
  6810  07CF                     l3111:
  6811                           
  6812                           ;mcc_generated_files/i2c1_master.c: 329:     I2C1_Status.state = i2c1_fsmStateTable[I2C1
      +                          _Status.state]();
  6813  07CF  0020               	movlb	0	; select bank0
  6814  07D0  0866               	movf	_I2C1_Status+26,w
  6815  07D1  00AD               	movwf	??_I2C1_MasterFsm
  6816  07D2  01AE               	clrf	??_I2C1_MasterFsm+1
  6817  07D3  35AD               	lslf	??_I2C1_MasterFsm,f
  6818  07D4  0DAE               	rlf	??_I2C1_MasterFsm+1,f
  6819  07D5  3000               	movlw	low (_i2c1_fsmStateTable| (0+32768))
  6820  07D6  072D               	addwf	??_I2C1_MasterFsm,w
  6821  07D7  0084               	movwf	4
  6822  07D8  3090               	movlw	high (_i2c1_fsmStateTable| (0+32768))
  6823  07D9  3D2E               	addwfc	??_I2C1_MasterFsm+1,w
  6824  07DA  0085               	movwf	5
  6825  07DB  3F01               	moviw [1]fsr0
  6826  07DC  008A               	movwf	10
  6827  07DD  3F00               	moviw [0]fsr0
  6828  07DE  000A               	callw
  6829  07DF  3187               	pagesel	$
  6830  07E0  0020               	movlb	0	; select bank0
  6831  07E1  00AF               	movwf	??_I2C1_MasterFsm+2
  6832  07E2  082F               	movf	??_I2C1_MasterFsm+2,w
  6833  07E3  00E6               	movwf	_I2C1_Status+26
  6834  07E4                     l594:
  6835  07E4  0008               	return
  6836  07E5                     __end_of_I2C1_MasterFsm:
  6837                           
  6838                           	psect	text31
  6839  078D                     __ptext31:	
  6840 ;; *************** function _I2C1_DO_ADDRESS_NACK *****************
  6841 ;; Defined at:
  6842 ;;		line 500 in file "mcc_generated_files/i2c1_master.c"
  6843 ;; Parameters:    Size  Location     Type
  6844 ;;		None
  6845 ;; Auto vars:     Size  Location     Type
  6846 ;;		None
  6847 ;; Return value:  Size  Location     Type
  6848 ;;                  1    wreg      enum E3009
  6849 ;; Registers used:
  6850 ;;		wreg, fsr0l, fsr0h, fsr1l, fsr1h, status,2, status,0, pclath, cstack
  6851 ;; Tracked objects:
  6852 ;;		On entry : 0/0
  6853 ;;		On exit  : 0/0
  6854 ;;		Unchanged: 0/0
  6855 ;; Data sizes:     COMMON   BANK0   BANK1   BANK2   BANK3   BANK4   BANK5   BANK6   BANK7   BANK8   BANK9  BANK10  BANK1
      +1  BANK12
  6856 ;;      Params:         0       0       0       0       0       0       0       0       0       0       0       0       
      +0       0
  6857 ;;      Locals:         0       0       0       0       0       0       0       0       0       0       0       0       
      +0       0
  6858 ;;      Temps:          0       3       0       0       0       0       0       0       0       0       0       0       
      +0       0
  6859 ;;      Totals:         0       3       0       0       0       0       0       0       0       0       0       0       
      +0       0
  6860 ;;Total ram usage:        3 bytes
  6861 ;; Hardware stack levels used: 1
  6862 ;; Hardware stack levels required when called: 11
  6863 ;; This function calls:
  6864 ;;		Absolute function
  6865 ;;		_I2C1_CallbackReturnReset
  6866 ;;		_I2C1_CallbackReturnStop
  6867 ;;		_I2C1_DO_SEND_RESTART
  6868 ;;		_I2C1_DO_SEND_STOP
  6869 ;;		_rd1RegCompleteHandler
  6870 ;;		_rd1RegCompleteHandler@i2c_simple_master$F1293
  6871 ;;		_rd2RegCompleteHandler
  6872 ;;		_rd2RegCompleteHandler@i2c_simple_master$F1301
  6873 ;;		_rdBlkRegCompleteHandler
  6874 ;;		_rdBlkRegCompleteHandler@i2c_simple_master$F1313
  6875 ;;		_wr1RegCompleteHandler
  6876 ;;		_wr1RegCompleteHandler@i2c_simple_master$F1283
  6877 ;;		_wr2RegCompleteHandler
  6878 ;;		_wr2RegCompleteHandler@i2c_simple_master$F1307
  6879 ;; This function is called by:
  6880 ;;		_I2C1_MasterFsm
  6881 ;; This function uses a non-reentrant model
  6882 ;;
  6883                           
  6884                           
  6885                           ;psect for function _I2C1_DO_ADDRESS_NACK
  6886  078D                     _I2C1_DO_ADDRESS_NACK:
  6887  078D                     l3075:	
  6888                           ;incstack = 0
  6889 ;; hardware stack exceeded
  6890                           ; Regs used in _I2C1_DO_ADDRESS_NACK: [wreg-fsr1h+status,2+status,0+pclath+cstack]
  6891                           
  6892                           
  6893                           ;mcc_generated_files/i2c1_master.c: 502:     I2C1_Status.addressNackCheck = 0;
  6894  078D  0020               	movlb	0	; select bank0
  6895  078E  1068               	bcf	_I2C1_Status+28,0
  6896  078F                     l3077:
  6897                           
  6898                           ;mcc_generated_files/i2c1_master.c: 503:     I2C1_Status.error = I2C1_FAIL;
  6899  078F  3002               	movlw	2
  6900  0790  00AA               	movwf	??_I2C1_DO_ADDRESS_NACK
  6901  0791  082A               	movf	??_I2C1_DO_ADDRESS_NACK,w
  6902  0792  00E7               	movwf	_I2C1_Status+27
  6903                           
  6904                           ;mcc_generated_files/i2c1_master.c: 504:     switch(I2C1_Status.callbackTable[I2C1_ADDR_
      +                          NACK](I2C1_Status.callbackPayload[I2C1_ADDR_NACK]))
  6905  0793  2F9C               	goto	l3089
  6906  0794                     l3079:
  6907                           
  6908                           ;mcc_generated_files/i2c1_master.c: 508:             return I2C1_DO_SEND_RESTART();
  6909  0794  318C  24AC  3187   	fcall	_I2C1_DO_SEND_RESTART
  6910  0797  2FB9               	goto	l685
  6911  0798                     l3083:
  6912                           
  6913                           ;mcc_generated_files/i2c1_master.c: 510:             return I2C1_DO_SEND_STOP();
  6914  0798  318C  24B1  3187   	fcall	_I2C1_DO_SEND_STOP
  6915  079B  2FB9               	goto	l685
  6916  079C                     l3089:
  6917  079C  085A               	movf	low ((_I2C1_Status| 0+14)),w
  6918  079D  00AA               	movwf	??_I2C1_DO_ADDRESS_NACK
  6919  079E  082A               	movf	??_I2C1_DO_ADDRESS_NACK,w
  6920  079F  00A9               	movwf	rdBlkRegCompleteHandler@i2c_simple_master$F1313@p
  6921  07A0  3004               	movlw	4
  6922  07A1  3E4C               	addlw	(low (_I2C1_Status| 0))& (0+255)
  6923  07A2  0086               	movwf	6
  6924  07A3  0187               	clrf	7
  6925  07A4  3F41               	moviw [1]fsr1
  6926  07A5  008A               	movwf	10
  6927  07A6  3F40               	moviw [0]fsr1
  6928  07A7  000A               	callw
  6929  07A8  3187               	pagesel	$
  6930  07A9  0020               	movlb	0	; select bank0
  6931  07AA  00AB               	movwf	??_I2C1_DO_ADDRESS_NACK+1
  6932  07AB  01AC               	clrf	??_I2C1_DO_ADDRESS_NACK+2
  6933                           
  6934                           ; Switch on 2 bytes has been partitioned into a top level switch of size 1, and 1 sub-sw
      +                          itches
  6935                           ; Switch size 1, requested type "simple"
  6936                           ; Number of cases is 1, Range of values is 0 to 0
  6937                           ; switch strategies available:
  6938                           ; Name         Instructions Cycles
  6939                           ; simple_byte            4     3 (average)
  6940                           ; direct_byte            8     6 (fixed)
  6941                           ; jumptable            260     6 (fixed)
  6942                           ;	Chosen strategy is simple_byte
  6943  07AC  082C               	movf	??_I2C1_DO_ADDRESS_NACK+2,w
  6944  07AD  3A00               	xorlw	0	; case 0
  6945  07AE  1903               	skipnz
  6946  07AF  2FB1               	goto	l4019
  6947  07B0  2F98               	goto	l3083
  6948  07B1                     l4019:
  6949                           
  6950                           ; Switch size 1, requested type "simple"
  6951                           ; Number of cases is 2, Range of values is 2 to 3
  6952                           ; switch strategies available:
  6953                           ; Name         Instructions Cycles
  6954                           ; simple_byte            7     4 (average)
  6955                           ; direct_byte           13     9 (fixed)
  6956                           ; jumptable            263     9 (fixed)
  6957                           ;	Chosen strategy is simple_byte
  6958  07B1  082B               	movf	??_I2C1_DO_ADDRESS_NACK+1,w
  6959  07B2  3A02               	xorlw	2	; case 2
  6960  07B3  1903               	skipnz
  6961  07B4  2F94               	goto	l3079
  6962  07B5  3A01               	xorlw	1	; case 3
  6963  07B6  1903               	skipnz
  6964  07B7  2F94               	goto	l3079
  6965  07B8  2F98               	goto	l3083
  6966  07B9                     l685:
  6967  07B9  0008               	return
  6968  07BA                     __end_of_I2C1_DO_ADDRESS_NACK:
  6969                           
  6970                           	psect	text32
  6971  0CC5                     __ptext32:	
  6972 ;; *************** function _I2C1_DO_RESET *****************
  6973 ;; Defined at:
  6974 ;;		line 494 in file "mcc_generated_files/i2c1_master.c"
  6975 ;; Parameters:    Size  Location     Type
  6976 ;;		None
  6977 ;; Auto vars:     Size  Location     Type
  6978 ;;		None
  6979 ;; Return value:  Size  Location     Type
  6980 ;;                  1    wreg      enum E3009
  6981 ;; Registers used:
  6982 ;;		wreg, status,2
  6983 ;; Tracked objects:
  6984 ;;		On entry : 0/0
  6985 ;;		On exit  : 0/0
  6986 ;;		Unchanged: 0/0
  6987 ;; Data sizes:     COMMON   BANK0   BANK1   BANK2   BANK3   BANK4   BANK5   BANK6   BANK7   BANK8   BANK9  BANK10  BANK1
      +1  BANK12
  6988 ;;      Params:         0       0       0       0       0       0       0       0       0       0       0       0       
      +0       0
  6989 ;;      Locals:         0       0       0       0       0       0       0       0       0       0       0       0       
      +0       0
  6990 ;;      Temps:          0       0       0       0       0       0       0       0       0       0       0       0       
      +0       0
  6991 ;;      Totals:         0       0       0       0       0       0       0       0       0       0       0       0       
      +0       0
  6992 ;;Total ram usage:        0 bytes
  6993 ;; Hardware stack levels used: 1
  6994 ;; Hardware stack levels required when called: 8
  6995 ;; This function calls:
  6996 ;;		Nothing
  6997 ;; This function is called by:
  6998 ;;		_I2C1_MasterFsm
  6999 ;; This function uses a non-reentrant model
  7000 ;;
  7001                           
  7002                           
  7003                           ;psect for function _I2C1_DO_RESET
  7004  0CC5                     _I2C1_DO_RESET:
  7005  0CC5                     l3067:	
  7006                           ;incstack = 0
  7007                           ; Regs used in _I2C1_DO_RESET: [wreg+status,2]
  7008                           
  7009                           
  7010                           ;mcc_generated_files/i2c1_master.c: 496:     I2C1_Status.busy = 0;
  7011  0CC5  0020               	movlb	0	; select bank0
  7012  0CC6  10E8               	bcf	_I2C1_Status+28,1
  7013  0CC7                     l3069:
  7014                           
  7015                           ;mcc_generated_files/i2c1_master.c: 497:     I2C1_Status.error = I2C1_NOERR;
  7016  0CC7  01E7               	clrf	_I2C1_Status+27
  7017  0CC8                     l3071:
  7018                           
  7019                           ;mcc_generated_files/i2c1_master.c: 498:     return I2C1_RESET;
  7020  0CC8  300E               	movlw	14
  7021  0CC9                     l679:
  7022  0CC9  0008               	return
  7023  0CCA                     __end_of_I2C1_DO_RESET:
  7024                           
  7025                           	psect	text33
  7026  0CC0                     __ptext33:	
  7027 ;; *************** function _I2C1_DO_RX_NACK_RESTART *****************
  7028 ;; Defined at:
  7029 ;;		line 488 in file "mcc_generated_files/i2c1_master.c"
  7030 ;; Parameters:    Size  Location     Type
  7031 ;;		None
  7032 ;; Auto vars:     Size  Location     Type
  7033 ;;		None
  7034 ;; Return value:  Size  Location     Type
  7035 ;;                  1    wreg      enum E3009
  7036 ;; Registers used:
  7037 ;;		wreg, status,2, status,0, pclath, cstack
  7038 ;; Tracked objects:
  7039 ;;		On entry : 0/0
  7040 ;;		On exit  : 0/0
  7041 ;;		Unchanged: 0/0
  7042 ;; Data sizes:     COMMON   BANK0   BANK1   BANK2   BANK3   BANK4   BANK5   BANK6   BANK7   BANK8   BANK9  BANK10  BANK1
      +1  BANK12
  7043 ;;      Params:         0       0       0       0       0       0       0       0       0       0       0       0       
      +0       0
  7044 ;;      Locals:         0       0       0       0       0       0       0       0       0       0       0       0       
      +0       0
  7045 ;;      Temps:          0       0       0       0       0       0       0       0       0       0       0       0       
      +0       0
  7046 ;;      Totals:         0       0       0       0       0       0       0       0       0       0       0       0       
      +0       0
  7047 ;;Total ram usage:        0 bytes
  7048 ;; Hardware stack levels used: 1
  7049 ;; Hardware stack levels required when called: 9
  7050 ;; This function calls:
  7051 ;;		_I2C1_MasterSendNack
  7052 ;; This function is called by:
  7053 ;;		_I2C1_DO_RX
  7054 ;;		_I2C1_MasterFsm
  7055 ;; This function uses a non-reentrant model
  7056 ;;
  7057                           
  7058                           
  7059                           ;psect for function _I2C1_DO_RX_NACK_RESTART
  7060  0CC0                     _I2C1_DO_RX_NACK_RESTART:
  7061  0CC0                     l2871:	
  7062                           ;incstack = 0
  7063                           ; Regs used in _I2C1_DO_RX_NACK_RESTART: [wreg+status,2+status,0+pclath+cstack]
  7064                           
  7065                           
  7066                           ;mcc_generated_files/i2c1_master.c: 490:     I2C1_MasterSendNack();
  7067  0CC0  318C  2491  318C   	fcall	_I2C1_MasterSendNack
  7068  0CC3                     l2873:
  7069                           
  7070                           ;mcc_generated_files/i2c1_master.c: 491:     return I2C1_SEND_RESTART;
  7071  0CC3  3009               	movlw	9
  7072  0CC4                     l676:
  7073  0CC4  0008               	return
  7074  0CC5                     __end_of_I2C1_DO_RX_NACK_RESTART:
  7075                           
  7076                           	psect	text34
  7077  0CBB                     __ptext34:	
  7078 ;; *************** function _I2C1_DO_RX_NACK_STOP *****************
  7079 ;; Defined at:
  7080 ;;		line 482 in file "mcc_generated_files/i2c1_master.c"
  7081 ;; Parameters:    Size  Location     Type
  7082 ;;		None
  7083 ;; Auto vars:     Size  Location     Type
  7084 ;;		None
  7085 ;; Return value:  Size  Location     Type
  7086 ;;                  1    wreg      enum E3009
  7087 ;; Registers used:
  7088 ;;		wreg, status,2, status,0, pclath, cstack
  7089 ;; Tracked objects:
  7090 ;;		On entry : 0/0
  7091 ;;		On exit  : 0/0
  7092 ;;		Unchanged: 0/0
  7093 ;; Data sizes:     COMMON   BANK0   BANK1   BANK2   BANK3   BANK4   BANK5   BANK6   BANK7   BANK8   BANK9  BANK10  BANK1
      +1  BANK12
  7094 ;;      Params:         0       0       0       0       0       0       0       0       0       0       0       0       
      +0       0
  7095 ;;      Locals:         0       0       0       0       0       0       0       0       0       0       0       0       
      +0       0
  7096 ;;      Temps:          0       0       0       0       0       0       0       0       0       0       0       0       
      +0       0
  7097 ;;      Totals:         0       0       0       0       0       0       0       0       0       0       0       0       
      +0       0
  7098 ;;Total ram usage:        0 bytes
  7099 ;; Hardware stack levels used: 1
  7100 ;; Hardware stack levels required when called: 9
  7101 ;; This function calls:
  7102 ;;		_I2C1_MasterSendNack
  7103 ;; This function is called by:
  7104 ;;		_I2C1_DO_RX
  7105 ;;		_I2C1_MasterFsm
  7106 ;; This function uses a non-reentrant model
  7107 ;;
  7108                           
  7109                           
  7110                           ;psect for function _I2C1_DO_RX_NACK_STOP
  7111  0CBB                     _I2C1_DO_RX_NACK_STOP:
  7112  0CBB                     l2877:	
  7113                           ;incstack = 0
  7114                           ; Regs used in _I2C1_DO_RX_NACK_STOP: [wreg+status,2+status,0+pclath+cstack]
  7115                           
  7116                           
  7117                           ;mcc_generated_files/i2c1_master.c: 484:     I2C1_MasterSendNack();
  7118  0CBB  318C  2491  318C   	fcall	_I2C1_MasterSendNack
  7119  0CBE                     l2879:
  7120                           
  7121                           ;mcc_generated_files/i2c1_master.c: 485:     return I2C1_SEND_STOP;
  7122  0CBE  300A               	movlw	10
  7123  0CBF                     l673:
  7124  0CBF  0008               	return
  7125  0CC0                     __end_of_I2C1_DO_RX_NACK_STOP:
  7126                           
  7127                           	psect	text35
  7128  0CB6                     __ptext35:	
  7129 ;; *************** function _I2C1_DO_RX_ACK *****************
  7130 ;; Defined at:
  7131 ;;		line 475 in file "mcc_generated_files/i2c1_master.c"
  7132 ;; Parameters:    Size  Location     Type
  7133 ;;		None
  7134 ;; Auto vars:     Size  Location     Type
  7135 ;;		None
  7136 ;; Return value:  Size  Location     Type
  7137 ;;                  1    wreg      enum E3009
  7138 ;; Registers used:
  7139 ;;		wreg, status,2, status,0, pclath, cstack
  7140 ;; Tracked objects:
  7141 ;;		On entry : 0/0
  7142 ;;		On exit  : 0/0
  7143 ;;		Unchanged: 0/0
  7144 ;; Data sizes:     COMMON   BANK0   BANK1   BANK2   BANK3   BANK4   BANK5   BANK6   BANK7   BANK8   BANK9  BANK10  BANK1
      +1  BANK12
  7145 ;;      Params:         0       0       0       0       0       0       0       0       0       0       0       0       
      +0       0
  7146 ;;      Locals:         0       0       0       0       0       0       0       0       0       0       0       0       
      +0       0
  7147 ;;      Temps:          0       0       0       0       0       0       0       0       0       0       0       0       
      +0       0
  7148 ;;      Totals:         0       0       0       0       0       0       0       0       0       0       0       0       
      +0       0
  7149 ;;Total ram usage:        0 bytes
  7150 ;; Hardware stack levels used: 1
  7151 ;; Hardware stack levels required when called: 9
  7152 ;; This function calls:
  7153 ;;		_I2C1_MasterSendAck
  7154 ;; This function is called by:
  7155 ;;		_I2C1_MasterFsm
  7156 ;; This function uses a non-reentrant model
  7157 ;;
  7158                           
  7159                           
  7160                           ;psect for function _I2C1_DO_RX_ACK
  7161  0CB6                     _I2C1_DO_RX_ACK:
  7162  0CB6                     l3061:	
  7163                           ;incstack = 0
  7164                           ; Regs used in _I2C1_DO_RX_ACK: [wreg+status,2+status,0+pclath+cstack]
  7165                           
  7166                           
  7167                           ;mcc_generated_files/i2c1_master.c: 477:     I2C1_MasterSendAck();
  7168  0CB6  318C  2495  318C   	fcall	_I2C1_MasterSendAck
  7169  0CB9                     l3063:
  7170                           
  7171                           ;mcc_generated_files/i2c1_master.c: 478:     return I2C1_RCEN;
  7172  0CB9  3005               	movlw	5
  7173  0CBA                     l670:
  7174  0CBA  0008               	return
  7175  0CBB                     __end_of_I2C1_DO_RX_ACK:
  7176                           
  7177                           	psect	text36
  7178  0CB1                     __ptext36:	
  7179 ;; *************** function _I2C1_DO_SEND_STOP *****************
  7180 ;; Defined at:
  7181 ;;		line 469 in file "mcc_generated_files/i2c1_master.c"
  7182 ;; Parameters:    Size  Location     Type
  7183 ;;		None
  7184 ;; Auto vars:     Size  Location     Type
  7185 ;;		None
  7186 ;; Return value:  Size  Location     Type
  7187 ;;                  1    wreg      enum E3009
  7188 ;; Registers used:
  7189 ;;		wreg, status,2, status,0, pclath, cstack
  7190 ;; Tracked objects:
  7191 ;;		On entry : 0/0
  7192 ;;		On exit  : 0/0
  7193 ;;		Unchanged: 0/0
  7194 ;; Data sizes:     COMMON   BANK0   BANK1   BANK2   BANK3   BANK4   BANK5   BANK6   BANK7   BANK8   BANK9  BANK10  BANK1
      +1  BANK12
  7195 ;;      Params:         0       0       0       0       0       0       0       0       0       0       0       0       
      +0       0
  7196 ;;      Locals:         0       0       0       0       0       0       0       0       0       0       0       0       
      +0       0
  7197 ;;      Temps:          0       0       0       0       0       0       0       0       0       0       0       0       
      +0       0
  7198 ;;      Totals:         0       0       0       0       0       0       0       0       0       0       0       0       
      +0       0
  7199 ;;Total ram usage:        0 bytes
  7200 ;; Hardware stack levels used: 1
  7201 ;; Hardware stack levels required when called: 9
  7202 ;; This function calls:
  7203 ;;		_I2C1_MasterStop
  7204 ;; This function is called by:
  7205 ;;		_I2C1_DO_TX
  7206 ;;		_I2C1_DO_TX_EMPTY
  7207 ;;		_I2C1_DO_ADDRESS_NACK
  7208 ;;		_I2C1_MasterFsm
  7209 ;; This function uses a non-reentrant model
  7210 ;;
  7211                           
  7212                           
  7213                           ;psect for function _I2C1_DO_SEND_STOP
  7214  0CB1                     _I2C1_DO_SEND_STOP:
  7215  0CB1                     l2859:	
  7216                           ;incstack = 0
  7217 ;; hardware stack exceeded
  7218                           ; Regs used in _I2C1_DO_SEND_STOP: [wreg+status,2+status,0+pclath+cstack]
  7219                           
  7220                           
  7221                           ;mcc_generated_files/i2c1_master.c: 471:     I2C1_MasterStop();
  7222  0CB1  318C  2481  318C   	fcall	_I2C1_MasterStop
  7223  0CB4                     l2861:
  7224                           
  7225                           ;mcc_generated_files/i2c1_master.c: 472:     return I2C1_IDLE;
  7226  0CB4  3000               	movlw	0
  7227  0CB5                     l667:
  7228  0CB5  0008               	return
  7229  0CB6                     __end_of_I2C1_DO_SEND_STOP:
  7230                           
  7231                           	psect	text37
  7232  0CAC                     __ptext37:	
  7233 ;; *************** function _I2C1_DO_SEND_RESTART *****************
  7234 ;; Defined at:
  7235 ;;		line 463 in file "mcc_generated_files/i2c1_master.c"
  7236 ;; Parameters:    Size  Location     Type
  7237 ;;		None
  7238 ;; Auto vars:     Size  Location     Type
  7239 ;;		None
  7240 ;; Return value:  Size  Location     Type
  7241 ;;                  1    wreg      enum E3009
  7242 ;; Registers used:
  7243 ;;		wreg, status,2, status,0, pclath, cstack
  7244 ;; Tracked objects:
  7245 ;;		On entry : 0/0
  7246 ;;		On exit  : 0/0
  7247 ;;		Unchanged: 0/0
  7248 ;; Data sizes:     COMMON   BANK0   BANK1   BANK2   BANK3   BANK4   BANK5   BANK6   BANK7   BANK8   BANK9  BANK10  BANK1
      +1  BANK12
  7249 ;;      Params:         0       0       0       0       0       0       0       0       0       0       0       0       
      +0       0
  7250 ;;      Locals:         0       0       0       0       0       0       0       0       0       0       0       0       
      +0       0
  7251 ;;      Temps:          0       0       0       0       0       0       0       0       0       0       0       0       
      +0       0
  7252 ;;      Totals:         0       0       0       0       0       0       0       0       0       0       0       0       
      +0       0
  7253 ;;Total ram usage:        0 bytes
  7254 ;; Hardware stack levels used: 1
  7255 ;; Hardware stack levels required when called: 9
  7256 ;; This function calls:
  7257 ;;		_I2C1_MasterEnableRestart
  7258 ;; This function is called by:
  7259 ;;		_I2C1_DO_TX_EMPTY
  7260 ;;		_I2C1_DO_ADDRESS_NACK
  7261 ;;		_I2C1_MasterFsm
  7262 ;; This function uses a non-reentrant model
  7263 ;;
  7264                           
  7265                           
  7266                           ;psect for function _I2C1_DO_SEND_RESTART
  7267  0CAC                     _I2C1_DO_SEND_RESTART:
  7268  0CAC                     l2885:	
  7269                           ;incstack = 0
  7270 ;; hardware stack exceeded
  7271                           ; Regs used in _I2C1_DO_SEND_RESTART: [wreg+status,2+status,0+pclath+cstack]
  7272                           
  7273                           
  7274                           ;mcc_generated_files/i2c1_master.c: 465:     I2C1_MasterEnableRestart();
  7275  0CAC  318C  247E  318C   	fcall	_I2C1_MasterEnableRestart
  7276  0CAF                     l2887:
  7277                           
  7278                           ;mcc_generated_files/i2c1_master.c: 466:     return I2C1_SEND_ADR_READ;
  7279  0CAF  3001               	movlw	1
  7280  0CB0                     l664:
  7281  0CB0  0008               	return
  7282  0CB1                     __end_of_I2C1_DO_SEND_RESTART:
  7283                           
  7284                           	psect	text38
  7285  0CA7                     __ptext38:	
  7286 ;; *************** function _I2C1_DO_SEND_RESTART_WRITE *****************
  7287 ;; Defined at:
  7288 ;;		line 456 in file "mcc_generated_files/i2c1_master.c"
  7289 ;; Parameters:    Size  Location     Type
  7290 ;;		None
  7291 ;; Auto vars:     Size  Location     Type
  7292 ;;		None
  7293 ;; Return value:  Size  Location     Type
  7294 ;;                  1    wreg      enum E3009
  7295 ;; Registers used:
  7296 ;;		wreg, status,2, status,0, pclath, cstack
  7297 ;; Tracked objects:
  7298 ;;		On entry : 0/0
  7299 ;;		On exit  : 0/0
  7300 ;;		Unchanged: 0/0
  7301 ;; Data sizes:     COMMON   BANK0   BANK1   BANK2   BANK3   BANK4   BANK5   BANK6   BANK7   BANK8   BANK9  BANK10  BANK1
      +1  BANK12
  7302 ;;      Params:         0       0       0       0       0       0       0       0       0       0       0       0       
      +0       0
  7303 ;;      Locals:         0       0       0       0       0       0       0       0       0       0       0       0       
      +0       0
  7304 ;;      Temps:          0       0       0       0       0       0       0       0       0       0       0       0       
      +0       0
  7305 ;;      Totals:         0       0       0       0       0       0       0       0       0       0       0       0       
      +0       0
  7306 ;;Total ram usage:        0 bytes
  7307 ;; Hardware stack levels used: 1
  7308 ;; Hardware stack levels required when called: 9
  7309 ;; This function calls:
  7310 ;;		_I2C1_MasterEnableRestart
  7311 ;; This function is called by:
  7312 ;;		_I2C1_DO_TX
  7313 ;;		_I2C1_MasterFsm
  7314 ;; This function uses a non-reentrant model
  7315 ;;
  7316                           
  7317                           
  7318                           ;psect for function _I2C1_DO_SEND_RESTART_WRITE
  7319  0CA7                     _I2C1_DO_SEND_RESTART_WRITE:
  7320  0CA7                     l2853:	
  7321                           ;incstack = 0
  7322 ;; hardware stack exceeded
  7323                           ; Regs used in _I2C1_DO_SEND_RESTART_WRITE: [wreg+status,2+status,0+pclath+cstack]
  7324                           
  7325                           
  7326                           ;mcc_generated_files/i2c1_master.c: 458:     I2C1_MasterEnableRestart();
  7327  0CA7  318C  247E  318C   	fcall	_I2C1_MasterEnableRestart
  7328  0CAA                     l2855:
  7329                           
  7330                           ;mcc_generated_files/i2c1_master.c: 459:     return I2C1_SEND_ADR_WRITE;
  7331  0CAA  3002               	movlw	2
  7332  0CAB                     l661:
  7333  0CAB  0008               	return
  7334  0CAC                     __end_of_I2C1_DO_SEND_RESTART_WRITE:
  7335                           
  7336                           	psect	text39
  7337  0CA2                     __ptext39:	
  7338 ;; *************** function _I2C1_DO_SEND_RESTART_READ *****************
  7339 ;; Defined at:
  7340 ;;		line 450 in file "mcc_generated_files/i2c1_master.c"
  7341 ;; Parameters:    Size  Location     Type
  7342 ;;		None
  7343 ;; Auto vars:     Size  Location     Type
  7344 ;;		None
  7345 ;; Return value:  Size  Location     Type
  7346 ;;                  1    wreg      enum E3009
  7347 ;; Registers used:
  7348 ;;		wreg, status,2, status,0, pclath, cstack
  7349 ;; Tracked objects:
  7350 ;;		On entry : 0/0
  7351 ;;		On exit  : 0/0
  7352 ;;		Unchanged: 0/0
  7353 ;; Data sizes:     COMMON   BANK0   BANK1   BANK2   BANK3   BANK4   BANK5   BANK6   BANK7   BANK8   BANK9  BANK10  BANK1
      +1  BANK12
  7354 ;;      Params:         0       0       0       0       0       0       0       0       0       0       0       0       
      +0       0
  7355 ;;      Locals:         0       0       0       0       0       0       0       0       0       0       0       0       
      +0       0
  7356 ;;      Temps:          0       0       0       0       0       0       0       0       0       0       0       0       
      +0       0
  7357 ;;      Totals:         0       0       0       0       0       0       0       0       0       0       0       0       
      +0       0
  7358 ;;Total ram usage:        0 bytes
  7359 ;; Hardware stack levels used: 1
  7360 ;; Hardware stack levels required when called: 9
  7361 ;; This function calls:
  7362 ;;		_I2C1_MasterEnableRestart
  7363 ;; This function is called by:
  7364 ;;		_I2C1_DO_TX
  7365 ;;		_I2C1_MasterFsm
  7366 ;; This function uses a non-reentrant model
  7367 ;;
  7368                           
  7369                           
  7370                           ;psect for function _I2C1_DO_SEND_RESTART_READ
  7371  0CA2                     _I2C1_DO_SEND_RESTART_READ:
  7372  0CA2                     l2847:	
  7373                           ;incstack = 0
  7374 ;; hardware stack exceeded
  7375                           ; Regs used in _I2C1_DO_SEND_RESTART_READ: [wreg+status,2+status,0+pclath+cstack]
  7376                           
  7377                           
  7378                           ;mcc_generated_files/i2c1_master.c: 452:     I2C1_MasterEnableRestart();
  7379  0CA2  318C  247E  318C   	fcall	_I2C1_MasterEnableRestart
  7380  0CA5                     l2849:
  7381                           
  7382                           ;mcc_generated_files/i2c1_master.c: 453:     return I2C1_SEND_ADR_READ;
  7383  0CA5  3001               	movlw	1
  7384  0CA6                     l658:
  7385  0CA6  0008               	return
  7386  0CA7                     __end_of_I2C1_DO_SEND_RESTART_READ:
  7387                           
  7388                           	psect	text40
  7389  0CED                     __ptext40:	
  7390 ;; *************** function _I2C1_DO_RCEN *****************
  7391 ;; Defined at:
  7392 ;;		line 402 in file "mcc_generated_files/i2c1_master.c"
  7393 ;; Parameters:    Size  Location     Type
  7394 ;;		None
  7395 ;; Auto vars:     Size  Location     Type
  7396 ;;		None
  7397 ;; Return value:  Size  Location     Type
  7398 ;;                  1    wreg      enum E3009
  7399 ;; Registers used:
  7400 ;;		wreg, status,2, status,0, pclath, cstack
  7401 ;; Tracked objects:
  7402 ;;		On entry : 0/0
  7403 ;;		On exit  : 0/0
  7404 ;;		Unchanged: 0/0
  7405 ;; Data sizes:     COMMON   BANK0   BANK1   BANK2   BANK3   BANK4   BANK5   BANK6   BANK7   BANK8   BANK9  BANK10  BANK1
      +1  BANK12
  7406 ;;      Params:         0       0       0       0       0       0       0       0       0       0       0       0       
      +0       0
  7407 ;;      Locals:         0       0       0       0       0       0       0       0       0       0       0       0       
      +0       0
  7408 ;;      Temps:          0       0       0       0       0       0       0       0       0       0       0       0       
      +0       0
  7409 ;;      Totals:         0       0       0       0       0       0       0       0       0       0       0       0       
      +0       0
  7410 ;;Total ram usage:        0 bytes
  7411 ;; Hardware stack levels used: 1
  7412 ;; Hardware stack levels required when called: 9
  7413 ;; This function calls:
  7414 ;;		_I2C1_MasterStartRx
  7415 ;; This function is called by:
  7416 ;;		_I2C1_MasterFsm
  7417 ;; This function uses a non-reentrant model
  7418 ;;
  7419                           
  7420                           
  7421                           ;psect for function _I2C1_DO_RCEN
  7422  0CED                     _I2C1_DO_RCEN:
  7423  0CED                     l3029:	
  7424                           ;incstack = 0
  7425                           ; Regs used in _I2C1_DO_RCEN: [wreg+status,2+status,0+pclath+cstack]
  7426                           
  7427                           
  7428                           ;mcc_generated_files/i2c1_master.c: 404:     I2C1_Status.addressNackCheck = 0;
  7429  0CED  0020               	movlb	0	; select bank0
  7430  0CEE  1068               	bcf	_I2C1_Status+28,0
  7431  0CEF                     l3031:
  7432                           
  7433                           ;mcc_generated_files/i2c1_master.c: 405:     I2C1_MasterStartRx();
  7434  0CEF  318C  2484  318C   	fcall	_I2C1_MasterStartRx
  7435  0CF2                     l3033:
  7436                           
  7437                           ;mcc_generated_files/i2c1_master.c: 406:     return I2C1_RX;
  7438  0CF2  3004               	movlw	4
  7439  0CF3                     l634:
  7440  0CF3  0008               	return
  7441  0CF4                     __end_of_I2C1_DO_RCEN:
  7442                           
  7443                           	psect	text41
  7444  060D                     __ptext41:	
  7445 ;; *************** function _I2C1_DO_RX *****************
  7446 ;; Defined at:
  7447 ;;		line 378 in file "mcc_generated_files/i2c1_master.c"
  7448 ;; Parameters:    Size  Location     Type
  7449 ;;		None
  7450 ;; Auto vars:     Size  Location     Type
  7451 ;;		None
  7452 ;; Return value:  Size  Location     Type
  7453 ;;                  1    wreg      enum E3009
  7454 ;; Registers used:
  7455 ;;		wreg, fsr0l, fsr0h, fsr1l, fsr1h, status,2, status,0, pclath, cstack
  7456 ;; Tracked objects:
  7457 ;;		On entry : 0/0
  7458 ;;		On exit  : 0/0
  7459 ;;		Unchanged: 0/0
  7460 ;; Data sizes:     COMMON   BANK0   BANK1   BANK2   BANK3   BANK4   BANK5   BANK6   BANK7   BANK8   BANK9  BANK10  BANK1
      +1  BANK12
  7461 ;;      Params:         0       0       0       0       0       0       0       0       0       0       0       0       
      +0       0
  7462 ;;      Locals:         0       0       0       0       0       0       0       0       0       0       0       0       
      +0       0
  7463 ;;      Temps:          0       3       0       0       0       0       0       0       0       0       0       0       
      +0       0
  7464 ;;      Totals:         0       3       0       0       0       0       0       0       0       0       0       0       
      +0       0
  7465 ;;Total ram usage:        3 bytes
  7466 ;; Hardware stack levels used: 1
  7467 ;; Hardware stack levels required when called: 11
  7468 ;; This function calls:
  7469 ;;		Absolute function
  7470 ;;		_I2C1_CallbackReturnReset
  7471 ;;		_I2C1_CallbackReturnStop
  7472 ;;		_I2C1_DO_RX_NACK_RESTART
  7473 ;;		_I2C1_DO_RX_NACK_STOP
  7474 ;;		_I2C1_MasterGetRxData
  7475 ;;		_I2C1_MasterSendAck
  7476 ;;		_rd1RegCompleteHandler
  7477 ;;		_rd1RegCompleteHandler@i2c_simple_master$F1293
  7478 ;;		_rd2RegCompleteHandler
  7479 ;;		_rd2RegCompleteHandler@i2c_simple_master$F1301
  7480 ;;		_rdBlkRegCompleteHandler
  7481 ;;		_rdBlkRegCompleteHandler@i2c_simple_master$F1313
  7482 ;;		_wr1RegCompleteHandler
  7483 ;;		_wr1RegCompleteHandler@i2c_simple_master$F1283
  7484 ;;		_wr2RegCompleteHandler
  7485 ;;		_wr2RegCompleteHandler@i2c_simple_master$F1307
  7486 ;; This function is called by:
  7487 ;;		_I2C1_MasterFsm
  7488 ;; This function uses a non-reentrant model
  7489 ;;
  7490                           
  7491                           
  7492                           ;psect for function _I2C1_DO_RX
  7493  060D                     _I2C1_DO_RX:
  7494  060D                     l2999:	
  7495                           ;incstack = 0
  7496 ;; hardware stack exceeded
  7497                           ; Regs used in _I2C1_DO_RX: [wreg-fsr1h+status,2+status,0+pclath+cstack]
  7498                           
  7499                           
  7500                           ;mcc_generated_files/i2c1_master.c: 380:     *I2C1_Status.data_ptr++ = I2C1_MasterGetRxD
      +                          ata();
  7501  060D  318C  2487  3186   	fcall	_I2C1_MasterGetRxData
  7502  0610  0020               	movlb	0	; select bank0
  7503  0611  00AA               	movwf	??_I2C1_DO_RX
  7504  0612  0863               	movf	low ((_I2C1_Status| 0+23)),w
  7505  0613  0086               	movwf	6
  7506  0614  0187               	clrf	7
  7507  0615  082A               	movf	??_I2C1_DO_RX,w
  7508  0616  0081               	movwf	1
  7509  0617                     l3001:
  7510  0617  3001               	movlw	1
  7511  0618  00AA               	movwf	??_I2C1_DO_RX
  7512  0619  082A               	movf	??_I2C1_DO_RX,w
  7513  061A  07E3               	addwf	low ((_I2C1_Status| 0+23)),f
  7514  061B                     l3003:
  7515                           
  7516                           ;mcc_generated_files/i2c1_master.c: 381:     if(--I2C1_Status.data_length)
  7517  061B  3001               	movlw	1
  7518  061C  02E4               	subwf	_I2C1_Status+24,f
  7519  061D  3000               	movlw	0
  7520  061E  3BE5               	subwfb	_I2C1_Status+25,f
  7521  061F  0864               	movf	_I2C1_Status+24,w
  7522  0620  0465               	iorwf	_I2C1_Status+25,w
  7523  0621  1903               	btfsc	3,2
  7524  0622  2E24               	goto	u991
  7525  0623  2E25               	goto	u990
  7526  0624                     u991:
  7527  0624  2E2A               	goto	l622
  7528  0625                     u990:
  7529  0625                     l3005:
  7530                           
  7531                           ;mcc_generated_files/i2c1_master.c: 382:     {;mcc_generated_files/i2c1_master.c: 383:  
      +                                 I2C1_MasterSendAck();
  7532  0625  318C  2495  3186   	fcall	_I2C1_MasterSendAck
  7533  0628                     l3007:
  7534                           
  7535                           ;mcc_generated_files/i2c1_master.c: 384:         return I2C1_RCEN;
  7536  0628  3005               	movlw	5
  7537  0629  2E53               	goto	l623
  7538  062A                     l622:	
  7539                           ;mcc_generated_files/i2c1_master.c: 386:     else
  7540                           
  7541                           
  7542                           ;mcc_generated_files/i2c1_master.c: 387:     {;mcc_generated_files/i2c1_master.c: 388:  
      +                                 I2C1_Status.bufferFree = 1;
  7543  062A  15E8               	bsf	_I2C1_Status+28,3
  7544                           
  7545                           ;mcc_generated_files/i2c1_master.c: 389:         switch(I2C1_Status.callbackTable[I2C1_D
      +                          ATA_COMPLETE](I2C1_Status.callbackPayload[I2C1_DATA_COMPLETE]))
  7546  062B  2E34               	goto	l3023
  7547  062C                     l3013:
  7548                           
  7549                           ;mcc_generated_files/i2c1_master.c: 393:                 return I2C1_DO_RX_NACK_RESTART(
      +                          );
  7550  062C  318C  24C0  3186   	fcall	_I2C1_DO_RX_NACK_RESTART
  7551  062F  2E53               	goto	l623
  7552  0630                     l3017:
  7553                           
  7554                           ;mcc_generated_files/i2c1_master.c: 397:                 return I2C1_DO_RX_NACK_STOP();
  7555  0630  318C  24BB  3186   	fcall	_I2C1_DO_RX_NACK_STOP
  7556  0633  2E53               	goto	l623
  7557  0634                     l3023:
  7558  0634  0858               	movf	low ((_I2C1_Status| 0+12)),w
  7559  0635  00AA               	movwf	??_I2C1_DO_RX
  7560  0636  082A               	movf	??_I2C1_DO_RX,w
  7561  0637  00A9               	movwf	rdBlkRegCompleteHandler@i2c_simple_master$F1313@p
  7562  0638  084D               	movf	_I2C1_Status+1,w
  7563  0639  008A               	movwf	10
  7564  063A  084C               	movf	_I2C1_Status,w
  7565  063B  000A               	callw
  7566  063C  3186               	pagesel	$
  7567  063D  0020               	movlb	0	; select bank0
  7568  063E  00AB               	movwf	??_I2C1_DO_RX+1
  7569  063F  01AC               	clrf	??_I2C1_DO_RX+2
  7570                           
  7571                           ; Switch on 2 bytes has been partitioned into a top level switch of size 1, and 1 sub-sw
      +                          itches
  7572                           ; Switch size 1, requested type "simple"
  7573                           ; Number of cases is 1, Range of values is 0 to 0
  7574                           ; switch strategies available:
  7575                           ; Name         Instructions Cycles
  7576                           ; simple_byte            4     3 (average)
  7577                           ; direct_byte            8     6 (fixed)
  7578                           ; jumptable            260     6 (fixed)
  7579                           ;	Chosen strategy is simple_byte
  7580  0640  082C               	movf	??_I2C1_DO_RX+2,w
  7581  0641  3A00               	xorlw	0	; case 0
  7582  0642  1903               	skipnz
  7583  0643  2E45               	goto	l4021
  7584  0644  2E30               	goto	l3017
  7585  0645                     l4021:
  7586                           
  7587                           ; Switch size 1, requested type "simple"
  7588                           ; Number of cases is 4, Range of values is 1 to 4
  7589                           ; switch strategies available:
  7590                           ; Name         Instructions Cycles
  7591                           ; simple_byte           13     7 (average)
  7592                           ; direct_byte           17     9 (fixed)
  7593                           ; jumptable            263     9 (fixed)
  7594                           ;	Chosen strategy is simple_byte
  7595  0645  082B               	movf	??_I2C1_DO_RX+1,w
  7596  0646  3A01               	xorlw	1	; case 1
  7597  0647  1903               	skipnz
  7598  0648  2E30               	goto	l3017
  7599  0649  3A03               	xorlw	3	; case 2
  7600  064A  1903               	skipnz
  7601  064B  2E2C               	goto	l3013
  7602  064C  3A01               	xorlw	1	; case 3
  7603  064D  1903               	skipnz
  7604  064E  2E2C               	goto	l3013
  7605  064F  3A07               	xorlw	7	; case 4
  7606  0650  1903               	skipnz
  7607  0651  2E30               	goto	l3017
  7608  0652  2E30               	goto	l3017
  7609  0653                     l623:
  7610  0653  0008               	return
  7611  0654                     __end_of_I2C1_DO_RX:
  7612                           
  7613                           	psect	text42
  7614  05B7                     __ptext42:	
  7615 ;; *************** function _I2C1_DO_TX *****************
  7616 ;; Defined at:
  7617 ;;		line 354 in file "mcc_generated_files/i2c1_master.c"
  7618 ;; Parameters:    Size  Location     Type
  7619 ;;		None
  7620 ;; Auto vars:     Size  Location     Type
  7621 ;;		None
  7622 ;; Return value:  Size  Location     Type
  7623 ;;                  1    wreg      enum E3009
  7624 ;; Registers used:
  7625 ;;		wreg, fsr0l, fsr0h, fsr1l, fsr1h, status,2, status,0, pclath, cstack
  7626 ;; Tracked objects:
  7627 ;;		On entry : 0/0
  7628 ;;		On exit  : 0/0
  7629 ;;		Unchanged: 0/0
  7630 ;; Data sizes:     COMMON   BANK0   BANK1   BANK2   BANK3   BANK4   BANK5   BANK6   BANK7   BANK8   BANK9  BANK10  BANK1
      +1  BANK12
  7631 ;;      Params:         0       0       0       0       0       0       0       0       0       0       0       0       
      +0       0
  7632 ;;      Locals:         0       0       0       0       0       0       0       0       0       0       0       0       
      +0       0
  7633 ;;      Temps:          0       3       0       0       0       0       0       0       0       0       0       0       
      +0       0
  7634 ;;      Totals:         0       3       0       0       0       0       0       0       0       0       0       0       
      +0       0
  7635 ;;Total ram usage:        3 bytes
  7636 ;; Hardware stack levels used: 1
  7637 ;; Hardware stack levels required when called: 11
  7638 ;; This function calls:
  7639 ;;		Absolute function
  7640 ;;		_I2C1_CallbackReturnReset
  7641 ;;		_I2C1_CallbackReturnStop
  7642 ;;		_I2C1_DO_SEND_RESTART_READ
  7643 ;;		_I2C1_DO_SEND_RESTART_WRITE
  7644 ;;		_I2C1_DO_SEND_STOP
  7645 ;;		_I2C1_MasterIsNack
  7646 ;;		_I2C1_MasterSendTxData
  7647 ;;		_rd1RegCompleteHandler
  7648 ;;		_rd1RegCompleteHandler@i2c_simple_master$F1293
  7649 ;;		_rd2RegCompleteHandler
  7650 ;;		_rd2RegCompleteHandler@i2c_simple_master$F1301
  7651 ;;		_rdBlkRegCompleteHandler
  7652 ;;		_rdBlkRegCompleteHandler@i2c_simple_master$F1313
  7653 ;;		_wr1RegCompleteHandler
  7654 ;;		_wr1RegCompleteHandler@i2c_simple_master$F1283
  7655 ;;		_wr2RegCompleteHandler
  7656 ;;		_wr2RegCompleteHandler@i2c_simple_master$F1307
  7657 ;; This function is called by:
  7658 ;;		_I2C1_MasterFsm
  7659 ;; This function uses a non-reentrant model
  7660 ;;
  7661                           
  7662                           
  7663                           ;psect for function _I2C1_DO_TX
  7664  05B7                     _I2C1_DO_TX:
  7665  05B7                     l2965:	
  7666                           ;incstack = 0
  7667 ;; hardware stack exceeded
  7668                           ; Regs used in _I2C1_DO_TX: [wreg-fsr1h+status,2+status,0+pclath+cstack]
  7669                           
  7670                           
  7671                           ;mcc_generated_files/i2c1_master.c: 356:     if(I2C1_MasterIsNack())
  7672  05B7  318C  24D5  3185   	fcall	_I2C1_MasterIsNack
  7673  05BA  3A00               	xorlw	0
  7674  05BB  1903               	skipnz
  7675  05BC  2DBE               	goto	u971
  7676  05BD  2DBF               	goto	u970
  7677  05BE                     u971:
  7678  05BE  2DF0               	goto	l606
  7679  05BF                     u970:
  7680  05BF  2DCC               	goto	l2983
  7681  05C0                     l2969:
  7682                           
  7683                           ;mcc_generated_files/i2c1_master.c: 361:                 return I2C1_DO_SEND_RESTART_REA
      +                          D();
  7684  05C0  318C  24A2  3185   	fcall	_I2C1_DO_SEND_RESTART_READ
  7685  05C3  2E0C               	goto	l609
  7686  05C4                     l2973:
  7687                           
  7688                           ;mcc_generated_files/i2c1_master.c: 363:                   return I2C1_DO_SEND_RESTART_W
      +                          RITE();
  7689  05C4  318C  24A7  3185   	fcall	_I2C1_DO_SEND_RESTART_WRITE
  7690  05C7  2E0C               	goto	l609
  7691  05C8                     l2977:
  7692                           
  7693                           ;mcc_generated_files/i2c1_master.c: 367:                 return I2C1_DO_SEND_STOP();
  7694  05C8  318C  24B1  3185   	fcall	_I2C1_DO_SEND_STOP
  7695  05CB  2E0C               	goto	l609
  7696  05CC                     l2983:
  7697  05CC  0020               	movlb	0	; select bank0
  7698  05CD  085B               	movf	low ((_I2C1_Status| 0+15)),w
  7699  05CE  00AA               	movwf	??_I2C1_DO_TX
  7700  05CF  082A               	movf	??_I2C1_DO_TX,w
  7701  05D0  00A9               	movwf	rdBlkRegCompleteHandler@i2c_simple_master$F1313@p
  7702  05D1  3006               	movlw	6
  7703  05D2  3E4C               	addlw	(low (_I2C1_Status| 0))& (0+255)
  7704  05D3  0086               	movwf	6
  7705  05D4  0187               	clrf	7
  7706  05D5  3F41               	moviw [1]fsr1
  7707  05D6  008A               	movwf	10
  7708  05D7  3F40               	moviw [0]fsr1
  7709  05D8  000A               	callw
  7710  05D9  3185               	pagesel	$
  7711  05DA  0020               	movlb	0	; select bank0
  7712  05DB  00AB               	movwf	??_I2C1_DO_TX+1
  7713  05DC  01AC               	clrf	??_I2C1_DO_TX+2
  7714                           
  7715                           ; Switch on 2 bytes has been partitioned into a top level switch of size 1, and 1 sub-sw
      +                          itches
  7716                           ; Switch size 1, requested type "simple"
  7717                           ; Number of cases is 1, Range of values is 0 to 0
  7718                           ; switch strategies available:
  7719                           ; Name         Instructions Cycles
  7720                           ; simple_byte            4     3 (average)
  7721                           ; direct_byte            8     6 (fixed)
  7722                           ; jumptable            260     6 (fixed)
  7723                           ;	Chosen strategy is simple_byte
  7724  05DD  082C               	movf	??_I2C1_DO_TX+2,w
  7725  05DE  3A00               	xorlw	0	; case 0
  7726  05DF  1903               	skipnz
  7727  05E0  2DE2               	goto	l4023
  7728  05E1  2DC8               	goto	l2977
  7729  05E2                     l4023:
  7730                           
  7731                           ; Switch size 1, requested type "simple"
  7732                           ; Number of cases is 4, Range of values is 1 to 4
  7733                           ; switch strategies available:
  7734                           ; Name         Instructions Cycles
  7735                           ; simple_byte           13     7 (average)
  7736                           ; direct_byte           17     9 (fixed)
  7737                           ; jumptable            263     9 (fixed)
  7738                           ;	Chosen strategy is simple_byte
  7739  05E2  082B               	movf	??_I2C1_DO_TX+1,w
  7740  05E3  3A01               	xorlw	1	; case 1
  7741  05E4  1903               	skipnz
  7742  05E5  2DC8               	goto	l2977
  7743  05E6  3A03               	xorlw	3	; case 2
  7744  05E7  1903               	skipnz
  7745  05E8  2DC0               	goto	l2969
  7746  05E9  3A01               	xorlw	1	; case 3
  7747  05EA  1903               	skipnz
  7748  05EB  2DC4               	goto	l2973
  7749  05EC  3A07               	xorlw	7	; case 4
  7750  05ED  1903               	skipnz
  7751  05EE  2DC8               	goto	l2977
  7752  05EF  2DC8               	goto	l2977
  7753  05F0                     l606:	
  7754                           ;mcc_generated_files/i2c1_master.c: 370:     else
  7755                           
  7756                           
  7757                           ;mcc_generated_files/i2c1_master.c: 371:     {;mcc_generated_files/i2c1_master.c: 372:  
      +                                 I2C1_Status.addressNackCheck = 0;
  7758  05F0  0020               	movlb	0	; select bank0
  7759  05F1  1068               	bcf	_I2C1_Status+28,0
  7760  05F2                     l2985:
  7761                           
  7762                           ;mcc_generated_files/i2c1_master.c: 373:         I2C1_MasterSendTxData(*I2C1_Status.data
      +                          _ptr++);
  7763  05F2  3017               	movlw	23
  7764  05F3  3E4C               	addlw	(low (_I2C1_Status| 0))& (0+255)
  7765  05F4  0086               	movwf	6
  7766  05F5  0187               	clrf	7
  7767  05F6  3F40               	moviw [0]fsr1
  7768  05F7  0084               	movwf	4
  7769  05F8  0185               	clrf	5
  7770  05F9  0A81               	incf	1,f
  7771  05FA  0800               	movf	0,w
  7772  05FB  318C  24CF  3185   	fcall	_I2C1_MasterSendTxData
  7773  05FE                     l2987:
  7774                           
  7775                           ;mcc_generated_files/i2c1_master.c: 374:         return (--I2C1_Status.data_length)?I2C1
      +                          _TX:I2C1_TX_EMPTY;
  7776  05FE  3001               	movlw	1
  7777  05FF  0020               	movlb	0	; select bank0
  7778  0600  02E4               	subwf	_I2C1_Status+24,f
  7779  0601  3000               	movlw	0
  7780  0602  3BE5               	subwfb	_I2C1_Status+25,f
  7781  0603  0864               	movf	_I2C1_Status+24,w
  7782  0604  0465               	iorwf	_I2C1_Status+25,w
  7783  0605  1D03               	btfss	3,2
  7784  0606  2E08               	goto	u981
  7785  0607  2E09               	goto	u980
  7786  0608                     u981:
  7787  0608  2E0B               	goto	l2991
  7788  0609                     u980:
  7789  0609                     l2989:
  7790  0609  3006               	movlw	6
  7791  060A  2E0C               	goto	l609
  7792  060B                     l2991:
  7793  060B  3003               	movlw	3
  7794  060C                     l609:
  7795  060C  0008               	return
  7796  060D                     __end_of_I2C1_DO_TX:
  7797                           
  7798                           	psect	text43
  7799  0CF4                     __ptext43:	
  7800 ;; *************** function _I2C1_DO_SEND_ADR_WRITE *****************
  7801 ;; Defined at:
  7802 ;;		line 347 in file "mcc_generated_files/i2c1_master.c"
  7803 ;; Parameters:    Size  Location     Type
  7804 ;;		None
  7805 ;; Auto vars:     Size  Location     Type
  7806 ;;		None
  7807 ;; Return value:  Size  Location     Type
  7808 ;;                  1    wreg      enum E3009
  7809 ;; Registers used:
  7810 ;;		wreg, status,2, status,0, pclath, cstack
  7811 ;; Tracked objects:
  7812 ;;		On entry : 0/0
  7813 ;;		On exit  : 0/0
  7814 ;;		Unchanged: 0/0
  7815 ;; Data sizes:     COMMON   BANK0   BANK1   BANK2   BANK3   BANK4   BANK5   BANK6   BANK7   BANK8   BANK9  BANK10  BANK1
      +1  BANK12
  7816 ;;      Params:         0       0       0       0       0       0       0       0       0       0       0       0       
      +0       0
  7817 ;;      Locals:         0       0       0       0       0       0       0       0       0       0       0       0       
      +0       0
  7818 ;;      Temps:          0       0       0       0       0       0       0       0       0       0       0       0       
      +0       0
  7819 ;;      Totals:         0       0       0       0       0       0       0       0       0       0       0       0       
      +0       0
  7820 ;;Total ram usage:        0 bytes
  7821 ;; Hardware stack levels used: 1
  7822 ;; Hardware stack levels required when called: 9
  7823 ;; This function calls:
  7824 ;;		_I2C1_MasterSendTxData
  7825 ;; This function is called by:
  7826 ;;		_I2C1_MasterFsm
  7827 ;; This function uses a non-reentrant model
  7828 ;;
  7829                           
  7830                           
  7831                           ;psect for function _I2C1_DO_SEND_ADR_WRITE
  7832  0CF4                     _I2C1_DO_SEND_ADR_WRITE:
  7833  0CF4                     l2957:	
  7834                           ;incstack = 0
  7835                           ; Regs used in _I2C1_DO_SEND_ADR_WRITE: [wreg+status,2+status,0+pclath+cstack]
  7836                           
  7837                           
  7838                           ;mcc_generated_files/i2c1_master.c: 349:     I2C1_Status.addressNackCheck = 1;
  7839  0CF4  0020               	movlb	0	; select bank0
  7840  0CF5  1468               	bsf	_I2C1_Status+28,0
  7841  0CF6                     l2959:
  7842                           
  7843                           ;mcc_generated_files/i2c1_master.c: 350:     I2C1_MasterSendTxData((uint8_t) (I2C1_Statu
      +                          s.address << 1));
  7844  0CF6  3562               	lslf	_I2C1_Status+22,w
  7845  0CF7  318C  24CF  318C   	fcall	_I2C1_MasterSendTxData
  7846  0CFA                     l2961:
  7847                           
  7848                           ;mcc_generated_files/i2c1_master.c: 351:     return I2C1_TX;
  7849  0CFA  3003               	movlw	3
  7850  0CFB                     l603:
  7851  0CFB  0008               	return
  7852  0CFC                     __end_of_I2C1_DO_SEND_ADR_WRITE:
  7853                           
  7854                           	psect	text44
  7855  0D0D                     __ptext44:	
  7856 ;; *************** function _I2C1_DO_SEND_ADR_READ *****************
  7857 ;; Defined at:
  7858 ;;		line 340 in file "mcc_generated_files/i2c1_master.c"
  7859 ;; Parameters:    Size  Location     Type
  7860 ;;		None
  7861 ;; Auto vars:     Size  Location     Type
  7862 ;;		None
  7863 ;; Return value:  Size  Location     Type
  7864 ;;                  1    wreg      enum E3009
  7865 ;; Registers used:
  7866 ;;		wreg, status,2, status,0, pclath, cstack
  7867 ;; Tracked objects:
  7868 ;;		On entry : 0/0
  7869 ;;		On exit  : 0/0
  7870 ;;		Unchanged: 0/0
  7871 ;; Data sizes:     COMMON   BANK0   BANK1   BANK2   BANK3   BANK4   BANK5   BANK6   BANK7   BANK8   BANK9  BANK10  BANK1
      +1  BANK12
  7872 ;;      Params:         0       0       0       0       0       0       0       0       0       0       0       0       
      +0       0
  7873 ;;      Locals:         0       0       0       0       0       0       0       0       0       0       0       0       
      +0       0
  7874 ;;      Temps:          0       0       0       0       0       0       0       0       0       0       0       0       
      +0       0
  7875 ;;      Totals:         0       0       0       0       0       0       0       0       0       0       0       0       
      +0       0
  7876 ;;Total ram usage:        0 bytes
  7877 ;; Hardware stack levels used: 1
  7878 ;; Hardware stack levels required when called: 9
  7879 ;; This function calls:
  7880 ;;		_I2C1_MasterSendTxData
  7881 ;; This function is called by:
  7882 ;;		_I2C1_MasterFsm
  7883 ;; This function uses a non-reentrant model
  7884 ;;
  7885                           
  7886                           
  7887                           ;psect for function _I2C1_DO_SEND_ADR_READ
  7888  0D0D                     _I2C1_DO_SEND_ADR_READ:
  7889  0D0D                     l2949:	
  7890                           ;incstack = 0
  7891                           ; Regs used in _I2C1_DO_SEND_ADR_READ: [wreg+status,2+status,0+pclath+cstack]
  7892                           
  7893                           
  7894                           ;mcc_generated_files/i2c1_master.c: 342:     I2C1_Status.addressNackCheck = 1;
  7895  0D0D  0020               	movlb	0	; select bank0
  7896  0D0E  1468               	bsf	_I2C1_Status+28,0
  7897  0D0F                     l2951:
  7898                           
  7899                           ;mcc_generated_files/i2c1_master.c: 343:     I2C1_MasterSendTxData((uint8_t) (I2C1_Statu
      +                          s.address << 1 | 1));
  7900  0D0F  1403               	setc
  7901  0D10  0D62               	rlf	_I2C1_Status+22,w
  7902  0D11  318C  24CF  318D   	fcall	_I2C1_MasterSendTxData
  7903  0D14                     l2953:
  7904                           
  7905                           ;mcc_generated_files/i2c1_master.c: 344:     return I2C1_RCEN;
  7906  0D14  3005               	movlw	5
  7907  0D15                     l600:
  7908  0D15  0008               	return
  7909  0D16                     __end_of_I2C1_DO_SEND_ADR_READ:
  7910                           
  7911                           	psect	text45
  7912  0C9D                     __ptext45:	
  7913 ;; *************** function _I2C1_DO_IDLE *****************
  7914 ;; Defined at:
  7915 ;;		line 333 in file "mcc_generated_files/i2c1_master.c"
  7916 ;; Parameters:    Size  Location     Type
  7917 ;;		None
  7918 ;; Auto vars:     Size  Location     Type
  7919 ;;		None
  7920 ;; Return value:  Size  Location     Type
  7921 ;;                  1    wreg      enum E3009
  7922 ;; Registers used:
  7923 ;;		wreg, status,2
  7924 ;; Tracked objects:
  7925 ;;		On entry : 0/0
  7926 ;;		On exit  : 0/0
  7927 ;;		Unchanged: 0/0
  7928 ;; Data sizes:     COMMON   BANK0   BANK1   BANK2   BANK3   BANK4   BANK5   BANK6   BANK7   BANK8   BANK9  BANK10  BANK1
      +1  BANK12
  7929 ;;      Params:         0       0       0       0       0       0       0       0       0       0       0       0       
      +0       0
  7930 ;;      Locals:         0       0       0       0       0       0       0       0       0       0       0       0       
      +0       0
  7931 ;;      Temps:          0       0       0       0       0       0       0       0       0       0       0       0       
      +0       0
  7932 ;;      Totals:         0       0       0       0       0       0       0       0       0       0       0       0       
      +0       0
  7933 ;;Total ram usage:        0 bytes
  7934 ;; Hardware stack levels used: 1
  7935 ;; Hardware stack levels required when called: 8
  7936 ;; This function calls:
  7937 ;;		Nothing
  7938 ;; This function is called by:
  7939 ;;		_I2C1_MasterFsm
  7940 ;; This function uses a non-reentrant model
  7941 ;;
  7942                           
  7943                           
  7944                           ;psect for function _I2C1_DO_IDLE
  7945  0C9D                     _I2C1_DO_IDLE:
  7946  0C9D                     l2941:	
  7947                           ;incstack = 0
  7948                           ; Regs used in _I2C1_DO_IDLE: [wreg+status,2]
  7949                           
  7950                           
  7951                           ;mcc_generated_files/i2c1_master.c: 335:     I2C1_Status.busy = 0;
  7952  0C9D  0020               	movlb	0	; select bank0
  7953  0C9E  10E8               	bcf	_I2C1_Status+28,1
  7954  0C9F                     l2943:
  7955                           
  7956                           ;mcc_generated_files/i2c1_master.c: 336:     I2C1_Status.error = I2C1_NOERR;
  7957  0C9F  01E7               	clrf	_I2C1_Status+27
  7958  0CA0                     l2945:
  7959                           
  7960                           ;mcc_generated_files/i2c1_master.c: 337:     return I2C1_RESET;
  7961  0CA0  300E               	movlw	14
  7962  0CA1                     l597:
  7963  0CA1  0008               	return
  7964  0CA2                     __end_of_I2C1_DO_IDLE:
  7965                           
  7966                           	psect	text46
  7967  072F                     __ptext46:	
  7968 ;; *************** function _I2C1_DO_TX_EMPTY *****************
  7969 ;; Defined at:
  7970 ;;		line 409 in file "mcc_generated_files/i2c1_master.c"
  7971 ;; Parameters:    Size  Location     Type
  7972 ;;		None
  7973 ;; Auto vars:     Size  Location     Type
  7974 ;;		None
  7975 ;; Return value:  Size  Location     Type
  7976 ;;                  1    wreg      enum E3009
  7977 ;; Registers used:
  7978 ;;		wreg, fsr0l, fsr0h, fsr1l, fsr1h, status,2, status,0, pclath, cstack
  7979 ;; Tracked objects:
  7980 ;;		On entry : 0/0
  7981 ;;		On exit  : 0/0
  7982 ;;		Unchanged: 0/0
  7983 ;; Data sizes:     COMMON   BANK0   BANK1   BANK2   BANK3   BANK4   BANK5   BANK6   BANK7   BANK8   BANK9  BANK10  BANK1
      +1  BANK12
  7984 ;;      Params:         0       0       0       0       0       0       0       0       0       0       0       0       
      +0       0
  7985 ;;      Locals:         0       0       0       0       0       0       0       0       0       0       0       0       
      +0       0
  7986 ;;      Temps:          0       3       0       0       0       0       0       0       0       0       0       0       
      +0       0
  7987 ;;      Totals:         0       3       0       0       0       0       0       0       0       0       0       0       
      +0       0
  7988 ;;Total ram usage:        3 bytes
  7989 ;; Hardware stack levels used: 1
  7990 ;; Hardware stack levels required when called: 11
  7991 ;; This function calls:
  7992 ;;		Absolute function
  7993 ;;		_I2C1_CallbackReturnReset
  7994 ;;		_I2C1_CallbackReturnStop
  7995 ;;		_I2C1_DO_SEND_RESTART
  7996 ;;		_I2C1_DO_SEND_STOP
  7997 ;;		_I2C1_MasterSetIrq
  7998 ;;		_rd1RegCompleteHandler
  7999 ;;		_rd1RegCompleteHandler@i2c_simple_master$F1293
  8000 ;;		_rd2RegCompleteHandler
  8001 ;;		_rd2RegCompleteHandler@i2c_simple_master$F1301
  8002 ;;		_rdBlkRegCompleteHandler
  8003 ;;		_rdBlkRegCompleteHandler@i2c_simple_master$F1313
  8004 ;;		_wr1RegCompleteHandler
  8005 ;;		_wr1RegCompleteHandler@i2c_simple_master$F1283
  8006 ;;		_wr2RegCompleteHandler
  8007 ;;		_wr2RegCompleteHandler@i2c_simple_master$F1307
  8008 ;; This function is called by:
  8009 ;;		_I2C1_MasterFsm
  8010 ;; This function uses a non-reentrant model
  8011 ;;
  8012                           
  8013                           
  8014                           ;psect for function _I2C1_DO_TX_EMPTY
  8015  072F                     _I2C1_DO_TX_EMPTY:
  8016  072F                     l3037:	
  8017                           ;incstack = 0
  8018 ;; hardware stack exceeded
  8019                           ; Regs used in _I2C1_DO_TX_EMPTY: [wreg-fsr1h+status,2+status,0+pclath+cstack]
  8020                           
  8021                           
  8022                           ;mcc_generated_files/i2c1_master.c: 411:     I2C1_Status.bufferFree = 1;
  8023  072F  0020               	movlb	0	; select bank0
  8024  0730  15E8               	bsf	_I2C1_Status+28,3
  8025                           
  8026                           ;mcc_generated_files/i2c1_master.c: 412:     switch(I2C1_Status.callbackTable[I2C1_DATA_
      +                          COMPLETE](I2C1_Status.callbackPayload[I2C1_DATA_COMPLETE]))
  8027  0731  2F3F               	goto	l3055
  8028  0732                     l3039:
  8029                           
  8030                           ;mcc_generated_files/i2c1_master.c: 416:             return I2C1_DO_SEND_RESTART();
  8031  0732  318C  24AC  3187   	fcall	_I2C1_DO_SEND_RESTART
  8032  0735  2F5E               	goto	l640
  8033  0736                     l3043:
  8034                           
  8035                           ;mcc_generated_files/i2c1_master.c: 418:             I2C1_MasterSetIrq();
  8036  0736  318C  248A  3187   	fcall	_I2C1_MasterSetIrq
  8037  0739                     l3045:
  8038                           
  8039                           ;mcc_generated_files/i2c1_master.c: 419:             return I2C1_TX;
  8040  0739  3003               	movlw	3
  8041  073A  2F5E               	goto	l640
  8042  073B                     l3049:
  8043                           
  8044                           ;mcc_generated_files/i2c1_master.c: 422:             return I2C1_DO_SEND_STOP();
  8045  073B  318C  24B1  3187   	fcall	_I2C1_DO_SEND_STOP
  8046  073E  2F5E               	goto	l640
  8047  073F                     l3055:
  8048  073F  0858               	movf	low ((_I2C1_Status| 0+12)),w
  8049  0740  00AA               	movwf	??_I2C1_DO_TX_EMPTY
  8050  0741  082A               	movf	??_I2C1_DO_TX_EMPTY,w
  8051  0742  00A9               	movwf	rdBlkRegCompleteHandler@i2c_simple_master$F1313@p
  8052  0743  084D               	movf	_I2C1_Status+1,w
  8053  0744  008A               	movwf	10
  8054  0745  084C               	movf	_I2C1_Status,w
  8055  0746  000A               	callw
  8056  0747  3187               	pagesel	$
  8057  0748  0020               	movlb	0	; select bank0
  8058  0749  00AB               	movwf	??_I2C1_DO_TX_EMPTY+1
  8059  074A  01AC               	clrf	??_I2C1_DO_TX_EMPTY+2
  8060                           
  8061                           ; Switch on 2 bytes has been partitioned into a top level switch of size 1, and 1 sub-sw
      +                          itches
  8062                           ; Switch size 1, requested type "simple"
  8063                           ; Number of cases is 1, Range of values is 0 to 0
  8064                           ; switch strategies available:
  8065                           ; Name         Instructions Cycles
  8066                           ; simple_byte            4     3 (average)
  8067                           ; direct_byte            8     6 (fixed)
  8068                           ; jumptable            260     6 (fixed)
  8069                           ;	Chosen strategy is simple_byte
  8070  074B  082C               	movf	??_I2C1_DO_TX_EMPTY+2,w
  8071  074C  3A00               	xorlw	0	; case 0
  8072  074D  1903               	skipnz
  8073  074E  2F50               	goto	l4025
  8074  074F  2F3B               	goto	l3049
  8075  0750                     l4025:
  8076                           
  8077                           ; Switch size 1, requested type "simple"
  8078                           ; Number of cases is 4, Range of values is 1 to 4
  8079                           ; switch strategies available:
  8080                           ; Name         Instructions Cycles
  8081                           ; simple_byte           13     7 (average)
  8082                           ; direct_byte           17     9 (fixed)
  8083                           ; jumptable            263     9 (fixed)
  8084                           ;	Chosen strategy is simple_byte
  8085  0750  082B               	movf	??_I2C1_DO_TX_EMPTY+1,w
  8086  0751  3A01               	xorlw	1	; case 1
  8087  0752  1903               	skipnz
  8088  0753  2F3B               	goto	l3049
  8089  0754  3A03               	xorlw	3	; case 2
  8090  0755  1903               	skipnz
  8091  0756  2F32               	goto	l3039
  8092  0757  3A01               	xorlw	1	; case 3
  8093  0758  1903               	skipnz
  8094  0759  2F32               	goto	l3039
  8095  075A  3A07               	xorlw	7	; case 4
  8096  075B  1903               	skipnz
  8097  075C  2F36               	goto	l3043
  8098  075D  2F3B               	goto	l3049
  8099  075E                     l640:
  8100  075E  0008               	return
  8101  075F                     __end_of_I2C1_DO_TX_EMPTY:
  8102                           
  8103                           	psect	text47
  8104  0C8A                     __ptext47:	
  8105 ;; *************** function _I2C1_MasterSetIrq *****************
  8106 ;; Defined at:
  8107 ;;		line 645 in file "mcc_generated_files/i2c1_master.c"
  8108 ;; Parameters:    Size  Location     Type
  8109 ;;		None
  8110 ;; Auto vars:     Size  Location     Type
  8111 ;;		None
  8112 ;; Return value:  Size  Location     Type
  8113 ;;                  1    wreg      void 
  8114 ;; Registers used:
  8115 ;;		None
  8116 ;; Tracked objects:
  8117 ;;		On entry : 0/0
  8118 ;;		On exit  : 0/0
  8119 ;;		Unchanged: 0/0
  8120 ;; Data sizes:     COMMON   BANK0   BANK1   BANK2   BANK3   BANK4   BANK5   BANK6   BANK7   BANK8   BANK9  BANK10  BANK1
      +1  BANK12
  8121 ;;      Params:         0       0       0       0       0       0       0       0       0       0       0       0       
      +0       0
  8122 ;;      Locals:         0       0       0       0       0       0       0       0       0       0       0       0       
      +0       0
  8123 ;;      Temps:          0       0       0       0       0       0       0       0       0       0       0       0       
      +0       0
  8124 ;;      Totals:         0       0       0       0       0       0       0       0       0       0       0       0       
      +0       0
  8125 ;;Total ram usage:        0 bytes
  8126 ;; Hardware stack levels used: 1
  8127 ;; Hardware stack levels required when called: 8
  8128 ;; This function calls:
  8129 ;;		Nothing
  8130 ;; This function is called by:
  8131 ;;		_I2C1_DO_TX_EMPTY
  8132 ;; This function uses a non-reentrant model
  8133 ;;
  8134                           
  8135                           
  8136                           ;psect for function _I2C1_MasterSetIrq
  8137  0C8A                     _I2C1_MasterSetIrq:
  8138  0C8A                     l2891:	
  8139                           ;incstack = 0
  8140                           ; Regs used in _I2C1_MasterSetIrq: []
  8141                           
  8142                           
  8143                           ;mcc_generated_files/i2c1_master.c: 647:     PIR1bits.SSP1IF = 1;
  8144  0C8A  0020               	movlb	0	; select bank0
  8145  0C8B  1591               	bsf	17,3	;volatile
  8146  0C8C                     l760:
  8147  0C8C  0008               	return
  8148  0C8D                     __end_of_I2C1_MasterSetIrq:
  8149                           
  8150                           	psect	text48
  8151  0CD5                     __ptext48:	
  8152 ;; *************** function _I2C1_MasterIsNack *****************
  8153 ;; Defined at:
  8154 ;;		line 598 in file "mcc_generated_files/i2c1_master.c"
  8155 ;; Parameters:    Size  Location     Type
  8156 ;;		None
  8157 ;; Auto vars:     Size  Location     Type
  8158 ;;		None
  8159 ;; Return value:  Size  Location     Type
  8160 ;;                  1    wreg      _Bool 
  8161 ;; Registers used:
  8162 ;;		wreg, status,2, status,0
  8163 ;; Tracked objects:
  8164 ;;		On entry : 0/0
  8165 ;;		On exit  : 0/0
  8166 ;;		Unchanged: 0/0
  8167 ;; Data sizes:     COMMON   BANK0   BANK1   BANK2   BANK3   BANK4   BANK5   BANK6   BANK7   BANK8   BANK9  BANK10  BANK1
      +1  BANK12
  8168 ;;      Params:         0       0       0       0       0       0       0       0       0       0       0       0       
      +0       0
  8169 ;;      Locals:         0       0       0       0       0       0       0       0       0       0       0       0       
      +0       0
  8170 ;;      Temps:          0       0       0       0       0       0       0       0       0       0       0       0       
      +0       0
  8171 ;;      Totals:         0       0       0       0       0       0       0       0       0       0       0       0       
      +0       0
  8172 ;;Total ram usage:        0 bytes
  8173 ;; Hardware stack levels used: 1
  8174 ;; Hardware stack levels required when called: 8
  8175 ;; This function calls:
  8176 ;;		Nothing
  8177 ;; This function is called by:
  8178 ;;		_I2C1_MasterFsm
  8179 ;;		_I2C1_DO_TX
  8180 ;; This function uses a non-reentrant model
  8181 ;;
  8182                           
  8183                           
  8184                           ;psect for function _I2C1_MasterIsNack
  8185  0CD5                     _I2C1_MasterIsNack:
  8186  0CD5                     l2841:	
  8187                           ;incstack = 0
  8188                           ; Regs used in _I2C1_MasterIsNack: [wreg+status,2+status,0]
  8189                           
  8190                           
  8191                           ;mcc_generated_files/i2c1_master.c: 600:     return SSP1CON2bits.ACKSTAT;
  8192  0CD5  0024               	movlb	4	; select bank4
  8193  0CD6  0E16               	swapf	22,w	;volatile
  8194  0CD7  0C89               	rrf	9,f
  8195  0CD8  0C89               	rrf	9,f
  8196  0CD9  3901               	andlw	1
  8197  0CDA                     l733:
  8198  0CDA  0008               	return
  8199  0CDB                     __end_of_I2C1_MasterIsNack:
  8200                           
  8201                           	psect	text49
  8202  0CCF                     __ptext49:	
  8203 ;; *************** function _I2C1_MasterSendTxData *****************
  8204 ;; Defined at:
  8205 ;;		line 568 in file "mcc_generated_files/i2c1_master.c"
  8206 ;; Parameters:    Size  Location     Type
  8207 ;;  data            1    wreg     unsigned char 
  8208 ;; Auto vars:     Size  Location     Type
  8209 ;;  data            1    0[BANK0 ] unsigned char 
  8210 ;; Return value:  Size  Location     Type
  8211 ;;                  1    wreg      void 
  8212 ;; Registers used:
  8213 ;;		wreg
  8214 ;; Tracked objects:
  8215 ;;		On entry : 0/0
  8216 ;;		On exit  : 0/0
  8217 ;;		Unchanged: 0/0
  8218 ;; Data sizes:     COMMON   BANK0   BANK1   BANK2   BANK3   BANK4   BANK5   BANK6   BANK7   BANK8   BANK9  BANK10  BANK1
      +1  BANK12
  8219 ;;      Params:         0       0       0       0       0       0       0       0       0       0       0       0       
      +0       0
  8220 ;;      Locals:         0       1       0       0       0       0       0       0       0       0       0       0       
      +0       0
  8221 ;;      Temps:          0       0       0       0       0       0       0       0       0       0       0       0       
      +0       0
  8222 ;;      Totals:         0       1       0       0       0       0       0       0       0       0       0       0       
      +0       0
  8223 ;;Total ram usage:        1 bytes
  8224 ;; Hardware stack levels used: 1
  8225 ;; Hardware stack levels required when called: 8
  8226 ;; This function calls:
  8227 ;;		Nothing
  8228 ;; This function is called by:
  8229 ;;		_I2C1_DO_SEND_ADR_READ
  8230 ;;		_I2C1_DO_SEND_ADR_WRITE
  8231 ;;		_I2C1_DO_TX
  8232 ;; This function uses a non-reentrant model
  8233 ;;
  8234                           
  8235                           
  8236                           ;psect for function _I2C1_MasterSendTxData
  8237  0CCF                     _I2C1_MasterSendTxData:
  8238                           
  8239                           ;incstack = 0
  8240                           ; Regs used in _I2C1_MasterSendTxData: [wreg]
  8241                           ;I2C1_MasterSendTxData@data stored from wreg
  8242  0CCF  0020               	movlb	0	; select bank0
  8243  0CD0  00A0               	movwf	I2C1_MasterSendTxData@data
  8244  0CD1                     l2845:
  8245                           
  8246                           ;mcc_generated_files/i2c1_master.c: 568: static __attribute__((inline)) void I2C1_Master
      +                          SendTxData(uint8_t data);mcc_generated_files/i2c1_master.c: 569: {;mcc_generated_files/i
      +                          2c1_master.c: 570:     SSP1BUF = data;
  8247  0CD1  0820               	movf	I2C1_MasterSendTxData@data,w
  8248  0CD2  0024               	movlb	4	; select bank4
  8249  0CD3  0091               	movwf	17	;volatile
  8250  0CD4                     l715:
  8251  0CD4  0008               	return
  8252  0CD5                     __end_of_I2C1_MasterSendTxData:
  8253                           
  8254                           	psect	text50
  8255  0C95                     __ptext50:	
  8256 ;; *************** function _I2C1_MasterSendAck *****************
  8257 ;; Defined at:
  8258 ;;		line 603 in file "mcc_generated_files/i2c1_master.c"
  8259 ;; Parameters:    Size  Location     Type
  8260 ;;		None
  8261 ;; Auto vars:     Size  Location     Type
  8262 ;;		None
  8263 ;; Return value:  Size  Location     Type
  8264 ;;                  1    wreg      void 
  8265 ;; Registers used:
  8266 ;;		None
  8267 ;; Tracked objects:
  8268 ;;		On entry : 0/0
  8269 ;;		On exit  : 0/0
  8270 ;;		Unchanged: 0/0
  8271 ;; Data sizes:     COMMON   BANK0   BANK1   BANK2   BANK3   BANK4   BANK5   BANK6   BANK7   BANK8   BANK9  BANK10  BANK1
      +1  BANK12
  8272 ;;      Params:         0       0       0       0       0       0       0       0       0       0       0       0       
      +0       0
  8273 ;;      Locals:         0       0       0       0       0       0       0       0       0       0       0       0       
      +0       0
  8274 ;;      Temps:          0       0       0       0       0       0       0       0       0       0       0       0       
      +0       0
  8275 ;;      Totals:         0       0       0       0       0       0       0       0       0       0       0       0       
      +0       0
  8276 ;;Total ram usage:        0 bytes
  8277 ;; Hardware stack levels used: 1
  8278 ;; Hardware stack levels required when called: 8
  8279 ;; This function calls:
  8280 ;;		Nothing
  8281 ;; This function is called by:
  8282 ;;		_I2C1_DO_RX
  8283 ;;		_I2C1_DO_RX_ACK
  8284 ;; This function uses a non-reentrant model
  8285 ;;
  8286                           
  8287                           
  8288                           ;psect for function _I2C1_MasterSendAck
  8289  0C95                     _I2C1_MasterSendAck:
  8290  0C95                     l2869:	
  8291                           ;incstack = 0
  8292                           ; Regs used in _I2C1_MasterSendAck: []
  8293                           
  8294                           
  8295                           ;mcc_generated_files/i2c1_master.c: 605:     SSP1CON2bits.ACKDT = 0;
  8296  0C95  0024               	movlb	4	; select bank4
  8297  0C96  1296               	bcf	22,5	;volatile
  8298                           
  8299                           ;mcc_generated_files/i2c1_master.c: 606:     SSP1CON2bits.ACKEN = 1;
  8300  0C97  1616               	bsf	22,4	;volatile
  8301  0C98                     l736:
  8302  0C98  0008               	return
  8303  0C99                     __end_of_I2C1_MasterSendAck:
  8304                           
  8305                           	psect	text51
  8306  0C87                     __ptext51:	
  8307 ;; *************** function _I2C1_MasterGetRxData *****************
  8308 ;; Defined at:
  8309 ;;		line 563 in file "mcc_generated_files/i2c1_master.c"
  8310 ;; Parameters:    Size  Location     Type
  8311 ;;		None
  8312 ;; Auto vars:     Size  Location     Type
  8313 ;;		None
  8314 ;; Return value:  Size  Location     Type
  8315 ;;                  1    wreg      unsigned char 
  8316 ;; Registers used:
  8317 ;;		wreg
  8318 ;; Tracked objects:
  8319 ;;		On entry : 0/0
  8320 ;;		On exit  : 0/0
  8321 ;;		Unchanged: 0/0
  8322 ;; Data sizes:     COMMON   BANK0   BANK1   BANK2   BANK3   BANK4   BANK5   BANK6   BANK7   BANK8   BANK9  BANK10  BANK1
      +1  BANK12
  8323 ;;      Params:         0       0       0       0       0       0       0       0       0       0       0       0       
      +0       0
  8324 ;;      Locals:         0       0       0       0       0       0       0       0       0       0       0       0       
      +0       0
  8325 ;;      Temps:          0       0       0       0       0       0       0       0       0       0       0       0       
      +0       0
  8326 ;;      Totals:         0       0       0       0       0       0       0       0       0       0       0       0       
      +0       0
  8327 ;;Total ram usage:        0 bytes
  8328 ;; Hardware stack levels used: 1
  8329 ;; Hardware stack levels required when called: 8
  8330 ;; This function calls:
  8331 ;;		Nothing
  8332 ;; This function is called by:
  8333 ;;		_I2C1_DO_RX
  8334 ;; This function uses a non-reentrant model
  8335 ;;
  8336                           
  8337                           
  8338                           ;psect for function _I2C1_MasterGetRxData
  8339  0C87                     _I2C1_MasterGetRxData:
  8340  0C87                     l2865:	
  8341                           ;incstack = 0
  8342                           ; Regs used in _I2C1_MasterGetRxData: [wreg]
  8343                           
  8344                           
  8345                           ;mcc_generated_files/i2c1_master.c: 565:     return SSP1BUF;
  8346  0C87  0024               	movlb	4	; select bank4
  8347  0C88  0811               	movf	17,w	;volatile
  8348  0C89                     l712:
  8349  0C89  0008               	return
  8350  0C8A                     __end_of_I2C1_MasterGetRxData:
  8351                           
  8352                           	psect	text52
  8353  0C91                     __ptext52:	
  8354 ;; *************** function _I2C1_MasterSendNack *****************
  8355 ;; Defined at:
  8356 ;;		line 609 in file "mcc_generated_files/i2c1_master.c"
  8357 ;; Parameters:    Size  Location     Type
  8358 ;;		None
  8359 ;; Auto vars:     Size  Location     Type
  8360 ;;		None
  8361 ;; Return value:  Size  Location     Type
  8362 ;;                  1    wreg      void 
  8363 ;; Registers used:
  8364 ;;		None
  8365 ;; Tracked objects:
  8366 ;;		On entry : 0/0
  8367 ;;		On exit  : 0/0
  8368 ;;		Unchanged: 0/0
  8369 ;; Data sizes:     COMMON   BANK0   BANK1   BANK2   BANK3   BANK4   BANK5   BANK6   BANK7   BANK8   BANK9  BANK10  BANK1
      +1  BANK12
  8370 ;;      Params:         0       0       0       0       0       0       0       0       0       0       0       0       
      +0       0
  8371 ;;      Locals:         0       0       0       0       0       0       0       0       0       0       0       0       
      +0       0
  8372 ;;      Temps:          0       0       0       0       0       0       0       0       0       0       0       0       
      +0       0
  8373 ;;      Totals:         0       0       0       0       0       0       0       0       0       0       0       0       
      +0       0
  8374 ;;Total ram usage:        0 bytes
  8375 ;; Hardware stack levels used: 1
  8376 ;; Hardware stack levels required when called: 8
  8377 ;; This function calls:
  8378 ;;		Nothing
  8379 ;; This function is called by:
  8380 ;;		_I2C1_DO_RX_NACK_STOP
  8381 ;;		_I2C1_DO_RX_NACK_RESTART
  8382 ;; This function uses a non-reentrant model
  8383 ;;
  8384                           
  8385                           
  8386                           ;psect for function _I2C1_MasterSendNack
  8387  0C91                     _I2C1_MasterSendNack:
  8388  0C91                     l2801:	
  8389                           ;incstack = 0
  8390                           ; Regs used in _I2C1_MasterSendNack: []
  8391                           
  8392                           
  8393                           ;mcc_generated_files/i2c1_master.c: 611:     SSP1CON2bits.ACKDT = 1;
  8394  0C91  0024               	movlb	4	; select bank4
  8395  0C92  1696               	bsf	22,5	;volatile
  8396                           
  8397                           ;mcc_generated_files/i2c1_master.c: 612:     SSP1CON2bits.ACKEN = 1;
  8398  0C93  1616               	bsf	22,4	;volatile
  8399  0C94                     l739:
  8400  0C94  0008               	return
  8401  0C95                     __end_of_I2C1_MasterSendNack:
  8402                           
  8403                           	psect	text53
  8404  0C84                     __ptext53:	
  8405 ;; *************** function _I2C1_MasterStartRx *****************
  8406 ;; Defined at:
  8407 ;;		line 583 in file "mcc_generated_files/i2c1_master.c"
  8408 ;; Parameters:    Size  Location     Type
  8409 ;;		None
  8410 ;; Auto vars:     Size  Location     Type
  8411 ;;		None
  8412 ;; Return value:  Size  Location     Type
  8413 ;;                  1    wreg      void 
  8414 ;; Registers used:
  8415 ;;		None
  8416 ;; Tracked objects:
  8417 ;;		On entry : 0/0
  8418 ;;		On exit  : 0/0
  8419 ;;		Unchanged: 0/0
  8420 ;; Data sizes:     COMMON   BANK0   BANK1   BANK2   BANK3   BANK4   BANK5   BANK6   BANK7   BANK8   BANK9  BANK10  BANK1
      +1  BANK12
  8421 ;;      Params:         0       0       0       0       0       0       0       0       0       0       0       0       
      +0       0
  8422 ;;      Locals:         0       0       0       0       0       0       0       0       0       0       0       0       
      +0       0
  8423 ;;      Temps:          0       0       0       0       0       0       0       0       0       0       0       0       
      +0       0
  8424 ;;      Totals:         0       0       0       0       0       0       0       0       0       0       0       0       
      +0       0
  8425 ;;Total ram usage:        0 bytes
  8426 ;; Hardware stack levels used: 1
  8427 ;; Hardware stack levels required when called: 8
  8428 ;; This function calls:
  8429 ;;		Nothing
  8430 ;; This function is called by:
  8431 ;;		_I2C1_DO_RCEN
  8432 ;; This function uses a non-reentrant model
  8433 ;;
  8434                           
  8435                           
  8436                           ;psect for function _I2C1_MasterStartRx
  8437  0C84                     _I2C1_MasterStartRx:
  8438  0C84                     l2883:	
  8439                           ;incstack = 0
  8440                           ; Regs used in _I2C1_MasterStartRx: []
  8441                           
  8442                           
  8443                           ;mcc_generated_files/i2c1_master.c: 585:     SSP1CON2bits.RCEN = 1;
  8444  0C84  0024               	movlb	4	; select bank4
  8445  0C85  1596               	bsf	22,3	;volatile
  8446  0C86                     l724:
  8447  0C86  0008               	return
  8448  0C87                     __end_of_I2C1_MasterStartRx:
  8449                           
  8450                           	psect	text54
  8451  07E5                     __ptext54:	
  8452 ;; *************** function _rdBlkRegCompleteHandler@i2c_simple_master$F1313 *****************
  8453 ;; Defined at:
  8454 ;;		line 185 in file "mcc_generated_files/drivers/i2c_simple_master.c"
  8455 ;; Parameters:    Size  Location     Type
  8456 ;;  p               1    9[BANK0 ] PTR void 
  8457 ;;		 -> i2c_readDataBlock@d(3), i2c_write2ByteRegister@data(2), i2c_read2ByteRegister@result(2), i2c_read1ByteRegister@d
      +2(1), 
  8458 ;;		 -> i2c_write1ByteRegister@data(1), I2C1_ReadDataBlock@bufferBlock(3), I2C1_Write2ByteRegister@data(2), I2C1_Write1B
      +yteRegister@data(1), 
  8459 ;;		 -> I2C1_Read2ByteRegister@returnValue(2), NULL(0), I2C1_Read1ByteRegister@returnValue(1), 
  8460 ;; Auto vars:     Size  Location     Type
  8461 ;;		None
  8462 ;; Return value:  Size  Location     Type
  8463 ;;                  1    wreg      enum E360
  8464 ;; Registers used:
  8465 ;;		wreg, fsr1l, fsr1h, status,2, status,0, pclath, cstack
  8466 ;; Tracked objects:
  8467 ;;		On entry : 0/0
  8468 ;;		On exit  : 0/0
  8469 ;;		Unchanged: 0/0
  8470 ;; Data sizes:     COMMON   BANK0   BANK1   BANK2   BANK3   BANK4   BANK5   BANK6   BANK7   BANK8   BANK9  BANK10  BANK1
      +1  BANK12
  8471 ;;      Params:         0       1       0       0       0       0       0       0       0       0       0       0       
      +0       0
  8472 ;;      Locals:         0       0       0       0       0       0       0       0       0       0       0       0       
      +0       0
  8473 ;;      Temps:          0       0       0       0       0       0       0       0       0       0       0       0       
      +0       0
  8474 ;;      Totals:         0       1       0       0       0       0       0       0       0       0       0       0       
      +0       0
  8475 ;;Total ram usage:        1 bytes
  8476 ;; Hardware stack levels used: 1
  8477 ;; Hardware stack levels required when called: 10
  8478 ;; This function calls:
  8479 ;;		_I2C1_SetBuffer
  8480 ;;		_I2C1_SetDataCompleteCallback
  8481 ;; This function is called by:
  8482 ;;		_i2c_readDataBlock
  8483 ;;		_I2C1_DO_TX
  8484 ;;		_I2C1_DO_RX
  8485 ;;		_I2C1_DO_TX_EMPTY
  8486 ;;		_I2C1_DO_ADDRESS_NACK
  8487 ;;		_I2C1_DO_RX_EMPTY
  8488 ;; This function uses a non-reentrant model
  8489 ;;
  8490                           
  8491                           
  8492                           ;psect for function _rdBlkRegCompleteHandler@i2c_simple_master$F1313
  8493  07E5                     _rdBlkRegCompleteHandler@i2c_simple_master$F1313:
  8494  07E5                     l2933:	
  8495                           ;incstack = 0
  8496 ;; hardware stack exceeded
  8497                           ; Regs used in _rdBlkRegCompleteHandler@i2c_simple_master$F1313: [wreg+fsr1l+fsr1h+statu
      +                          s,2+status,0+pclath+cstack]
  8498                           
  8499                           
  8500                           ;mcc_generated_files/drivers/i2c_simple_master.c: 185: static i2c1_operations_t rdBlkReg
      +                          CompleteHandler(void *p);mcc_generated_files/drivers/i2c_simple_master.c: 186: {;mcc_gen
      +                          erated_files/drivers/i2c_simple_master.c: 187:     I2C1_SetBuffer(((buf_t *)p)->data,((b
      +                          uf_t*)p)->len);
  8501  07E5  0020               	movlb	0	; select bank0
  8502  07E6  0829               	movf	rdBlkRegCompleteHandler@i2c_simple_master$F1313@p,w
  8503  07E7  0086               	movwf	6
  8504  07E8  0187               	clrf	7
  8505  07E9  3F40               	moviw [0]fsr1
  8506  07EA  00A0               	movwf	I2C1_SetBuffer@bufferSize
  8507  07EB  3F41               	moviw [1]fsr1
  8508  07EC  00A1               	movwf	I2C1_SetBuffer@bufferSize+1
  8509  07ED  0829               	movf	rdBlkRegCompleteHandler@i2c_simple_master$F1313@p,w
  8510  07EE  3E02               	addlw	2
  8511  07EF  0086               	movwf	6
  8512  07F0  0187               	clrf	7
  8513  07F1  0801               	movf	1,w
  8514  07F2  318D  2595  3187   	fcall	_I2C1_SetBuffer
  8515                           
  8516                           ;mcc_generated_files/drivers/i2c_simple_master.c: 188:     I2C1_SetDataCompleteCallback(
      +                          ((void*)0),((void*)0));
  8517  07F5  3000               	movlw	0
  8518  07F6  0020               	movlb	0	; select bank0
  8519  07F7  00A5               	movwf	I2C1_SetDataCompleteCallback@cb
  8520  07F8  00A6               	movwf	I2C1_SetDataCompleteCallback@cb+1
  8521  07F9  01A7               	clrf	I2C1_SetDataCompleteCallback@ptr
  8522  07FA  318D  255D  3187   	fcall	_I2C1_SetDataCompleteCallback
  8523  07FD                     l2935:
  8524                           
  8525                           ;mcc_generated_files/drivers/i2c_simple_master.c: 189:     return I2C1_RESTART_READ;
  8526  07FD  3002               	movlw	2
  8527  07FE                     l844:
  8528  07FE  0008               	return
  8529  07FF                     __end_of_rdBlkRegCompleteHandler@i2c_simple_master$F1313:
  8530                           
  8531                           	psect	text55
  8532  0E3D                     __ptext55:	
  8533 ;; *************** function _rd2RegCompleteHandler@i2c_simple_master$F1301 *****************
  8534 ;; Defined at:
  8535 ;;		line 119 in file "mcc_generated_files/drivers/i2c_simple_master.c"
  8536 ;; Parameters:    Size  Location     Type
  8537 ;;  p               1    9[BANK0 ] PTR void 
  8538 ;;		 -> i2c_readDataBlock@d(3), i2c_write2ByteRegister@data(2), i2c_read2ByteRegister@result(2), i2c_read1ByteRegister@d
      +2(1), 
  8539 ;;		 -> i2c_write1ByteRegister@data(1), I2C1_ReadDataBlock@bufferBlock(3), I2C1_Write2ByteRegister@data(2), I2C1_Write1B
      +yteRegister@data(1), 
  8540 ;;		 -> I2C1_Read2ByteRegister@returnValue(2), NULL(0), I2C1_Read1ByteRegister@returnValue(1), 
  8541 ;; Auto vars:     Size  Location     Type
  8542 ;;		None
  8543 ;; Return value:  Size  Location     Type
  8544 ;;                  1    wreg      enum E360
  8545 ;; Registers used:
  8546 ;;		wreg, fsr1l, fsr1h, status,2, status,0, pclath, cstack
  8547 ;; Tracked objects:
  8548 ;;		On entry : 0/0
  8549 ;;		On exit  : 0/0
  8550 ;;		Unchanged: 0/0
  8551 ;; Data sizes:     COMMON   BANK0   BANK1   BANK2   BANK3   BANK4   BANK5   BANK6   BANK7   BANK8   BANK9  BANK10  BANK1
      +1  BANK12
  8552 ;;      Params:         0       1       0       0       0       0       0       0       0       0       0       0       
      +0       0
  8553 ;;      Locals:         0       0       0       0       0       0       0       0       0       0       0       0       
      +0       0
  8554 ;;      Temps:          0       0       0       0       0       0       0       0       0       0       0       0       
      +0       0
  8555 ;;      Totals:         0       1       0       0       0       0       0       0       0       0       0       0       
      +0       0
  8556 ;;Total ram usage:        1 bytes
  8557 ;; Hardware stack levels used: 1
  8558 ;; Hardware stack levels required when called: 10
  8559 ;; This function calls:
  8560 ;;		_I2C1_SetBuffer
  8561 ;;		_I2C1_SetDataCompleteCallback
  8562 ;; This function is called by:
  8563 ;;		_i2c_read2ByteRegister
  8564 ;;		_I2C1_DO_TX
  8565 ;;		_I2C1_DO_RX
  8566 ;;		_I2C1_DO_TX_EMPTY
  8567 ;;		_I2C1_DO_ADDRESS_NACK
  8568 ;;		_I2C1_DO_RX_EMPTY
  8569 ;; This function uses a non-reentrant model
  8570 ;;
  8571                           
  8572                           
  8573                           ;psect for function _rd2RegCompleteHandler@i2c_simple_master$F1301
  8574  0E3D                     _rd2RegCompleteHandler@i2c_simple_master$F1301:
  8575  0E3D                     l2917:	
  8576                           ;incstack = 0
  8577 ;; hardware stack exceeded
  8578                           ; Regs used in _rd2RegCompleteHandler@i2c_simple_master$F1301: [wreg+fsr1l+fsr1h+status,
      +                          2+status,0+pclath+cstack]
  8579                           
  8580                           
  8581                           ;mcc_generated_files/drivers/i2c_simple_master.c: 119: static i2c1_operations_t rd2RegCo
      +                          mpleteHandler(void *p);mcc_generated_files/drivers/i2c_simple_master.c: 120: {;mcc_gener
      +                          ated_files/drivers/i2c_simple_master.c: 121:     I2C1_SetBuffer(p,2);
  8582  0E3D  3002               	movlw	2
  8583  0E3E  0020               	movlb	0	; select bank0
  8584  0E3F  00A0               	movwf	I2C1_SetBuffer@bufferSize
  8585  0E40  3000               	movlw	0
  8586  0E41  00A1               	movwf	I2C1_SetBuffer@bufferSize+1
  8587  0E42  0829               	movf	rd2RegCompleteHandler@i2c_simple_master$F1301@p,w
  8588  0E43  318D  2595  318E   	fcall	_I2C1_SetBuffer
  8589  0E46                     l2919:
  8590                           
  8591                           ;mcc_generated_files/drivers/i2c_simple_master.c: 122:     I2C1_SetDataCompleteCallback(
      +                          ((void*)0),((void*)0));
  8592  0E46  3000               	movlw	0
  8593  0E47  0020               	movlb	0	; select bank0
  8594  0E48  00A5               	movwf	I2C1_SetDataCompleteCallback@cb
  8595  0E49  00A6               	movwf	I2C1_SetDataCompleteCallback@cb+1
  8596  0E4A  01A7               	clrf	I2C1_SetDataCompleteCallback@ptr
  8597  0E4B  318D  255D  318E   	fcall	_I2C1_SetDataCompleteCallback
  8598  0E4E                     l2921:
  8599                           
  8600                           ;mcc_generated_files/drivers/i2c_simple_master.c: 123:     return I2C1_RESTART_READ;
  8601  0E4E  3002               	movlw	2
  8602  0E4F                     l820:
  8603  0E4F  0008               	return
  8604  0E50                     __end_of_rd2RegCompleteHandler@i2c_simple_master$F1301:
  8605                           
  8606                           	psect	text56
  8607  0E2A                     __ptext56:	
  8608 ;; *************** function _rd1RegCompleteHandler@i2c_simple_master$F1293 *****************
  8609 ;; Defined at:
  8610 ;;		line 81 in file "mcc_generated_files/drivers/i2c_simple_master.c"
  8611 ;; Parameters:    Size  Location     Type
  8612 ;;  p               1    9[BANK0 ] PTR void 
  8613 ;;		 -> i2c_readDataBlock@d(3), i2c_write2ByteRegister@data(2), i2c_read2ByteRegister@result(2), i2c_read1ByteRegister@d
      +2(1), 
  8614 ;;		 -> i2c_write1ByteRegister@data(1), I2C1_ReadDataBlock@bufferBlock(3), I2C1_Write2ByteRegister@data(2), I2C1_Write1B
      +yteRegister@data(1), 
  8615 ;;		 -> I2C1_Read2ByteRegister@returnValue(2), NULL(0), I2C1_Read1ByteRegister@returnValue(1), 
  8616 ;; Auto vars:     Size  Location     Type
  8617 ;;		None
  8618 ;; Return value:  Size  Location     Type
  8619 ;;                  1    wreg      enum E360
  8620 ;; Registers used:
  8621 ;;		wreg, fsr1l, fsr1h, status,2, status,0, pclath, cstack
  8622 ;; Tracked objects:
  8623 ;;		On entry : 0/0
  8624 ;;		On exit  : 0/0
  8625 ;;		Unchanged: 0/0
  8626 ;; Data sizes:     COMMON   BANK0   BANK1   BANK2   BANK3   BANK4   BANK5   BANK6   BANK7   BANK8   BANK9  BANK10  BANK1
      +1  BANK12
  8627 ;;      Params:         0       1       0       0       0       0       0       0       0       0       0       0       
      +0       0
  8628 ;;      Locals:         0       0       0       0       0       0       0       0       0       0       0       0       
      +0       0
  8629 ;;      Temps:          0       0       0       0       0       0       0       0       0       0       0       0       
      +0       0
  8630 ;;      Totals:         0       1       0       0       0       0       0       0       0       0       0       0       
      +0       0
  8631 ;;Total ram usage:        1 bytes
  8632 ;; Hardware stack levels used: 1
  8633 ;; Hardware stack levels required when called: 10
  8634 ;; This function calls:
  8635 ;;		_I2C1_SetBuffer
  8636 ;;		_I2C1_SetDataCompleteCallback
  8637 ;; This function is called by:
  8638 ;;		_i2c_read1ByteRegister
  8639 ;;		_I2C1_DO_TX
  8640 ;;		_I2C1_DO_RX
  8641 ;;		_I2C1_DO_TX_EMPTY
  8642 ;;		_I2C1_DO_ADDRESS_NACK
  8643 ;;		_I2C1_DO_RX_EMPTY
  8644 ;; This function uses a non-reentrant model
  8645 ;;
  8646                           
  8647                           
  8648                           ;psect for function _rd1RegCompleteHandler@i2c_simple_master$F1293
  8649  0E2A                     _rd1RegCompleteHandler@i2c_simple_master$F1293:
  8650  0E2A                     l2909:	
  8651                           ;incstack = 0
  8652 ;; hardware stack exceeded
  8653                           ; Regs used in _rd1RegCompleteHandler@i2c_simple_master$F1293: [wreg+fsr1l+fsr1h+status,
      +                          2+status,0+pclath+cstack]
  8654                           
  8655                           
  8656                           ;mcc_generated_files/drivers/i2c_simple_master.c: 81: static i2c1_operations_t rd1RegCom
      +                          pleteHandler(void *p);mcc_generated_files/drivers/i2c_simple_master.c: 82: {;mcc_generat
      +                          ed_files/drivers/i2c_simple_master.c: 83:     I2C1_SetBuffer(p,1);
  8657  0E2A  3001               	movlw	1
  8658  0E2B  0020               	movlb	0	; select bank0
  8659  0E2C  00A0               	movwf	I2C1_SetBuffer@bufferSize
  8660  0E2D  3000               	movlw	0
  8661  0E2E  00A1               	movwf	I2C1_SetBuffer@bufferSize+1
  8662  0E2F  0829               	movf	rd1RegCompleteHandler@i2c_simple_master$F1293@p,w
  8663  0E30  318D  2595  318E   	fcall	_I2C1_SetBuffer
  8664  0E33                     l2911:
  8665                           
  8666                           ;mcc_generated_files/drivers/i2c_simple_master.c: 84:     I2C1_SetDataCompleteCallback((
      +                          (void*)0),((void*)0));
  8667  0E33  3000               	movlw	0
  8668  0E34  0020               	movlb	0	; select bank0
  8669  0E35  00A5               	movwf	I2C1_SetDataCompleteCallback@cb
  8670  0E36  00A6               	movwf	I2C1_SetDataCompleteCallback@cb+1
  8671  0E37  01A7               	clrf	I2C1_SetDataCompleteCallback@ptr
  8672  0E38  318D  255D  318E   	fcall	_I2C1_SetDataCompleteCallback
  8673  0E3B                     l2913:
  8674                           
  8675                           ;mcc_generated_files/drivers/i2c_simple_master.c: 85:     return I2C1_RESTART_READ;
  8676  0E3B  3002               	movlw	2
  8677  0E3C                     l805:
  8678  0E3C  0008               	return
  8679  0E3D                     __end_of_rd1RegCompleteHandler@i2c_simple_master$F1293:
  8680                           
  8681                           	psect	text57
  8682  0E17                     __ptext57:	
  8683 ;; *************** function _wr1RegCompleteHandler@i2c_simple_master$F1283 *****************
  8684 ;; Defined at:
  8685 ;;		line 34 in file "mcc_generated_files/drivers/i2c_simple_master.c"
  8686 ;; Parameters:    Size  Location     Type
  8687 ;;  p               1    9[BANK0 ] PTR void 
  8688 ;;		 -> i2c_readDataBlock@d(3), i2c_write2ByteRegister@data(2), i2c_read2ByteRegister@result(2), i2c_read1ByteRegister@d
      +2(1), 
  8689 ;;		 -> i2c_write1ByteRegister@data(1), I2C1_ReadDataBlock@bufferBlock(3), I2C1_Write2ByteRegister@data(2), I2C1_Write1B
      +yteRegister@data(1), 
  8690 ;;		 -> I2C1_Read2ByteRegister@returnValue(2), NULL(0), I2C1_Read1ByteRegister@returnValue(1), 
  8691 ;; Auto vars:     Size  Location     Type
  8692 ;;		None
  8693 ;; Return value:  Size  Location     Type
  8694 ;;                  1    wreg      enum E360
  8695 ;; Registers used:
  8696 ;;		wreg, fsr1l, fsr1h, status,2, status,0, pclath, cstack
  8697 ;; Tracked objects:
  8698 ;;		On entry : 0/0
  8699 ;;		On exit  : 0/0
  8700 ;;		Unchanged: 0/0
  8701 ;; Data sizes:     COMMON   BANK0   BANK1   BANK2   BANK3   BANK4   BANK5   BANK6   BANK7   BANK8   BANK9  BANK10  BANK1
      +1  BANK12
  8702 ;;      Params:         0       1       0       0       0       0       0       0       0       0       0       0       
      +0       0
  8703 ;;      Locals:         0       0       0       0       0       0       0       0       0       0       0       0       
      +0       0
  8704 ;;      Temps:          0       0       0       0       0       0       0       0       0       0       0       0       
      +0       0
  8705 ;;      Totals:         0       1       0       0       0       0       0       0       0       0       0       0       
      +0       0
  8706 ;;Total ram usage:        1 bytes
  8707 ;; Hardware stack levels used: 1
  8708 ;; Hardware stack levels required when called: 10
  8709 ;; This function calls:
  8710 ;;		_I2C1_SetBuffer
  8711 ;;		_I2C1_SetDataCompleteCallback
  8712 ;; This function is called by:
  8713 ;;		_i2c_write1ByteRegister
  8714 ;;		_I2C1_DO_TX
  8715 ;;		_I2C1_DO_RX
  8716 ;;		_I2C1_DO_TX_EMPTY
  8717 ;;		_I2C1_DO_ADDRESS_NACK
  8718 ;;		_I2C1_DO_RX_EMPTY
  8719 ;; This function uses a non-reentrant model
  8720 ;;
  8721                           
  8722                           
  8723                           ;psect for function _wr1RegCompleteHandler@i2c_simple_master$F1283
  8724  0E17                     _wr1RegCompleteHandler@i2c_simple_master$F1283:
  8725  0E17                     l2901:	
  8726                           ;incstack = 0
  8727 ;; hardware stack exceeded
  8728                           ; Regs used in _wr1RegCompleteHandler@i2c_simple_master$F1283: [wreg+fsr1l+fsr1h+status,
      +                          2+status,0+pclath+cstack]
  8729                           
  8730                           
  8731                           ;mcc_generated_files/drivers/i2c_simple_master.c: 34: static i2c1_operations_t wr1RegCom
      +                          pleteHandler(void *p);mcc_generated_files/drivers/i2c_simple_master.c: 35: {;mcc_generat
      +                          ed_files/drivers/i2c_simple_master.c: 36:     I2C1_SetBuffer(p,1);
  8732  0E17  3001               	movlw	1
  8733  0E18  0020               	movlb	0	; select bank0
  8734  0E19  00A0               	movwf	I2C1_SetBuffer@bufferSize
  8735  0E1A  3000               	movlw	0
  8736  0E1B  00A1               	movwf	I2C1_SetBuffer@bufferSize+1
  8737  0E1C  0829               	movf	wr1RegCompleteHandler@i2c_simple_master$F1283@p,w
  8738  0E1D  318D  2595  318E   	fcall	_I2C1_SetBuffer
  8739  0E20                     l2903:
  8740                           
  8741                           ;mcc_generated_files/drivers/i2c_simple_master.c: 37:     I2C1_SetDataCompleteCallback((
      +                          (void*)0),((void*)0));
  8742  0E20  3000               	movlw	0
  8743  0E21  0020               	movlb	0	; select bank0
  8744  0E22  00A5               	movwf	I2C1_SetDataCompleteCallback@cb
  8745  0E23  00A6               	movwf	I2C1_SetDataCompleteCallback@cb+1
  8746  0E24  01A7               	clrf	I2C1_SetDataCompleteCallback@ptr
  8747  0E25  318D  255D  318E   	fcall	_I2C1_SetDataCompleteCallback
  8748  0E28                     l2905:
  8749                           
  8750                           ;mcc_generated_files/drivers/i2c_simple_master.c: 38:     return I2C1_CONTINUE;
  8751  0E28  3004               	movlw	4
  8752  0E29                     l784:
  8753  0E29  0008               	return
  8754  0E2A                     __end_of_wr1RegCompleteHandler@i2c_simple_master$F1283:
  8755                           
  8756                           	psect	text58
  8757  0002                     __ptext58:	
  8758 ;; *************** function _I2C1_CallbackReturnReset *****************
  8759 ;; Defined at:
  8760 ;;		line 525 in file "mcc_generated_files/i2c1_master.c"
  8761 ;; Parameters:    Size  Location     Type
  8762 ;;  funPtr          1    9[BANK0 ] PTR void 
  8763 ;;		 -> i2c_readDataBlock@d(3), i2c_write2ByteRegister@data(2), i2c_read2ByteRegister@result(2), i2c_read1ByteRegister@d
      +2(1), 
  8764 ;;		 -> i2c_write1ByteRegister@data(1), I2C1_ReadDataBlock@bufferBlock(3), I2C1_Write2ByteRegister@data(2), I2C1_Write1B
      +yteRegister@data(1), 
  8765 ;;		 -> I2C1_Read2ByteRegister@returnValue(2), NULL(0), I2C1_Read1ByteRegister@returnValue(1), 
  8766 ;; Auto vars:     Size  Location     Type
  8767 ;;		None
  8768 ;; Return value:  Size  Location     Type
  8769 ;;                  1    wreg      enum E360
  8770 ;; Registers used:
  8771 ;;		wreg
  8772 ;; Tracked objects:
  8773 ;;		On entry : 0/0
  8774 ;;		On exit  : 0/0
  8775 ;;		Unchanged: 0/0
  8776 ;; Data sizes:     COMMON   BANK0   BANK1   BANK2   BANK3   BANK4   BANK5   BANK6   BANK7   BANK8   BANK9  BANK10  BANK1
      +1  BANK12
  8777 ;;      Params:         0       1       0       0       0       0       0       0       0       0       0       0       
      +0       0
  8778 ;;      Locals:         0       0       0       0       0       0       0       0       0       0       0       0       
      +0       0
  8779 ;;      Temps:          0       0       0       0       0       0       0       0       0       0       0       0       
      +0       0
  8780 ;;      Totals:         0       1       0       0       0       0       0       0       0       0       0       0       
      +0       0
  8781 ;;Total ram usage:        1 bytes
  8782 ;; Hardware stack levels used: 1
  8783 ;; Hardware stack levels required when called: 8
  8784 ;; This function calls:
  8785 ;;		Nothing
  8786 ;; This function is called by:
  8787 ;;		_I2C1_Open
  8788 ;;		_I2C1_DO_TX
  8789 ;;		_I2C1_DO_RX
  8790 ;;		_I2C1_DO_TX_EMPTY
  8791 ;;		_I2C1_DO_ADDRESS_NACK
  8792 ;;		_I2C1_DO_RX_EMPTY
  8793 ;; This function uses a non-reentrant model
  8794 ;;
  8795                           
  8796                           
  8797                           ;psect for function _I2C1_CallbackReturnReset
  8798  0002                     _I2C1_CallbackReturnReset:
  8799  0002                     l2897:	
  8800                           ;incstack = 0
  8801                           ; Regs used in _I2C1_CallbackReturnReset: [wreg]
  8802                           
  8803                           
  8804                           ;mcc_generated_files/i2c1_master.c: 525: i2c1_operations_t I2C1_CallbackReturnReset(void
      +                           *funPtr);mcc_generated_files/i2c1_master.c: 526: {;mcc_generated_files/i2c1_master.c: 5
      +                          27:     return I2C1_RESET_LINK;
  8805  0002  3005               	movlw	5
  8806  0003                     l696:
  8807  0003  0008               	return
  8808  0004                     __end_of_I2C1_CallbackReturnReset:
  8809                           
  8810                           	psect	text59
  8811  0C70                     __ptext59:	
  8812 ;; *************** function _I2C1_CallbackReturnStop *****************
  8813 ;; Defined at:
  8814 ;;		line 520 in file "mcc_generated_files/i2c1_master.c"
  8815 ;; Parameters:    Size  Location     Type
  8816 ;;  funPtr          1    9[BANK0 ] PTR void 
  8817 ;;		 -> i2c_readDataBlock@d(3), i2c_write2ByteRegister@data(2), i2c_read2ByteRegister@result(2), i2c_read1ByteRegister@d
      +2(1), 
  8818 ;;		 -> i2c_write1ByteRegister@data(1), I2C1_ReadDataBlock@bufferBlock(3), I2C1_Write2ByteRegister@data(2), I2C1_Write1B
      +yteRegister@data(1), 
  8819 ;;		 -> I2C1_Read2ByteRegister@returnValue(2), NULL(0), I2C1_Read1ByteRegister@returnValue(1), 
  8820 ;; Auto vars:     Size  Location     Type
  8821 ;;		None
  8822 ;; Return value:  Size  Location     Type
  8823 ;;                  1    wreg      enum E360
  8824 ;; Registers used:
  8825 ;;		wreg
  8826 ;; Tracked objects:
  8827 ;;		On entry : 0/0
  8828 ;;		On exit  : 0/0
  8829 ;;		Unchanged: 0/0
  8830 ;; Data sizes:     COMMON   BANK0   BANK1   BANK2   BANK3   BANK4   BANK5   BANK6   BANK7   BANK8   BANK9  BANK10  BANK1
      +1  BANK12
  8831 ;;      Params:         0       1       0       0       0       0       0       0       0       0       0       0       
      +0       0
  8832 ;;      Locals:         0       0       0       0       0       0       0       0       0       0       0       0       
      +0       0
  8833 ;;      Temps:          0       0       0       0       0       0       0       0       0       0       0       0       
      +0       0
  8834 ;;      Totals:         0       1       0       0       0       0       0       0       0       0       0       0       
      +0       0
  8835 ;;Total ram usage:        1 bytes
  8836 ;; Hardware stack levels used: 1
  8837 ;; Hardware stack levels required when called: 8
  8838 ;; This function calls:
  8839 ;;		Nothing
  8840 ;; This function is called by:
  8841 ;;		_I2C1_Open
  8842 ;;		_I2C1_SetCallback
  8843 ;;		_I2C1_DO_TX
  8844 ;;		_I2C1_DO_RX
  8845 ;;		_I2C1_DO_TX_EMPTY
  8846 ;;		_I2C1_DO_ADDRESS_NACK
  8847 ;;		_I2C1_DO_RX_EMPTY
  8848 ;; This function uses a non-reentrant model
  8849 ;;
  8850                           
  8851                           
  8852                           ;psect for function _I2C1_CallbackReturnStop
  8853  0C70                     _I2C1_CallbackReturnStop:
  8854  0C70                     l2893:	
  8855                           ;incstack = 0
  8856                           ; Regs used in _I2C1_CallbackReturnStop: [wreg]
  8857                           
  8858                           
  8859                           ;mcc_generated_files/i2c1_master.c: 520: i2c1_operations_t I2C1_CallbackReturnStop(void 
      +                          *funPtr);mcc_generated_files/i2c1_master.c: 521: {;mcc_generated_files/i2c1_master.c: 52
      +                          2:     return I2C1_STOP;
  8860  0C70  3001               	movlw	1
  8861  0C71                     l693:
  8862  0C71  0008               	return
  8863  0C72                     __end_of_I2C1_CallbackReturnStop:
  8864                           
  8865                           	psect	text60
  8866  0F06                     __ptext60:	
  8867 ;; *************** function _rdBlkRegCompleteHandler *****************
  8868 ;; Defined at:
  8869 ;;		line 170 in file "mcc_generated_files/examples/i2c1_master_example.c"
  8870 ;; Parameters:    Size  Location     Type
  8871 ;;  ptr             1    9[BANK0 ] PTR void 
  8872 ;;		 -> i2c_readDataBlock@d(3), i2c_write2ByteRegister@data(2), i2c_read2ByteRegister@result(2), i2c_read1ByteRegister@d
      +2(1), 
  8873 ;;		 -> i2c_write1ByteRegister@data(1), I2C1_ReadDataBlock@bufferBlock(3), I2C1_Write2ByteRegister@data(2), I2C1_Write1B
      +yteRegister@data(1), 
  8874 ;;		 -> I2C1_Read2ByteRegister@returnValue(2), NULL(0), I2C1_Read1ByteRegister@returnValue(1), 
  8875 ;; Auto vars:     Size  Location     Type
  8876 ;;		None
  8877 ;; Return value:  Size  Location     Type
  8878 ;;                  1    wreg      enum E360
  8879 ;; Registers used:
  8880 ;;		wreg, fsr1l, fsr1h, status,2, status,0, pclath, cstack
  8881 ;; Tracked objects:
  8882 ;;		On entry : 0/0
  8883 ;;		On exit  : 0/0
  8884 ;;		Unchanged: 0/0
  8885 ;; Data sizes:     COMMON   BANK0   BANK1   BANK2   BANK3   BANK4   BANK5   BANK6   BANK7   BANK8   BANK9  BANK10  BANK1
      +1  BANK12
  8886 ;;      Params:         0       1       0       0       0       0       0       0       0       0       0       0       
      +0       0
  8887 ;;      Locals:         0       0       0       0       0       0       0       0       0       0       0       0       
      +0       0
  8888 ;;      Temps:          0       0       0       0       0       0       0       0       0       0       0       0       
      +0       0
  8889 ;;      Totals:         0       1       0       0       0       0       0       0       0       0       0       0       
      +0       0
  8890 ;;Total ram usage:        1 bytes
  8891 ;; Hardware stack levels used: 1
  8892 ;; Hardware stack levels required when called: 10
  8893 ;; This function calls:
  8894 ;;		_I2C1_SetBuffer
  8895 ;;		_I2C1_SetDataCompleteCallback
  8896 ;; This function is called by:
  8897 ;;		_I2C1_ReadDataBlock
  8898 ;;		_I2C1_DO_TX
  8899 ;;		_I2C1_DO_RX
  8900 ;;		_I2C1_DO_TX_EMPTY
  8901 ;;		_I2C1_DO_ADDRESS_NACK
  8902 ;;		_I2C1_DO_RX_EMPTY
  8903 ;; This function uses a non-reentrant model
  8904 ;;
  8905                           
  8906                           
  8907                           ;psect for function _rdBlkRegCompleteHandler
  8908  0F06                     _rdBlkRegCompleteHandler:
  8909  0F06                     l2835:	
  8910                           ;incstack = 0
  8911 ;; hardware stack exceeded
  8912                           ; Regs used in _rdBlkRegCompleteHandler: [wreg+fsr1l+fsr1h+status,2+status,0+pclath+csta
      +                          ck]
  8913                           
  8914                           
  8915                           ;mcc_generated_files/examples/i2c1_master_example.c: 170: static i2c1_operations_t rdBlk
      +                          RegCompleteHandler(void *ptr);mcc_generated_files/examples/i2c1_master_example.c: 171: {
      +                          ;mcc_generated_files/examples/i2c1_master_example.c: 172:     I2C1_SetBuffer(((i2c1_buff
      +                          er_t *)ptr)->data,((i2c1_buffer_t*)ptr)->len);
  8916  0F06  0020               	movlb	0	; select bank0
  8917  0F07  0829               	movf	rdBlkRegCompleteHandler@ptr,w
  8918  0F08  0086               	movwf	6
  8919  0F09  0187               	clrf	7
  8920  0F0A  3F40               	moviw [0]fsr1
  8921  0F0B  00A0               	movwf	I2C1_SetBuffer@bufferSize
  8922  0F0C  3F41               	moviw [1]fsr1
  8923  0F0D  00A1               	movwf	I2C1_SetBuffer@bufferSize+1
  8924  0F0E  0829               	movf	rdBlkRegCompleteHandler@ptr,w
  8925  0F0F  3E02               	addlw	2
  8926  0F10  0086               	movwf	6
  8927  0F11  0187               	clrf	7
  8928  0F12  0801               	movf	1,w
  8929  0F13  318D  2595  318F   	fcall	_I2C1_SetBuffer
  8930                           
  8931                           ;mcc_generated_files/examples/i2c1_master_example.c: 173:     I2C1_SetDataCompleteCallba
      +                          ck(((void*)0),((void*)0));
  8932  0F16  3000               	movlw	0
  8933  0F17  0020               	movlb	0	; select bank0
  8934  0F18  00A5               	movwf	I2C1_SetDataCompleteCallback@cb
  8935  0F19  00A6               	movwf	I2C1_SetDataCompleteCallback@cb+1
  8936  0F1A  01A7               	clrf	I2C1_SetDataCompleteCallback@ptr
  8937  0F1B  318D  255D  318F   	fcall	_I2C1_SetDataCompleteCallback
  8938  0F1E                     l2837:
  8939                           
  8940                           ;mcc_generated_files/examples/i2c1_master_example.c: 174:     return I2C1_RESTART_READ;
  8941  0F1E  3002               	movlw	2
  8942  0F1F                     l430:
  8943  0F1F  0008               	return
  8944  0F20                     __end_of_rdBlkRegCompleteHandler:
  8945                           
  8946                           	psect	text61
  8947  0E04                     __ptext61:	
  8948 ;; *************** function _wr2RegCompleteHandler *****************
  8949 ;; Defined at:
  8950 ;;		line 163 in file "mcc_generated_files/examples/i2c1_master_example.c"
  8951 ;; Parameters:    Size  Location     Type
  8952 ;;  ptr             1    9[BANK0 ] PTR void 
  8953 ;;		 -> i2c_readDataBlock@d(3), i2c_write2ByteRegister@data(2), i2c_read2ByteRegister@result(2), i2c_read1ByteRegister@d
      +2(1), 
  8954 ;;		 -> i2c_write1ByteRegister@data(1), I2C1_ReadDataBlock@bufferBlock(3), I2C1_Write2ByteRegister@data(2), I2C1_Write1B
      +yteRegister@data(1), 
  8955 ;;		 -> I2C1_Read2ByteRegister@returnValue(2), NULL(0), I2C1_Read1ByteRegister@returnValue(1), 
  8956 ;; Auto vars:     Size  Location     Type
  8957 ;;		None
  8958 ;; Return value:  Size  Location     Type
  8959 ;;                  1    wreg      enum E360
  8960 ;; Registers used:
  8961 ;;		wreg, fsr1l, fsr1h, status,2, status,0, pclath, cstack
  8962 ;; Tracked objects:
  8963 ;;		On entry : 0/0
  8964 ;;		On exit  : 0/0
  8965 ;;		Unchanged: 0/0
  8966 ;; Data sizes:     COMMON   BANK0   BANK1   BANK2   BANK3   BANK4   BANK5   BANK6   BANK7   BANK8   BANK9  BANK10  BANK1
      +1  BANK12
  8967 ;;      Params:         0       1       0       0       0       0       0       0       0       0       0       0       
      +0       0
  8968 ;;      Locals:         0       0       0       0       0       0       0       0       0       0       0       0       
      +0       0
  8969 ;;      Temps:          0       0       0       0       0       0       0       0       0       0       0       0       
      +0       0
  8970 ;;      Totals:         0       1       0       0       0       0       0       0       0       0       0       0       
      +0       0
  8971 ;;Total ram usage:        1 bytes
  8972 ;; Hardware stack levels used: 1
  8973 ;; Hardware stack levels required when called: 10
  8974 ;; This function calls:
  8975 ;;		_I2C1_SetBuffer
  8976 ;;		_I2C1_SetDataCompleteCallback
  8977 ;; This function is called by:
  8978 ;;		_I2C1_Write2ByteRegister
  8979 ;;		_I2C1_DO_TX
  8980 ;;		_I2C1_DO_RX
  8981 ;;		_I2C1_DO_TX_EMPTY
  8982 ;;		_I2C1_DO_ADDRESS_NACK
  8983 ;;		_I2C1_DO_RX_EMPTY
  8984 ;; This function uses a non-reentrant model
  8985 ;;
  8986                           
  8987                           
  8988                           ;psect for function _wr2RegCompleteHandler
  8989  0E04                     _wr2RegCompleteHandler:
  8990  0E04                     l2827:	
  8991                           ;incstack = 0
  8992 ;; hardware stack exceeded
  8993                           ; Regs used in _wr2RegCompleteHandler: [wreg+fsr1l+fsr1h+status,2+status,0+pclath+cstack
      +                          ]
  8994                           
  8995                           
  8996                           ;mcc_generated_files/examples/i2c1_master_example.c: 163: static i2c1_operations_t wr2Re
      +                          gCompleteHandler(void *ptr);mcc_generated_files/examples/i2c1_master_example.c: 164: {;m
      +                          cc_generated_files/examples/i2c1_master_example.c: 165:     I2C1_SetBuffer(ptr,2);
  8997  0E04  3002               	movlw	2
  8998  0E05  0020               	movlb	0	; select bank0
  8999  0E06  00A0               	movwf	I2C1_SetBuffer@bufferSize
  9000  0E07  3000               	movlw	0
  9001  0E08  00A1               	movwf	I2C1_SetBuffer@bufferSize+1
  9002  0E09  0829               	movf	wr2RegCompleteHandler@ptr,w
  9003  0E0A  318D  2595  318E   	fcall	_I2C1_SetBuffer
  9004  0E0D                     l2829:
  9005                           
  9006                           ;mcc_generated_files/examples/i2c1_master_example.c: 166:     I2C1_SetDataCompleteCallba
      +                          ck(((void*)0),((void*)0));
  9007  0E0D  3000               	movlw	0
  9008  0E0E  0020               	movlb	0	; select bank0
  9009  0E0F  00A5               	movwf	I2C1_SetDataCompleteCallback@cb
  9010  0E10  00A6               	movwf	I2C1_SetDataCompleteCallback@cb+1
  9011  0E11  01A7               	clrf	I2C1_SetDataCompleteCallback@ptr
  9012  0E12  318D  255D  318E   	fcall	_I2C1_SetDataCompleteCallback
  9013  0E15                     l2831:
  9014                           
  9015                           ;mcc_generated_files/examples/i2c1_master_example.c: 167:     return I2C1_CONTINUE;
  9016  0E15  3004               	movlw	4
  9017  0E16                     l427:
  9018  0E16  0008               	return
  9019  0E17                     __end_of_wr2RegCompleteHandler:
  9020                           
  9021                           	psect	text62
  9022  0DF1                     __ptext62:	
  9023 ;; *************** function _wr1RegCompleteHandler *****************
  9024 ;; Defined at:
  9025 ;;		line 156 in file "mcc_generated_files/examples/i2c1_master_example.c"
  9026 ;; Parameters:    Size  Location     Type
  9027 ;;  ptr             1    9[BANK0 ] PTR void 
  9028 ;;		 -> i2c_readDataBlock@d(3), i2c_write2ByteRegister@data(2), i2c_read2ByteRegister@result(2), i2c_read1ByteRegister@d
      +2(1), 
  9029 ;;		 -> i2c_write1ByteRegister@data(1), I2C1_ReadDataBlock@bufferBlock(3), I2C1_Write2ByteRegister@data(2), I2C1_Write1B
      +yteRegister@data(1), 
  9030 ;;		 -> I2C1_Read2ByteRegister@returnValue(2), NULL(0), I2C1_Read1ByteRegister@returnValue(1), 
  9031 ;; Auto vars:     Size  Location     Type
  9032 ;;		None
  9033 ;; Return value:  Size  Location     Type
  9034 ;;                  1    wreg      enum E360
  9035 ;; Registers used:
  9036 ;;		wreg, fsr1l, fsr1h, status,2, status,0, pclath, cstack
  9037 ;; Tracked objects:
  9038 ;;		On entry : 0/0
  9039 ;;		On exit  : 0/0
  9040 ;;		Unchanged: 0/0
  9041 ;; Data sizes:     COMMON   BANK0   BANK1   BANK2   BANK3   BANK4   BANK5   BANK6   BANK7   BANK8   BANK9  BANK10  BANK1
      +1  BANK12
  9042 ;;      Params:         0       1       0       0       0       0       0       0       0       0       0       0       
      +0       0
  9043 ;;      Locals:         0       0       0       0       0       0       0       0       0       0       0       0       
      +0       0
  9044 ;;      Temps:          0       0       0       0       0       0       0       0       0       0       0       0       
      +0       0
  9045 ;;      Totals:         0       1       0       0       0       0       0       0       0       0       0       0       
      +0       0
  9046 ;;Total ram usage:        1 bytes
  9047 ;; Hardware stack levels used: 1
  9048 ;; Hardware stack levels required when called: 10
  9049 ;; This function calls:
  9050 ;;		_I2C1_SetBuffer
  9051 ;;		_I2C1_SetDataCompleteCallback
  9052 ;; This function is called by:
  9053 ;;		_I2C1_Write1ByteRegister
  9054 ;;		_I2C1_DO_TX
  9055 ;;		_I2C1_DO_RX
  9056 ;;		_I2C1_DO_TX_EMPTY
  9057 ;;		_I2C1_DO_ADDRESS_NACK
  9058 ;;		_I2C1_DO_RX_EMPTY
  9059 ;; This function uses a non-reentrant model
  9060 ;;
  9061                           
  9062                           
  9063                           ;psect for function _wr1RegCompleteHandler
  9064  0DF1                     _wr1RegCompleteHandler:
  9065  0DF1                     l2819:	
  9066                           ;incstack = 0
  9067 ;; hardware stack exceeded
  9068                           ; Regs used in _wr1RegCompleteHandler: [wreg+fsr1l+fsr1h+status,2+status,0+pclath+cstack
      +                          ]
  9069                           
  9070                           
  9071                           ;mcc_generated_files/examples/i2c1_master_example.c: 156: static i2c1_operations_t wr1Re
      +                          gCompleteHandler(void *ptr);mcc_generated_files/examples/i2c1_master_example.c: 157: {;m
      +                          cc_generated_files/examples/i2c1_master_example.c: 158:     I2C1_SetBuffer(ptr,1);
  9072  0DF1  3001               	movlw	1
  9073  0DF2  0020               	movlb	0	; select bank0
  9074  0DF3  00A0               	movwf	I2C1_SetBuffer@bufferSize
  9075  0DF4  3000               	movlw	0
  9076  0DF5  00A1               	movwf	I2C1_SetBuffer@bufferSize+1
  9077  0DF6  0829               	movf	wr1RegCompleteHandler@ptr,w
  9078  0DF7  318D  2595  318D   	fcall	_I2C1_SetBuffer
  9079  0DFA                     l2821:
  9080                           
  9081                           ;mcc_generated_files/examples/i2c1_master_example.c: 159:     I2C1_SetDataCompleteCallba
      +                          ck(((void*)0),((void*)0));
  9082  0DFA  3000               	movlw	0
  9083  0DFB  0020               	movlb	0	; select bank0
  9084  0DFC  00A5               	movwf	I2C1_SetDataCompleteCallback@cb
  9085  0DFD  00A6               	movwf	I2C1_SetDataCompleteCallback@cb+1
  9086  0DFE  01A7               	clrf	I2C1_SetDataCompleteCallback@ptr
  9087  0DFF  318D  255D  318D   	fcall	_I2C1_SetDataCompleteCallback
  9088  0E02                     l2823:
  9089                           
  9090                           ;mcc_generated_files/examples/i2c1_master_example.c: 160:     return I2C1_CONTINUE;
  9091  0E02  3004               	movlw	4
  9092  0E03                     l424:
  9093  0E03  0008               	return
  9094  0E04                     __end_of_wr1RegCompleteHandler:
  9095                           
  9096                           	psect	text63
  9097  0DDE                     __ptext63:	
  9098 ;; *************** function _rd2RegCompleteHandler *****************
  9099 ;; Defined at:
  9100 ;;		line 149 in file "mcc_generated_files/examples/i2c1_master_example.c"
  9101 ;; Parameters:    Size  Location     Type
  9102 ;;  ptr             1    9[BANK0 ] PTR void 
  9103 ;;		 -> i2c_readDataBlock@d(3), i2c_write2ByteRegister@data(2), i2c_read2ByteRegister@result(2), i2c_read1ByteRegister@d
      +2(1), 
  9104 ;;		 -> i2c_write1ByteRegister@data(1), I2C1_ReadDataBlock@bufferBlock(3), I2C1_Write2ByteRegister@data(2), I2C1_Write1B
      +yteRegister@data(1), 
  9105 ;;		 -> I2C1_Read2ByteRegister@returnValue(2), NULL(0), I2C1_Read1ByteRegister@returnValue(1), 
  9106 ;; Auto vars:     Size  Location     Type
  9107 ;;		None
  9108 ;; Return value:  Size  Location     Type
  9109 ;;                  1    wreg      enum E360
  9110 ;; Registers used:
  9111 ;;		wreg, fsr1l, fsr1h, status,2, status,0, pclath, cstack
  9112 ;; Tracked objects:
  9113 ;;		On entry : 0/0
  9114 ;;		On exit  : 0/0
  9115 ;;		Unchanged: 0/0
  9116 ;; Data sizes:     COMMON   BANK0   BANK1   BANK2   BANK3   BANK4   BANK5   BANK6   BANK7   BANK8   BANK9  BANK10  BANK1
      +1  BANK12
  9117 ;;      Params:         0       1       0       0       0       0       0       0       0       0       0       0       
      +0       0
  9118 ;;      Locals:         0       0       0       0       0       0       0       0       0       0       0       0       
      +0       0
  9119 ;;      Temps:          0       0       0       0       0       0       0       0       0       0       0       0       
      +0       0
  9120 ;;      Totals:         0       1       0       0       0       0       0       0       0       0       0       0       
      +0       0
  9121 ;;Total ram usage:        1 bytes
  9122 ;; Hardware stack levels used: 1
  9123 ;; Hardware stack levels required when called: 10
  9124 ;; This function calls:
  9125 ;;		_I2C1_SetBuffer
  9126 ;;		_I2C1_SetDataCompleteCallback
  9127 ;; This function is called by:
  9128 ;;		_I2C1_Read2ByteRegister
  9129 ;;		_I2C1_DO_TX
  9130 ;;		_I2C1_DO_RX
  9131 ;;		_I2C1_DO_TX_EMPTY
  9132 ;;		_I2C1_DO_ADDRESS_NACK
  9133 ;;		_I2C1_DO_RX_EMPTY
  9134 ;; This function uses a non-reentrant model
  9135 ;;
  9136                           
  9137                           
  9138                           ;psect for function _rd2RegCompleteHandler
  9139  0DDE                     _rd2RegCompleteHandler:
  9140  0DDE                     l2811:	
  9141                           ;incstack = 0
  9142 ;; hardware stack exceeded
  9143                           ; Regs used in _rd2RegCompleteHandler: [wreg+fsr1l+fsr1h+status,2+status,0+pclath+cstack
      +                          ]
  9144                           
  9145                           
  9146                           ;mcc_generated_files/examples/i2c1_master_example.c: 149: static i2c1_operations_t rd2Re
      +                          gCompleteHandler(void *ptr);mcc_generated_files/examples/i2c1_master_example.c: 150: {;m
      +                          cc_generated_files/examples/i2c1_master_example.c: 151:     I2C1_SetBuffer(ptr,2);
  9147  0DDE  3002               	movlw	2
  9148  0DDF  0020               	movlb	0	; select bank0
  9149  0DE0  00A0               	movwf	I2C1_SetBuffer@bufferSize
  9150  0DE1  3000               	movlw	0
  9151  0DE2  00A1               	movwf	I2C1_SetBuffer@bufferSize+1
  9152  0DE3  0829               	movf	rd2RegCompleteHandler@ptr,w
  9153  0DE4  318D  2595  318D   	fcall	_I2C1_SetBuffer
  9154  0DE7                     l2813:
  9155                           
  9156                           ;mcc_generated_files/examples/i2c1_master_example.c: 152:     I2C1_SetDataCompleteCallba
      +                          ck(((void*)0),((void*)0));
  9157  0DE7  3000               	movlw	0
  9158  0DE8  0020               	movlb	0	; select bank0
  9159  0DE9  00A5               	movwf	I2C1_SetDataCompleteCallback@cb
  9160  0DEA  00A6               	movwf	I2C1_SetDataCompleteCallback@cb+1
  9161  0DEB  01A7               	clrf	I2C1_SetDataCompleteCallback@ptr
  9162  0DEC  318D  255D  318D   	fcall	_I2C1_SetDataCompleteCallback
  9163  0DEF                     l2815:
  9164                           
  9165                           ;mcc_generated_files/examples/i2c1_master_example.c: 153:     return I2C1_RESTART_READ;
  9166  0DEF  3002               	movlw	2
  9167  0DF0                     l421:
  9168  0DF0  0008               	return
  9169  0DF1                     __end_of_rd2RegCompleteHandler:
  9170                           
  9171                           	psect	text64
  9172  0DCB                     __ptext64:	
  9173 ;; *************** function _rd1RegCompleteHandler *****************
  9174 ;; Defined at:
  9175 ;;		line 142 in file "mcc_generated_files/examples/i2c1_master_example.c"
  9176 ;; Parameters:    Size  Location     Type
  9177 ;;  ptr             1    9[BANK0 ] PTR void 
  9178 ;;		 -> i2c_readDataBlock@d(3), i2c_write2ByteRegister@data(2), i2c_read2ByteRegister@result(2), i2c_read1ByteRegister@d
      +2(1), 
  9179 ;;		 -> i2c_write1ByteRegister@data(1), I2C1_ReadDataBlock@bufferBlock(3), I2C1_Write2ByteRegister@data(2), I2C1_Write1B
      +yteRegister@data(1), 
  9180 ;;		 -> I2C1_Read2ByteRegister@returnValue(2), NULL(0), I2C1_Read1ByteRegister@returnValue(1), 
  9181 ;; Auto vars:     Size  Location     Type
  9182 ;;		None
  9183 ;; Return value:  Size  Location     Type
  9184 ;;                  1    wreg      enum E360
  9185 ;; Registers used:
  9186 ;;		wreg, fsr1l, fsr1h, status,2, status,0, pclath, cstack
  9187 ;; Tracked objects:
  9188 ;;		On entry : 0/0
  9189 ;;		On exit  : 0/0
  9190 ;;		Unchanged: 0/0
  9191 ;; Data sizes:     COMMON   BANK0   BANK1   BANK2   BANK3   BANK4   BANK5   BANK6   BANK7   BANK8   BANK9  BANK10  BANK1
      +1  BANK12
  9192 ;;      Params:         0       1       0       0       0       0       0       0       0       0       0       0       
      +0       0
  9193 ;;      Locals:         0       0       0       0       0       0       0       0       0       0       0       0       
      +0       0
  9194 ;;      Temps:          0       0       0       0       0       0       0       0       0       0       0       0       
      +0       0
  9195 ;;      Totals:         0       1       0       0       0       0       0       0       0       0       0       0       
      +0       0
  9196 ;;Total ram usage:        1 bytes
  9197 ;; Hardware stack levels used: 1
  9198 ;; Hardware stack levels required when called: 10
  9199 ;; This function calls:
  9200 ;;		_I2C1_SetBuffer
  9201 ;;		_I2C1_SetDataCompleteCallback
  9202 ;; This function is called by:
  9203 ;;		_I2C1_Read1ByteRegister
  9204 ;;		_I2C1_DO_TX
  9205 ;;		_I2C1_DO_RX
  9206 ;;		_I2C1_DO_TX_EMPTY
  9207 ;;		_I2C1_DO_ADDRESS_NACK
  9208 ;;		_I2C1_DO_RX_EMPTY
  9209 ;; This function uses a non-reentrant model
  9210 ;;
  9211                           
  9212                           
  9213                           ;psect for function _rd1RegCompleteHandler
  9214  0DCB                     _rd1RegCompleteHandler:
  9215  0DCB                     l2803:	
  9216                           ;incstack = 0
  9217 ;; hardware stack exceeded
  9218                           ; Regs used in _rd1RegCompleteHandler: [wreg+fsr1l+fsr1h+status,2+status,0+pclath+cstack
      +                          ]
  9219                           
  9220                           
  9221                           ;mcc_generated_files/examples/i2c1_master_example.c: 142: static i2c1_operations_t rd1Re
      +                          gCompleteHandler(void *ptr);mcc_generated_files/examples/i2c1_master_example.c: 143: {;m
      +                          cc_generated_files/examples/i2c1_master_example.c: 144:     I2C1_SetBuffer(ptr,1);
  9222  0DCB  3001               	movlw	1
  9223  0DCC  0020               	movlb	0	; select bank0
  9224  0DCD  00A0               	movwf	I2C1_SetBuffer@bufferSize
  9225  0DCE  3000               	movlw	0
  9226  0DCF  00A1               	movwf	I2C1_SetBuffer@bufferSize+1
  9227  0DD0  0829               	movf	rd1RegCompleteHandler@ptr,w
  9228  0DD1  318D  2595  318D   	fcall	_I2C1_SetBuffer
  9229  0DD4                     l2805:
  9230                           
  9231                           ;mcc_generated_files/examples/i2c1_master_example.c: 145:     I2C1_SetDataCompleteCallba
      +                          ck(((void*)0),((void*)0));
  9232  0DD4  3000               	movlw	0
  9233  0DD5  0020               	movlb	0	; select bank0
  9234  0DD6  00A5               	movwf	I2C1_SetDataCompleteCallback@cb
  9235  0DD7  00A6               	movwf	I2C1_SetDataCompleteCallback@cb+1
  9236  0DD8  01A7               	clrf	I2C1_SetDataCompleteCallback@ptr
  9237  0DD9  318D  255D  318D   	fcall	_I2C1_SetDataCompleteCallback
  9238  0DDC                     l2807:
  9239                           
  9240                           ;mcc_generated_files/examples/i2c1_master_example.c: 146:     return I2C1_RESTART_READ;
  9241  0DDC  3002               	movlw	2
  9242  0DDD                     l418:
  9243  0DDD  0008               	return
  9244  0DDE                     __end_of_rd1RegCompleteHandler:
  9245                           
  9246                           	psect	text65
  9247  0DB8                     __ptext65:	
  9248 ;; *************** function _wr2RegCompleteHandler@i2c_simple_master$F1307 *****************
  9249 ;; Defined at:
  9250 ;;		line 151 in file "mcc_generated_files/drivers/i2c_simple_master.c"
  9251 ;; Parameters:    Size  Location     Type
  9252 ;;  p               1    9[BANK0 ] PTR void 
  9253 ;;		 -> i2c_readDataBlock@d(3), i2c_write2ByteRegister@data(2), i2c_read2ByteRegister@result(2), i2c_read1ByteRegister@d
      +2(1), 
  9254 ;;		 -> i2c_write1ByteRegister@data(1), I2C1_ReadDataBlock@bufferBlock(3), I2C1_Write2ByteRegister@data(2), I2C1_Write1B
      +yteRegister@data(1), 
  9255 ;;		 -> I2C1_Read2ByteRegister@returnValue(2), NULL(0), I2C1_Read1ByteRegister@returnValue(1), 
  9256 ;; Auto vars:     Size  Location     Type
  9257 ;;		None
  9258 ;; Return value:  Size  Location     Type
  9259 ;;                  1    wreg      enum E360
  9260 ;; Registers used:
  9261 ;;		wreg, fsr1l, fsr1h, status,2, status,0, pclath, cstack
  9262 ;; Tracked objects:
  9263 ;;		On entry : 0/0
  9264 ;;		On exit  : 0/0
  9265 ;;		Unchanged: 0/0
  9266 ;; Data sizes:     COMMON   BANK0   BANK1   BANK2   BANK3   BANK4   BANK5   BANK6   BANK7   BANK8   BANK9  BANK10  BANK1
      +1  BANK12
  9267 ;;      Params:         0       1       0       0       0       0       0       0       0       0       0       0       
      +0       0
  9268 ;;      Locals:         0       0       0       0       0       0       0       0       0       0       0       0       
      +0       0
  9269 ;;      Temps:          0       0       0       0       0       0       0       0       0       0       0       0       
      +0       0
  9270 ;;      Totals:         0       1       0       0       0       0       0       0       0       0       0       0       
      +0       0
  9271 ;;Total ram usage:        1 bytes
  9272 ;; Hardware stack levels used: 1
  9273 ;; Hardware stack levels required when called: 10
  9274 ;; This function calls:
  9275 ;;		_I2C1_SetBuffer
  9276 ;;		_I2C1_SetDataCompleteCallback
  9277 ;; This function is called by:
  9278 ;;		_i2c_write2ByteRegister
  9279 ;;		_I2C1_DO_TX
  9280 ;;		_I2C1_DO_RX
  9281 ;;		_I2C1_DO_TX_EMPTY
  9282 ;;		_I2C1_DO_ADDRESS_NACK
  9283 ;;		_I2C1_DO_RX_EMPTY
  9284 ;; This function uses a non-reentrant model
  9285 ;;
  9286                           
  9287                           
  9288                           ;psect for function _wr2RegCompleteHandler@i2c_simple_master$F1307
  9289  0DB8                     _wr2RegCompleteHandler@i2c_simple_master$F1307:
  9290  0DB8                     l2925:	
  9291                           ;incstack = 0
  9292 ;; hardware stack exceeded
  9293                           ; Regs used in _wr2RegCompleteHandler@i2c_simple_master$F1307: [wreg+fsr1l+fsr1h+status,
      +                          2+status,0+pclath+cstack]
  9294                           
  9295                           
  9296                           ;mcc_generated_files/drivers/i2c_simple_master.c: 151: static i2c1_operations_t wr2RegCo
      +                          mpleteHandler(void *p);mcc_generated_files/drivers/i2c_simple_master.c: 152: {;mcc_gener
      +                          ated_files/drivers/i2c_simple_master.c: 153:     I2C1_SetBuffer(p,2);
  9297  0DB8  3002               	movlw	2
  9298  0DB9  0020               	movlb	0	; select bank0
  9299  0DBA  00A0               	movwf	I2C1_SetBuffer@bufferSize
  9300  0DBB  3000               	movlw	0
  9301  0DBC  00A1               	movwf	I2C1_SetBuffer@bufferSize+1
  9302  0DBD  0829               	movf	wr2RegCompleteHandler@i2c_simple_master$F1307@p,w
  9303  0DBE  318D  2595  318D   	fcall	_I2C1_SetBuffer
  9304  0DC1                     l2927:
  9305                           
  9306                           ;mcc_generated_files/drivers/i2c_simple_master.c: 154:     I2C1_SetDataCompleteCallback(
      +                          ((void*)0),((void*)0));
  9307  0DC1  3000               	movlw	0
  9308  0DC2  0020               	movlb	0	; select bank0
  9309  0DC3  00A5               	movwf	I2C1_SetDataCompleteCallback@cb
  9310  0DC4  00A6               	movwf	I2C1_SetDataCompleteCallback@cb+1
  9311  0DC5  01A7               	clrf	I2C1_SetDataCompleteCallback@ptr
  9312  0DC6  318D  255D  318D   	fcall	_I2C1_SetDataCompleteCallback
  9313  0DC9                     l2929:
  9314                           
  9315                           ;mcc_generated_files/drivers/i2c_simple_master.c: 155:     return I2C1_CONTINUE;
  9316  0DC9  3004               	movlw	4
  9317  0DCA                     l832:
  9318  0DCA  0008               	return
  9319  0DCB                     __end_of_wr2RegCompleteHandler@i2c_simple_master$F1307:
  9320                           
  9321                           	psect	text66
  9322  0D5D                     __ptext66:	
  9323 ;; *************** function _I2C1_SetDataCompleteCallback *****************
  9324 ;; Defined at:
  9325 ;;		line 273 in file "mcc_generated_files/i2c1_master.c"
  9326 ;; Parameters:    Size  Location     Type
  9327 ;;  cb              2    5[BANK0 ] PTR FTN(PTR void ,)enum 
  9328 ;;		 -> rdBlkRegCompleteHandler@i2c_simple_master$F1313(1), wr2RegCompleteHandler@i2c_simple_master$F1307(1), rd2RegComp
      +leteHandler@i2c_simple_master$F1301(1), rd1RegCompleteHandler@i2c_simple_master$F1293(1), 
  9329 ;;		 -> wr1RegCompleteHandler@i2c_simple_master$F1283(1), rdBlkRegCompleteHandler(1), wr2RegCompleteHandler(1), wr1RegCo
      +mpleteHandler(1), 
  9330 ;;		 -> rd2RegCompleteHandler(1), rd1RegCompleteHandler(1), Absolute function(1), 
  9331 ;;  ptr             1    7[BANK0 ] PTR void 
  9332 ;;		 -> i2c_readDataBlock@d(3), i2c_write2ByteRegister@data(2), i2c_read2ByteRegister@result(2), i2c_read1ByteRegister@d
      +2(1), 
  9333 ;;		 -> i2c_write1ByteRegister@data(1), I2C1_ReadDataBlock@bufferBlock(3), I2C1_Write2ByteRegister@data(2), I2C1_Write1B
      +yteRegister@data(1), 
  9334 ;;		 -> I2C1_Read2ByteRegister@returnValue(2), NULL(0), I2C1_Read1ByteRegister@returnValue(1), 
  9335 ;; Auto vars:     Size  Location     Type
  9336 ;;		None
  9337 ;; Return value:  Size  Location     Type
  9338 ;;                  1    wreg      void 
  9339 ;; Registers used:
  9340 ;;		wreg, fsr1l, fsr1h, status,2, status,0, pclath, cstack
  9341 ;; Tracked objects:
  9342 ;;		On entry : 0/0
  9343 ;;		On exit  : 0/0
  9344 ;;		Unchanged: 0/0
  9345 ;; Data sizes:     COMMON   BANK0   BANK1   BANK2   BANK3   BANK4   BANK5   BANK6   BANK7   BANK8   BANK9  BANK10  BANK1
      +1  BANK12
  9346 ;;      Params:         0       3       0       0       0       0       0       0       0       0       0       0       
      +0       0
  9347 ;;      Locals:         0       0       0       0       0       0       0       0       0       0       0       0       
      +0       0
  9348 ;;      Temps:          0       1       0       0       0       0       0       0       0       0       0       0       
      +0       0
  9349 ;;      Totals:         0       4       0       0       0       0       0       0       0       0       0       0       
      +0       0
  9350 ;;Total ram usage:        4 bytes
  9351 ;; Hardware stack levels used: 1
  9352 ;; Hardware stack levels required when called: 9
  9353 ;; This function calls:
  9354 ;;		_I2C1_SetCallback
  9355 ;; This function is called by:
  9356 ;;		_I2C1_Read1ByteRegister
  9357 ;;		_I2C1_Write1ByteRegister
  9358 ;;		_rd1RegCompleteHandler
  9359 ;;		_rd2RegCompleteHandler
  9360 ;;		_wr1RegCompleteHandler
  9361 ;;		_wr2RegCompleteHandler
  9362 ;;		_rdBlkRegCompleteHandler
  9363 ;;		_wr1RegCompleteHandler@i2c_simple_master$F1283
  9364 ;;		_rd1RegCompleteHandler@i2c_simple_master$F1293
  9365 ;;		_rd2RegCompleteHandler@i2c_simple_master$F1301
  9366 ;;		_wr2RegCompleteHandler@i2c_simple_master$F1307
  9367 ;;		_rdBlkRegCompleteHandler@i2c_simple_master$F1313
  9368 ;;		_I2C1_Read2ByteRegister
  9369 ;;		_I2C1_Write2ByteRegister
  9370 ;;		_I2C1_ReadDataBlock
  9371 ;;		_i2c_write1ByteRegister
  9372 ;;		_i2c_read1ByteRegister
  9373 ;;		_i2c_read2ByteRegister
  9374 ;;		_i2c_write2ByteRegister
  9375 ;;		_i2c_readDataBlock
  9376 ;; This function uses a non-reentrant model
  9377 ;;
  9378                           
  9379                           
  9380                           ;psect for function _I2C1_SetDataCompleteCallback
  9381  0D5D                     _I2C1_SetDataCompleteCallback:
  9382  0D5D                     l2789:	
  9383                           ;incstack = 0
  9384                           ; Regs used in _I2C1_SetDataCompleteCallback: [wreg+fsr1l+fsr1h+status,2+status,0+pclath
      +                          +cstack]
  9385                           
  9386                           
  9387                           ;mcc_generated_files/i2c1_master.c: 273: void I2C1_SetDataCompleteCallback(i2c1_callback
      +                          _t cb, void *ptr);mcc_generated_files/i2c1_master.c: 274: {;mcc_generated_files/i2c1_mas
      +                          ter.c: 275:     I2C1_SetCallback(I2C1_DATA_COMPLETE, cb, ptr);
  9388  0D5D  0020               	movlb	0	; select bank0
  9389  0D5E  0826               	movf	I2C1_SetDataCompleteCallback@cb+1,w
  9390  0D5F  00A1               	movwf	I2C1_SetCallback@cb+1
  9391  0D60  0825               	movf	I2C1_SetDataCompleteCallback@cb,w
  9392  0D61  00A0               	movwf	I2C1_SetCallback@cb
  9393  0D62  0827               	movf	I2C1_SetDataCompleteCallback@ptr,w
  9394  0D63  00A8               	movwf	??_I2C1_SetDataCompleteCallback
  9395  0D64  0828               	movf	??_I2C1_SetDataCompleteCallback,w
  9396  0D65  00A2               	movwf	I2C1_SetCallback@ptr
  9397  0D66  3000               	movlw	0
  9398  0D67  318F  27AF  318D   	fcall	_I2C1_SetCallback
  9399  0D6A                     l567:
  9400  0D6A  0008               	return
  9401  0D6B                     __end_of_I2C1_SetDataCompleteCallback:
  9402                           
  9403                           	psect	text67
  9404  0FAF                     __ptext67:	
  9405 ;; *************** function _I2C1_SetCallback *****************
  9406 ;; Defined at:
  9407 ;;		line 298 in file "mcc_generated_files/i2c1_master.c"
  9408 ;; Parameters:    Size  Location     Type
  9409 ;;  idx             1    wreg     enum E3027
  9410 ;;  cb              2    0[BANK0 ] PTR FTN(PTR void ,)enum 
  9411 ;;		 -> rdBlkRegCompleteHandler@i2c_simple_master$F1313(1), wr2RegCompleteHandler@i2c_simple_master$F1307(1), rd2RegComp
      +leteHandler@i2c_simple_master$F1301(1), rd1RegCompleteHandler@i2c_simple_master$F1293(1), 
  9412 ;;		 -> wr1RegCompleteHandler@i2c_simple_master$F1283(1), rdBlkRegCompleteHandler(1), wr2RegCompleteHandler(1), wr1RegCo
      +mpleteHandler(1), 
  9413 ;;		 -> rd2RegCompleteHandler(1), rd1RegCompleteHandler(1), Absolute function(1), 
  9414 ;;  ptr             1    2[BANK0 ] PTR void 
  9415 ;;		 -> i2c_readDataBlock@d(3), i2c_write2ByteRegister@data(2), i2c_read2ByteRegister@result(2), i2c_read1ByteRegister@d
      +2(1), 
  9416 ;;		 -> i2c_write1ByteRegister@data(1), I2C1_ReadDataBlock@bufferBlock(3), I2C1_Write2ByteRegister@data(2), I2C1_Write1B
      +yteRegister@data(1), 
  9417 ;;		 -> I2C1_Read2ByteRegister@returnValue(2), NULL(0), I2C1_Read1ByteRegister@returnValue(1), 
  9418 ;; Auto vars:     Size  Location     Type
  9419 ;;  idx             1    4[BANK0 ] enum E3027
  9420 ;; Return value:  Size  Location     Type
  9421 ;;                  1    wreg      void 
  9422 ;; Registers used:
  9423 ;;		wreg, fsr1l, fsr1h, status,2, status,0
  9424 ;; Tracked objects:
  9425 ;;		On entry : 0/0
  9426 ;;		On exit  : 0/0
  9427 ;;		Unchanged: 0/0
  9428 ;; Data sizes:     COMMON   BANK0   BANK1   BANK2   BANK3   BANK4   BANK5   BANK6   BANK7   BANK8   BANK9  BANK10  BANK1
      +1  BANK12
  9429 ;;      Params:         0       3       0       0       0       0       0       0       0       0       0       0       
      +0       0
  9430 ;;      Locals:         0       1       0       0       0       0       0       0       0       0       0       0       
      +0       0
  9431 ;;      Temps:          0       1       0       0       0       0       0       0       0       0       0       0       
      +0       0
  9432 ;;      Totals:         0       5       0       0       0       0       0       0       0       0       0       0       
      +0       0
  9433 ;;Total ram usage:        5 bytes
  9434 ;; Hardware stack levels used: 1
  9435 ;; Hardware stack levels required when called: 8
  9436 ;; This function calls:
  9437 ;;		Nothing
  9438 ;; This function is called by:
  9439 ;;		_I2C1_SetDataCompleteCallback
  9440 ;;		_I2C1_SetAddressNackCallback
  9441 ;;		_I2C1_SetWriteCollisionCallback
  9442 ;;		_I2C1_SetDataNackCallback
  9443 ;;		_I2C1_SetTimeoutCallback
  9444 ;; This function uses a non-reentrant model
  9445 ;;
  9446                           
  9447                           
  9448                           ;psect for function _I2C1_SetCallback
  9449  0FAF                     _I2C1_SetCallback:
  9450                           
  9451                           ;incstack = 0
  9452                           ; Regs used in _I2C1_SetCallback: [wreg+fsr1l+fsr1h+status,2+status,0]
  9453                           ;I2C1_SetCallback@idx stored from wreg
  9454  0FAF  0020               	movlb	0	; select bank0
  9455  0FB0  00A4               	movwf	I2C1_SetCallback@idx
  9456  0FB1                     l2783:
  9457                           
  9458                           ;mcc_generated_files/i2c1_master.c: 298: static void I2C1_SetCallback(i2c1_callbackIndex
      +                          _t idx, i2c1_callback_t cb, void *ptr);mcc_generated_files/i2c1_master.c: 299: {;mcc_gen
      +                          erated_files/i2c1_master.c: 300:     if(cb)
  9459  0FB1  0820               	movf	I2C1_SetCallback@cb,w
  9460  0FB2  0421               	iorwf	I2C1_SetCallback@cb+1,w
  9461  0FB3  1903               	btfsc	3,2
  9462  0FB4  2FB6               	goto	u951
  9463  0FB5  2FB7               	goto	u950
  9464  0FB6                     u951:
  9465  0FB6  2FC8               	goto	l2787
  9466  0FB7                     u950:
  9467  0FB7                     l2785:
  9468                           
  9469                           ;mcc_generated_files/i2c1_master.c: 301:     {;mcc_generated_files/i2c1_master.c: 302:  
      +                                 I2C1_Status.callbackTable[idx] = cb;
  9470  0FB7  3524               	lslf	I2C1_SetCallback@idx,w
  9471  0FB8  3E4C               	addlw	(low (_I2C1_Status| 0))& (0+255)
  9472  0FB9  0086               	movwf	6
  9473  0FBA  0187               	clrf	7
  9474  0FBB  0820               	movf	I2C1_SetCallback@cb,w
  9475  0FBC  3FC0               	movwi [0]fsr1
  9476  0FBD  0821               	movf	I2C1_SetCallback@cb+1,w
  9477  0FBE  3FC1               	movwi [1]fsr1
  9478                           
  9479                           ;mcc_generated_files/i2c1_master.c: 303:         I2C1_Status.callbackPayload[idx] = ptr;
  9480  0FBF  0822               	movf	I2C1_SetCallback@ptr,w
  9481  0FC0  00A3               	movwf	??_I2C1_SetCallback
  9482  0FC1  0824               	movf	I2C1_SetCallback@idx,w
  9483  0FC2  3E58               	addlw	(low ((_I2C1_Status| 0+12)))& (0+255)
  9484  0FC3  0086               	movwf	6
  9485  0FC4  0187               	clrf	7
  9486  0FC5  0823               	movf	??_I2C1_SetCallback,w
  9487  0FC6  0081               	movwf	1
  9488                           
  9489                           ;mcc_generated_files/i2c1_master.c: 304:     }
  9490  0FC7  2FD5               	goto	l584
  9491  0FC8                     l2787:
  9492                           
  9493                           ;mcc_generated_files/i2c1_master.c: 306:     {;mcc_generated_files/i2c1_master.c: 307:  
      +                                 I2C1_Status.callbackTable[idx] = I2C1_CallbackReturnStop;
  9494  0FC8  3524               	lslf	I2C1_SetCallback@idx,w
  9495  0FC9  3E4C               	addlw	(low (_I2C1_Status| 0))& (0+255)
  9496  0FCA  0086               	movwf	6
  9497  0FCB  0187               	clrf	7
  9498  0FCC  3070               	movlw	low _I2C1_CallbackReturnStop
  9499  0FCD  3FC0               	movwi [0]fsr1
  9500  0FCE  300C               	movlw	high _I2C1_CallbackReturnStop
  9501  0FCF  3FC1               	movwi [1]fsr1
  9502                           
  9503                           ;mcc_generated_files/i2c1_master.c: 308:         I2C1_Status.callbackPayload[idx] = ((vo
      +                          id*)0);
  9504  0FD0  0824               	movf	I2C1_SetCallback@idx,w
  9505  0FD1  3E58               	addlw	(low ((_I2C1_Status| 0+12)))& (0+255)
  9506  0FD2  0086               	movwf	6
  9507  0FD3  0187               	clrf	7
  9508  0FD4  0181               	clrf	1
  9509  0FD5                     l584:
  9510  0FD5  0008               	return
  9511  0FD6                     __end_of_I2C1_SetCallback:
  9512                           
  9513                           	psect	text68
  9514  0D95                     __ptext68:	
  9515 ;; *************** function _I2C1_SetBuffer *****************
  9516 ;; Defined at:
  9517 ;;		line 263 in file "mcc_generated_files/i2c1_master.c"
  9518 ;; Parameters:    Size  Location     Type
  9519 ;;  buffer          1    wreg     PTR void 
  9520 ;;		 -> i2c_readDataBlock@reg(1), i2c_readDataBlock@d(3), i2c_write2ByteRegister@reg(1), i2c_write2ByteRegister@data(2),
      + 
  9521 ;;		 -> i2c_read2ByteRegister@reg(1), i2c_read2ByteRegister@result(2), i2c_read1ByteRegister@reg(1), i2c_read1ByteRegist
      +er@d2(1), 
  9522 ;;		 -> i2c_write1ByteRegister@reg(1), i2c_write1ByteRegister@data(1), I2C1_ReadDataBlock@reg(1), I2C1_ReadDataBlock@buf
      +ferBlock(3), 
  9523 ;;		 -> I2C1_Write2ByteRegister@reg(1), I2C1_Write2ByteRegister@data(2), I2C1_Write1ByteRegister@reg(1), I2C1_Write1Byte
      +Register@data(1), 
  9524 ;;		 -> I2C1_Read2ByteRegister@reg(1), I2C1_Read2ByteRegister@returnValue(2), NULL(0), I2C1_Read1ByteRegister@reg(1), 
  9525 ;;		 -> I2C1_Read1ByteRegister@returnValue(1), 
  9526 ;;  bufferSize      2    0[BANK0 ] unsigned int 
  9527 ;; Auto vars:     Size  Location     Type
  9528 ;;  buffer          1    3[BANK0 ] PTR void 
  9529 ;;		 -> i2c_readDataBlock@reg(1), i2c_readDataBlock@d(3), i2c_write2ByteRegister@reg(1), i2c_write2ByteRegister@data(2),
      + 
  9530 ;;		 -> i2c_read2ByteRegister@reg(1), i2c_read2ByteRegister@result(2), i2c_read1ByteRegister@reg(1), i2c_read1ByteRegist
      +er@d2(1), 
  9531 ;;		 -> i2c_write1ByteRegister@reg(1), i2c_write1ByteRegister@data(1), I2C1_ReadDataBlock@reg(1), I2C1_ReadDataBlock@buf
      +ferBlock(3), 
  9532 ;;		 -> I2C1_Write2ByteRegister@reg(1), I2C1_Write2ByteRegister@data(2), I2C1_Write1ByteRegister@reg(1), I2C1_Write1Byte
      +Register@data(1), 
  9533 ;;		 -> I2C1_Read2ByteRegister@reg(1), I2C1_Read2ByteRegister@returnValue(2), NULL(0), I2C1_Read1ByteRegister@reg(1), 
  9534 ;;		 -> I2C1_Read1ByteRegister@returnValue(1), 
  9535 ;; Return value:  Size  Location     Type
  9536 ;;                  1    wreg      void 
  9537 ;; Registers used:
  9538 ;;		wreg
  9539 ;; Tracked objects:
  9540 ;;		On entry : 0/0
  9541 ;;		On exit  : 0/0
  9542 ;;		Unchanged: 0/0
  9543 ;; Data sizes:     COMMON   BANK0   BANK1   BANK2   BANK3   BANK4   BANK5   BANK6   BANK7   BANK8   BANK9  BANK10  BANK1
      +1  BANK12
  9544 ;;      Params:         0       2       0       0       0       0       0       0       0       0       0       0       
      +0       0
  9545 ;;      Locals:         0       1       0       0       0       0       0       0       0       0       0       0       
      +0       0
  9546 ;;      Temps:          0       1       0       0       0       0       0       0       0       0       0       0       
      +0       0
  9547 ;;      Totals:         0       4       0       0       0       0       0       0       0       0       0       0       
      +0       0
  9548 ;;Total ram usage:        4 bytes
  9549 ;; Hardware stack levels used: 1
  9550 ;; Hardware stack levels required when called: 8
  9551 ;; This function calls:
  9552 ;;		Nothing
  9553 ;; This function is called by:
  9554 ;;		_I2C1_Read1ByteRegister
  9555 ;;		_I2C1_Write1ByteRegister
  9556 ;;		_rd1RegCompleteHandler
  9557 ;;		_rd2RegCompleteHandler
  9558 ;;		_wr1RegCompleteHandler
  9559 ;;		_wr2RegCompleteHandler
  9560 ;;		_rdBlkRegCompleteHandler
  9561 ;;		_wr1RegCompleteHandler@i2c_simple_master$F1283
  9562 ;;		_rd1RegCompleteHandler@i2c_simple_master$F1293
  9563 ;;		_rd2RegCompleteHandler@i2c_simple_master$F1301
  9564 ;;		_wr2RegCompleteHandler@i2c_simple_master$F1307
  9565 ;;		_rdBlkRegCompleteHandler@i2c_simple_master$F1313
  9566 ;;		_I2C1_Read2ByteRegister
  9567 ;;		_I2C1_Write2ByteRegister
  9568 ;;		_I2C1_WriteNBytes
  9569 ;;		_I2C1_ReadNBytes
  9570 ;;		_I2C1_ReadDataBlock
  9571 ;;		_i2c_write1ByteRegister
  9572 ;;		_i2c_writeNBytes
  9573 ;;		_i2c_read1ByteRegister
  9574 ;;		_i2c_read2ByteRegister
  9575 ;;		_i2c_write2ByteRegister
  9576 ;;		_i2c_readDataBlock
  9577 ;;		_i2c_readNBytes
  9578 ;; This function uses a non-reentrant model
  9579 ;;
  9580                           
  9581                           
  9582                           ;psect for function _I2C1_SetBuffer
  9583  0D95                     _I2C1_SetBuffer:
  9584                           
  9585                           ;incstack = 0
  9586                           ; Regs used in _I2C1_SetBuffer: [wreg]
  9587                           ;I2C1_SetBuffer@buffer stored from wreg
  9588  0D95  0020               	movlb	0	; select bank0
  9589  0D96  00A3               	movwf	I2C1_SetBuffer@buffer
  9590  0D97                     l2791:
  9591                           
  9592                           ;mcc_generated_files/i2c1_master.c: 263: void I2C1_SetBuffer(void *buffer, size_t buffer
      +                          Size);mcc_generated_files/i2c1_master.c: 264: {;mcc_generated_files/i2c1_master.c: 265: 
      +                              if(I2C1_Status.bufferFree)
  9593  0D97  1DE8               	btfss	_I2C1_Status+28,3
  9594  0D98  2D9A               	goto	u961
  9595  0D99  2D9B               	goto	u960
  9596  0D9A                     u961:
  9597  0D9A  2DA4               	goto	l564
  9598  0D9B                     u960:
  9599  0D9B                     l2793:
  9600                           
  9601                           ;mcc_generated_files/i2c1_master.c: 266:     {;mcc_generated_files/i2c1_master.c: 267:  
      +                                 I2C1_Status.data_ptr = buffer;
  9602  0D9B  0823               	movf	I2C1_SetBuffer@buffer,w
  9603  0D9C  00A2               	movwf	??_I2C1_SetBuffer
  9604  0D9D  0822               	movf	??_I2C1_SetBuffer,w
  9605  0D9E  00E3               	movwf	low ((_I2C1_Status| 0+23))
  9606                           
  9607                           ;mcc_generated_files/i2c1_master.c: 268:         I2C1_Status.data_length = bufferSize;
  9608  0D9F  0821               	movf	I2C1_SetBuffer@bufferSize+1,w
  9609  0DA0  00E5               	movwf	_I2C1_Status+25
  9610  0DA1  0820               	movf	I2C1_SetBuffer@bufferSize,w
  9611  0DA2  00E4               	movwf	_I2C1_Status+24
  9612  0DA3                     l2795:
  9613                           
  9614                           ;mcc_generated_files/i2c1_master.c: 269:         I2C1_Status.bufferFree = 0;
  9615  0DA3  11E8               	bcf	_I2C1_Status+28,3
  9616  0DA4                     l564:
  9617  0DA4  0008               	return
  9618  0DA5                     __end_of_I2C1_SetBuffer:
  9619                           
  9620                           	psect	text69
  9621  0C81                     __ptext69:	
  9622 ;; *************** function _I2C1_MasterStop *****************
  9623 ;; Defined at:
  9624 ;;		line 593 in file "mcc_generated_files/i2c1_master.c"
  9625 ;; Parameters:    Size  Location     Type
  9626 ;;		None
  9627 ;; Auto vars:     Size  Location     Type
  9628 ;;		None
  9629 ;; Return value:  Size  Location     Type
  9630 ;;                  1    wreg      void 
  9631 ;; Registers used:
  9632 ;;		None
  9633 ;; Tracked objects:
  9634 ;;		On entry : 0/0
  9635 ;;		On exit  : 0/0
  9636 ;;		Unchanged: 0/0
  9637 ;; Data sizes:     COMMON   BANK0   BANK1   BANK2   BANK3   BANK4   BANK5   BANK6   BANK7   BANK8   BANK9  BANK10  BANK1
      +1  BANK12
  9638 ;;      Params:         0       0       0       0       0       0       0       0       0       0       0       0       
      +0       0
  9639 ;;      Locals:         0       0       0       0       0       0       0       0       0       0       0       0       
      +0       0
  9640 ;;      Temps:          0       0       0       0       0       0       0       0       0       0       0       0       
      +0       0
  9641 ;;      Totals:         0       0       0       0       0       0       0       0       0       0       0       0       
      +0       0
  9642 ;;Total ram usage:        0 bytes
  9643 ;; Hardware stack levels used: 1
  9644 ;; Hardware stack levels required when called: 8
  9645 ;; This function calls:
  9646 ;;		Nothing
  9647 ;; This function is called by:
  9648 ;;		_I2C1_DO_SEND_STOP
  9649 ;; This function uses a non-reentrant model
  9650 ;;
  9651                           
  9652                           
  9653                           ;psect for function _I2C1_MasterStop
  9654  0C81                     _I2C1_MasterStop:
  9655  0C81                     l2799:	
  9656                           ;incstack = 0
  9657 ;; hardware stack exceeded
  9658                           ; Regs used in _I2C1_MasterStop: []
  9659                           
  9660                           
  9661                           ;mcc_generated_files/i2c1_master.c: 595:     SSP1CON2bits.PEN = 1;
  9662  0C81  0024               	movlb	4	; select bank4
  9663  0C82  1516               	bsf	22,2	;volatile
  9664  0C83                     l730:
  9665  0C83  0008               	return
  9666  0C84                     __end_of_I2C1_MasterStop:
  9667                           
  9668                           	psect	text70
  9669  0C7E                     __ptext70:	
  9670 ;; *************** function _I2C1_MasterEnableRestart *****************
  9671 ;; Defined at:
  9672 ;;		line 573 in file "mcc_generated_files/i2c1_master.c"
  9673 ;; Parameters:    Size  Location     Type
  9674 ;;		None
  9675 ;; Auto vars:     Size  Location     Type
  9676 ;;		None
  9677 ;; Return value:  Size  Location     Type
  9678 ;;                  1    wreg      void 
  9679 ;; Registers used:
  9680 ;;		None
  9681 ;; Tracked objects:
  9682 ;;		On entry : 0/0
  9683 ;;		On exit  : 0/0
  9684 ;;		Unchanged: 0/0
  9685 ;; Data sizes:     COMMON   BANK0   BANK1   BANK2   BANK3   BANK4   BANK5   BANK6   BANK7   BANK8   BANK9  BANK10  BANK1
      +1  BANK12
  9686 ;;      Params:         0       0       0       0       0       0       0       0       0       0       0       0       
      +0       0
  9687 ;;      Locals:         0       0       0       0       0       0       0       0       0       0       0       0       
      +0       0
  9688 ;;      Temps:          0       0       0       0       0       0       0       0       0       0       0       0       
      +0       0
  9689 ;;      Totals:         0       0       0       0       0       0       0       0       0       0       0       0       
      +0       0
  9690 ;;Total ram usage:        0 bytes
  9691 ;; Hardware stack levels used: 1
  9692 ;; Hardware stack levels required when called: 8
  9693 ;; This function calls:
  9694 ;;		Nothing
  9695 ;; This function is called by:
  9696 ;;		_I2C1_DO_SEND_RESTART_READ
  9697 ;;		_I2C1_DO_SEND_RESTART_WRITE
  9698 ;;		_I2C1_DO_SEND_RESTART
  9699 ;;		_I2C1_DO_RX_EMPTY
  9700 ;; This function uses a non-reentrant model
  9701 ;;
  9702                           
  9703                           
  9704                           ;psect for function _I2C1_MasterEnableRestart
  9705  0C7E                     _I2C1_MasterEnableRestart:
  9706  0C7E                     l2797:	
  9707                           ;incstack = 0
  9708 ;; hardware stack exceeded
  9709                           ; Regs used in _I2C1_MasterEnableRestart: []
  9710                           
  9711                           
  9712                           ;mcc_generated_files/i2c1_master.c: 575:     SSP1CON2bits.RSEN = 1;
  9713  0C7E  0024               	movlb	4	; select bank4
  9714  0C7F  1496               	bsf	22,1	;volatile
  9715  0C80                     l718:
  9716  0C80  0008               	return
  9717  0C81                     __end_of_I2C1_MasterEnableRestart:
  9718                           
  9719                           	psect	text71
  9720  0C7B                     __ptext71:	
  9721 ;; *************** function _I2C1_MasterStart *****************
  9722 ;; Defined at:
  9723 ;;		line 588 in file "mcc_generated_files/i2c1_master.c"
  9724 ;; Parameters:    Size  Location     Type
  9725 ;;		None
  9726 ;; Auto vars:     Size  Location     Type
  9727 ;;		None
  9728 ;; Return value:  Size  Location     Type
  9729 ;;                  1    wreg      void 
  9730 ;; Registers used:
  9731 ;;		None
  9732 ;; Tracked objects:
  9733 ;;		On entry : 0/0
  9734 ;;		On exit  : 0/0
  9735 ;;		Unchanged: 0/0
  9736 ;; Data sizes:     COMMON   BANK0   BANK1   BANK2   BANK3   BANK4   BANK5   BANK6   BANK7   BANK8   BANK9  BANK10  BANK1
      +1  BANK12
  9737 ;;      Params:         0       0       0       0       0       0       0       0       0       0       0       0       
      +0       0
  9738 ;;      Locals:         0       0       0       0       0       0       0       0       0       0       0       0       
      +0       0
  9739 ;;      Temps:          0       0       0       0       0       0       0       0       0       0       0       0       
      +0       0
  9740 ;;      Totals:         0       0       0       0       0       0       0       0       0       0       0       0       
      +0       0
  9741 ;;Total ram usage:        0 bytes
  9742 ;; Hardware stack levels used: 1
  9743 ;; Hardware stack levels required when called: 8
  9744 ;; This function calls:
  9745 ;;		Nothing
  9746 ;; This function is called by:
  9747 ;;		_I2C1_MasterOperation
  9748 ;; This function uses a non-reentrant model
  9749 ;;
  9750                           
  9751                           
  9752                           ;psect for function _I2C1_MasterStart
  9753  0C7B                     _I2C1_MasterStart:
  9754  0C7B                     l3121:	
  9755                           ;incstack = 0
  9756                           ; Regs used in _I2C1_MasterStart: []
  9757                           
  9758                           
  9759                           ;mcc_generated_files/i2c1_master.c: 590:     SSP1CON2bits.SEN = 1;
  9760  0C7B  0024               	movlb	4	; select bank4
  9761  0C7C  1416               	bsf	22,0	;volatile
  9762  0C7D                     l727:
  9763  0C7D  0008               	return
  9764  0C7E                     __end_of_I2C1_MasterStart:
  9765                           
  9766                           	psect	text72
  9767  0F20                     __ptext72:	
  9768 ;; *************** function _I2C1_Close *****************
  9769 ;; Defined at:
  9770 ;;		line 209 in file "mcc_generated_files/i2c1_master.c"
  9771 ;; Parameters:    Size  Location     Type
  9772 ;;		None
  9773 ;; Auto vars:     Size  Location     Type
  9774 ;;  returnValue     1    1[BANK0 ] enum E355
  9775 ;; Return value:  Size  Location     Type
  9776 ;;                  1    wreg      enum E355
  9777 ;; Registers used:
  9778 ;;		wreg, status,2, status,0, pclath, cstack
  9779 ;; Tracked objects:
  9780 ;;		On entry : 0/0
  9781 ;;		On exit  : 0/0
  9782 ;;		Unchanged: 0/0
  9783 ;; Data sizes:     COMMON   BANK0   BANK1   BANK2   BANK3   BANK4   BANK5   BANK6   BANK7   BANK8   BANK9  BANK10  BANK1
      +1  BANK12
  9784 ;;      Params:         0       0       0       0       0       0       0       0       0       0       0       0       
      +0       0
  9785 ;;      Locals:         0       1       0       0       0       0       0       0       0       0       0       0       
      +0       0
  9786 ;;      Temps:          0       1       0       0       0       0       0       0       0       0       0       0       
      +0       0
  9787 ;;      Totals:         0       2       0       0       0       0       0       0       0       0       0       0       
      +0       0
  9788 ;;Total ram usage:        2 bytes
  9789 ;; Hardware stack levels used: 1
  9790 ;; Hardware stack levels required when called: 9
  9791 ;; This function calls:
  9792 ;;		_I2C1_MasterClearIrq
  9793 ;;		_I2C1_MasterClose
  9794 ;;		_I2C1_MasterDisableIrq
  9795 ;; This function is called by:
  9796 ;;		_I2C1_Read1ByteRegister
  9797 ;;		_I2C1_Write1ByteRegister
  9798 ;;		_I2C1_Read2ByteRegister
  9799 ;;		_I2C1_Write2ByteRegister
  9800 ;;		_I2C1_WriteNBytes
  9801 ;;		_I2C1_ReadNBytes
  9802 ;;		_I2C1_ReadDataBlock
  9803 ;;		_i2c_write1ByteRegister
  9804 ;;		_i2c_writeNBytes
  9805 ;;		_i2c_read1ByteRegister
  9806 ;;		_i2c_read2ByteRegister
  9807 ;;		_i2c_write2ByteRegister
  9808 ;;		_i2c_readDataBlock
  9809 ;;		_i2c_readNBytes
  9810 ;; This function uses a non-reentrant model
  9811 ;;
  9812                           
  9813                           
  9814                           ;psect for function _I2C1_Close
  9815  0F20                     _I2C1_Close:
  9816  0F20                     l3255:	
  9817                           ;incstack = 0
  9818                           ; Regs used in _I2C1_Close: [wreg+status,2+status,0+pclath+cstack]
  9819                           
  9820                           
  9821                           ;mcc_generated_files/i2c1_master.c: 211:     i2c1_error_t returnValue = I2C1_BUSY;
  9822  0F20  0020               	movlb	0	; select bank0
  9823  0F21  01A1               	clrf	I2C1_Close@returnValue
  9824  0F22  0AA1               	incf	I2C1_Close@returnValue,f
  9825                           
  9826                           ;mcc_generated_files/i2c1_master.c: 212:     if(!I2C1_Status.busy)
  9827  0F23  18E8               	btfsc	_I2C1_Status+28,1
  9828  0F24  2F26               	goto	u1181
  9829  0F25  2F27               	goto	u1180
  9830  0F26                     u1181:
  9831  0F26  2F3A               	goto	l3269
  9832  0F27                     u1180:
  9833  0F27                     l3257:
  9834                           
  9835                           ;mcc_generated_files/i2c1_master.c: 213:     {;mcc_generated_files/i2c1_master.c: 214:  
      +                                 I2C1_Status.inUse = 0;
  9836  0F27  1168               	bcf	_I2C1_Status+28,2
  9837  0F28                     l3259:
  9838                           
  9839                           ;mcc_generated_files/i2c1_master.c: 215:         I2C1_Status.address = 0xff;
  9840  0F28  30FF               	movlw	255
  9841  0F29  00A0               	movwf	??_I2C1_Close
  9842  0F2A  0820               	movf	??_I2C1_Close,w
  9843  0F2B  00E2               	movwf	_I2C1_Status+22
  9844  0F2C                     l3261:
  9845                           
  9846                           ;mcc_generated_files/i2c1_master.c: 216:         I2C1_MasterClearIrq();
  9847  0F2C  318C  2472  318F   	fcall	_I2C1_MasterClearIrq
  9848  0F2F                     l3263:
  9849                           
  9850                           ;mcc_generated_files/i2c1_master.c: 217:         I2C1_MasterDisableIrq();
  9851  0F2F  318C  2478  318F   	fcall	_I2C1_MasterDisableIrq
  9852  0F32                     l3265:
  9853                           
  9854                           ;mcc_generated_files/i2c1_master.c: 218:         I2C1_MasterClose();
  9855  0F32  318C  2475  318F   	fcall	_I2C1_MasterClose
  9856  0F35                     l3267:
  9857                           
  9858                           ;mcc_generated_files/i2c1_master.c: 219:         returnValue = I2C1_Status.error;
  9859  0F35  0020               	movlb	0	; select bank0
  9860  0F36  0867               	movf	_I2C1_Status+27,w
  9861  0F37  00A0               	movwf	??_I2C1_Close
  9862  0F38  0820               	movf	??_I2C1_Close,w
  9863  0F39  00A1               	movwf	I2C1_Close@returnValue
  9864  0F3A                     l3269:
  9865                           
  9866                           ;mcc_generated_files/i2c1_master.c: 221:     return returnValue;
  9867  0F3A  0821               	movf	I2C1_Close@returnValue,w
  9868  0F3B                     l545:
  9869  0F3B  0008               	return
  9870  0F3C                     __end_of_I2C1_Close:
  9871                           
  9872                           	psect	text73
  9873  0C78                     __ptext73:	
  9874 ;; *************** function _I2C1_MasterDisableIrq *****************
  9875 ;; Defined at:
  9876 ;;		line 635 in file "mcc_generated_files/i2c1_master.c"
  9877 ;; Parameters:    Size  Location     Type
  9878 ;;		None
  9879 ;; Auto vars:     Size  Location     Type
  9880 ;;		None
  9881 ;; Return value:  Size  Location     Type
  9882 ;;                  1    wreg      void 
  9883 ;; Registers used:
  9884 ;;		None
  9885 ;; Tracked objects:
  9886 ;;		On entry : 0/0
  9887 ;;		On exit  : 0/0
  9888 ;;		Unchanged: 0/0
  9889 ;; Data sizes:     COMMON   BANK0   BANK1   BANK2   BANK3   BANK4   BANK5   BANK6   BANK7   BANK8   BANK9  BANK10  BANK1
      +1  BANK12
  9890 ;;      Params:         0       0       0       0       0       0       0       0       0       0       0       0       
      +0       0
  9891 ;;      Locals:         0       0       0       0       0       0       0       0       0       0       0       0       
      +0       0
  9892 ;;      Temps:          0       0       0       0       0       0       0       0       0       0       0       0       
      +0       0
  9893 ;;      Totals:         0       0       0       0       0       0       0       0       0       0       0       0       
      +0       0
  9894 ;;Total ram usage:        0 bytes
  9895 ;; Hardware stack levels used: 1
  9896 ;; Hardware stack levels required when called: 8
  9897 ;; This function calls:
  9898 ;;		Nothing
  9899 ;; This function is called by:
  9900 ;;		_I2C1_Close
  9901 ;;		_I2C1_SetTimeOut
  9902 ;; This function uses a non-reentrant model
  9903 ;;
  9904                           
  9905                           
  9906                           ;psect for function _I2C1_MasterDisableIrq
  9907  0C78                     _I2C1_MasterDisableIrq:
  9908  0C78                     l3165:	
  9909                           ;incstack = 0
  9910                           ; Regs used in _I2C1_MasterDisableIrq: []
  9911                           
  9912                           
  9913                           ;mcc_generated_files/i2c1_master.c: 637:     PIE1bits.SSP1IE = 0;
  9914  0C78  0021               	movlb	1	; select bank1
  9915  0C79  1191               	bcf	17,3	;volatile
  9916  0C7A                     l754:
  9917  0C7A  0008               	return
  9918  0C7B                     __end_of_I2C1_MasterDisableIrq:
  9919                           
  9920                           	psect	text74
  9921  0C75                     __ptext74:	
  9922 ;; *************** function _I2C1_MasterClose *****************
  9923 ;; Defined at:
  9924 ;;		line 557 in file "mcc_generated_files/i2c1_master.c"
  9925 ;; Parameters:    Size  Location     Type
  9926 ;;		None
  9927 ;; Auto vars:     Size  Location     Type
  9928 ;;		None
  9929 ;; Return value:  Size  Location     Type
  9930 ;;                  1    wreg      void 
  9931 ;; Registers used:
  9932 ;;		None
  9933 ;; Tracked objects:
  9934 ;;		On entry : 0/0
  9935 ;;		On exit  : 0/0
  9936 ;;		Unchanged: 0/0
  9937 ;; Data sizes:     COMMON   BANK0   BANK1   BANK2   BANK3   BANK4   BANK5   BANK6   BANK7   BANK8   BANK9  BANK10  BANK1
      +1  BANK12
  9938 ;;      Params:         0       0       0       0       0       0       0       0       0       0       0       0       
      +0       0
  9939 ;;      Locals:         0       0       0       0       0       0       0       0       0       0       0       0       
      +0       0
  9940 ;;      Temps:          0       0       0       0       0       0       0       0       0       0       0       0       
      +0       0
  9941 ;;      Totals:         0       0       0       0       0       0       0       0       0       0       0       0       
      +0       0
  9942 ;;Total ram usage:        0 bytes
  9943 ;; Hardware stack levels used: 1
  9944 ;; Hardware stack levels required when called: 8
  9945 ;; This function calls:
  9946 ;;		Nothing
  9947 ;; This function is called by:
  9948 ;;		_I2C1_Close
  9949 ;; This function uses a non-reentrant model
  9950 ;;
  9951                           
  9952                           
  9953                           ;psect for function _I2C1_MasterClose
  9954  0C75                     _I2C1_MasterClose:
  9955  0C75                     l3167:	
  9956                           ;incstack = 0
  9957                           ; Regs used in _I2C1_MasterClose: []
  9958                           
  9959                           
  9960                           ;mcc_generated_files/i2c1_master.c: 560:     SSP1CON1bits.SSPEN = 0;
  9961  0C75  0024               	movlb	4	; select bank4
  9962  0C76  1295               	bcf	21,5	;volatile
  9963  0C77                     l709:
  9964  0C77  0008               	return
  9965  0C78                     __end_of_I2C1_MasterClose:
  9966                           
  9967                           	psect	text75
  9968  0C72                     __ptext75:	
  9969 ;; *************** function _I2C1_MasterClearIrq *****************
  9970 ;; Defined at:
  9971 ;;		line 640 in file "mcc_generated_files/i2c1_master.c"
  9972 ;; Parameters:    Size  Location     Type
  9973 ;;		None
  9974 ;; Auto vars:     Size  Location     Type
  9975 ;;		None
  9976 ;; Return value:  Size  Location     Type
  9977 ;;                  1    wreg      void 
  9978 ;; Registers used:
  9979 ;;		None
  9980 ;; Tracked objects:
  9981 ;;		On entry : 0/0
  9982 ;;		On exit  : 0/0
  9983 ;;		Unchanged: 0/0
  9984 ;; Data sizes:     COMMON   BANK0   BANK1   BANK2   BANK3   BANK4   BANK5   BANK6   BANK7   BANK8   BANK9  BANK10  BANK1
      +1  BANK12
  9985 ;;      Params:         0       0       0       0       0       0       0       0       0       0       0       0       
      +0       0
  9986 ;;      Locals:         0       0       0       0       0       0       0       0       0       0       0       0       
      +0       0
  9987 ;;      Temps:          0       0       0       0       0       0       0       0       0       0       0       0       
      +0       0
  9988 ;;      Totals:         0       0       0       0       0       0       0       0       0       0       0       0       
      +0       0
  9989 ;;Total ram usage:        0 bytes
  9990 ;; Hardware stack levels used: 1
  9991 ;; Hardware stack levels required when called: 8
  9992 ;; This function calls:
  9993 ;;		Nothing
  9994 ;; This function is called by:
  9995 ;;		_I2C1_Open
  9996 ;;		_I2C1_Close
  9997 ;;		_I2C1_MasterFsm
  9998 ;; This function uses a non-reentrant model
  9999 ;;
 10000                           
 10001                           
 10002                           ;psect for function _I2C1_MasterClearIrq
 10003  0C72                     _I2C1_MasterClearIrq:
 10004  0C72                     l2939:	
 10005                           ;incstack = 0
 10006                           ; Regs used in _I2C1_MasterClearIrq: []
 10007                           
 10008                           
 10009                           ;mcc_generated_files/i2c1_master.c: 642:     PIR1bits.SSP1IF = 0;
 10010  0C72  0020               	movlb	0	; select bank0
 10011  0C73  1191               	bcf	17,3	;volatile
 10012  0C74                     l757:
 10013  0C74  0008               	return
 10014  0C75                     __end_of_I2C1_MasterClearIrq:
 10015                           
 10016                           	psect	intentry
 10017  0004                     __pintentry:	
 10018 ;; *************** function _INTERRUPT_InterruptManager *****************
 10019 ;; Defined at:
 10020 ;;		line 52 in file "mcc_generated_files/interrupt_manager.c"
 10021 ;; Parameters:    Size  Location     Type
 10022 ;;		None
 10023 ;; Auto vars:     Size  Location     Type
 10024 ;;		None
 10025 ;; Return value:  Size  Location     Type
 10026 ;;                  1    wreg      void 
 10027 ;; Registers used:
 10028 ;;		wreg, status,2, status,0, pclath, cstack
 10029 ;; Tracked objects:
 10030 ;;		On entry : 0/0
 10031 ;;		On exit  : 0/0
 10032 ;;		Unchanged: 0/0
 10033 ;; Data sizes:     COMMON   BANK0   BANK1   BANK2   BANK3   BANK4   BANK5   BANK6   BANK7   BANK8   BANK9  BANK10  BANK1
      +1  BANK12
 10034 ;;      Params:         0       0       0       0       0       0       0       0       0       0       0       0       
      +0       0
 10035 ;;      Locals:         0       0       0       0       0       0       0       0       0       0       0       0       
      +0       0
 10036 ;;      Temps:          0       0       0       0       0       0       0       0       0       0       0       0       
      +0       0
 10037 ;;      Totals:         0       0       0       0       0       0       0       0       0       0       0       0       
      +0       0
 10038 ;;Total ram usage:        0 bytes
 10039 ;; Hardware stack levels used: 1
 10040 ;; Hardware stack levels required when called: 7
 10041 ;; This function calls:
 10042 ;;		_PIN_MANAGER_IOC
 10043 ;; This function is called by:
 10044 ;;		Interrupt level 1
 10045 ;; This function uses a non-reentrant model
 10046 ;;
 10047                           
 10048  0004                     _INTERRUPT_InterruptManager:
 10049                           
 10050                           ;incstack = 0
 10051 ;; hardware stack exceeded
 10052  0004  147E               	bsf	int$flags,0	;set compiler interrupt flag (level 1)
 10053                           
 10054                           ; Regs used in _INTERRUPT_InterruptManager: [wreg+status,2+status,0+pclath+cstack]
 10055  0005  3180               	pagesel	$
 10056  0006                     i1l3933:
 10057                           
 10058                           ;mcc_generated_files/interrupt_manager.c: 55:     if(INTCONbits.IOCIE == 1 && INTCONbits
      +                          .IOCIF == 1)
 10059  0006  1D8B               	btfss	11,3	;volatile
 10060  0007  2809               	goto	u184_21
 10061  0008  280A               	goto	u184_20
 10062  0009                     u184_21:
 10063  0009  2811               	goto	i1l873
 10064  000A                     u184_20:
 10065  000A                     i1l3935:
 10066  000A  1C0B               	btfss	11,0	;volatile
 10067  000B  280D               	goto	u185_21
 10068  000C  280E               	goto	u185_20
 10069  000D                     u185_21:
 10070  000D  2811               	goto	i1l873
 10071  000E                     u185_20:
 10072  000E                     i1l3937:
 10073                           
 10074                           ;mcc_generated_files/interrupt_manager.c: 56:     {;mcc_generated_files/interrupt_manage
      +                          r.c: 57:         PIN_MANAGER_IOC();
 10075  000E  318D  2504  3180   	fcall	_PIN_MANAGER_IOC
 10076  0011                     i1l873:	
 10077                           ;mcc_generated_files/interrupt_manager.c: 58:     }
 10078                           
 10079  0011  107E               	bcf	int$flags,0	;clear compiler interrupt flag (level 1)
 10080  0012  0009               	retfie
 10081  0013                     __end_of_INTERRUPT_InterruptManager:
 10082                           
 10083                           	psect	text77
 10084  0D04                     __ptext77:	
 10085 ;; *************** function _PIN_MANAGER_IOC *****************
 10086 ;; Defined at:
 10087 ;;		line 115 in file "mcc_generated_files/pin_manager.c"
 10088 ;; Parameters:    Size  Location     Type
 10089 ;;		None
 10090 ;; Auto vars:     Size  Location     Type
 10091 ;;		None
 10092 ;; Return value:  Size  Location     Type
 10093 ;;                  1    wreg      void 
 10094 ;; Registers used:
 10095 ;;		wreg, status,2, status,0, pclath, cstack
 10096 ;; Tracked objects:
 10097 ;;		On entry : 0/0
 10098 ;;		On exit  : 0/0
 10099 ;;		Unchanged: 0/0
 10100 ;; Data sizes:     COMMON   BANK0   BANK1   BANK2   BANK3   BANK4   BANK5   BANK6   BANK7   BANK8   BANK9  BANK10  BANK1
      +1  BANK12
 10101 ;;      Params:         0       0       0       0       0       0       0       0       0       0       0       0       
      +0       0
 10102 ;;      Locals:         0       0       0       0       0       0       0       0       0       0       0       0       
      +0       0
 10103 ;;      Temps:          0       0       0       0       0       0       0       0       0       0       0       0       
      +0       0
 10104 ;;      Totals:         0       0       0       0       0       0       0       0       0       0       0       0       
      +0       0
 10105 ;;Total ram usage:        0 bytes
 10106 ;; Hardware stack levels used: 1
 10107 ;; Hardware stack levels required when called: 6
 10108 ;; This function calls:
 10109 ;;		_IOCBF7_ISR
 10110 ;; This function is called by:
 10111 ;;		_INTERRUPT_InterruptManager
 10112 ;; This function uses a non-reentrant model
 10113 ;;
 10114                           
 10115                           
 10116                           ;psect for function _PIN_MANAGER_IOC
 10117  0D04                     _PIN_MANAGER_IOC:
 10118  0D04                     i1l3523:	
 10119                           ;incstack = 0
 10120 ;; hardware stack exceeded
 10121                           ; Regs used in _PIN_MANAGER_IOC: [wreg+status,2+status,0+pclath+cstack]
 10122                           
 10123                           
 10124                           ;mcc_generated_files/pin_manager.c: 118:     if(IOCBFbits.IOCBF7 == 1)
 10125  0D04  0027               	movlb	7	; select bank7
 10126  0D05  1F96               	btfss	22,7	;volatile
 10127  0D06  2D08               	goto	u135_21
 10128  0D07  2D09               	goto	u135_20
 10129  0D08                     u135_21:
 10130  0D08  2D0C               	goto	i1l269
 10131  0D09                     u135_20:
 10132  0D09                     i1l3525:
 10133                           
 10134                           ;mcc_generated_files/pin_manager.c: 119:     {;mcc_generated_files/pin_manager.c: 120:  
      +                                 IOCBF7_ISR();
 10135  0D09  318D  254F  318D   	fcall	_IOCBF7_ISR
 10136  0D0C                     i1l269:
 10137  0D0C  0008               	return
 10138  0D0D                     __end_of_PIN_MANAGER_IOC:
 10139                           
 10140                           	psect	text78
 10141  0D4F                     __ptext78:	
 10142 ;; *************** function _IOCBF7_ISR *****************
 10143 ;; Defined at:
 10144 ;;		line 127 in file "mcc_generated_files/pin_manager.c"
 10145 ;; Parameters:    Size  Location     Type
 10146 ;;		None
 10147 ;; Auto vars:     Size  Location     Type
 10148 ;;		None
 10149 ;; Return value:  Size  Location     Type
 10150 ;;                  1    wreg      void 
 10151 ;; Registers used:
 10152 ;;		wreg, status,2, status,0, pclath, cstack
 10153 ;; Tracked objects:
 10154 ;;		On entry : 0/0
 10155 ;;		On exit  : 0/0
 10156 ;;		Unchanged: 0/0
 10157 ;; Data sizes:     COMMON   BANK0   BANK1   BANK2   BANK3   BANK4   BANK5   BANK6   BANK7   BANK8   BANK9  BANK10  BANK1
      +1  BANK12
 10158 ;;      Params:         0       0       0       0       0       0       0       0       0       0       0       0       
      +0       0
 10159 ;;      Locals:         0       0       0       0       0       0       0       0       0       0       0       0       
      +0       0
 10160 ;;      Temps:          0       0       0       0       0       0       0       0       0       0       0       0       
      +0       0
 10161 ;;      Totals:         0       0       0       0       0       0       0       0       0       0       0       0       
      +0       0
 10162 ;;Total ram usage:        0 bytes
 10163 ;; Hardware stack levels used: 1
 10164 ;; Hardware stack levels required when called: 5
 10165 ;; This function calls:
 10166 ;;		Absolute function
 10167 ;;		_ButtonInterrupt
 10168 ;;		_IOCBF7_DefaultInterruptHandler
 10169 ;; This function is called by:
 10170 ;;		_PIN_MANAGER_IOC
 10171 ;; This function uses a non-reentrant model
 10172 ;;
 10173                           
 10174                           
 10175                           ;psect for function _IOCBF7_ISR
 10176  0D4F                     _IOCBF7_ISR:
 10177  0D4F                     i1l3415:	
 10178                           ;incstack = 0
 10179 ;; hardware stack exceeded
 10180                           ; Regs used in _IOCBF7_ISR: [wreg+status,2+status,0+pclath+cstack]
 10181                           
 10182                           
 10183                           ;mcc_generated_files/pin_manager.c: 132:     if(IOCBF7_InterruptHandler)
 10184  0D4F  087A               	movf	_IOCBF7_InterruptHandler,w
 10185  0D50  047B               	iorwf	_IOCBF7_InterruptHandler+1,w
 10186  0D51  1903               	btfsc	3,2
 10187  0D52  2D54               	goto	u125_21
 10188  0D53  2D55               	goto	u125_20
 10189  0D54                     u125_21:
 10190  0D54  2D5A               	goto	i1l3419
 10191  0D55                     u125_20:
 10192  0D55                     i1l3417:
 10193                           
 10194                           ;mcc_generated_files/pin_manager.c: 133:     {;mcc_generated_files/pin_manager.c: 134:  
      +                                 IOCBF7_InterruptHandler();
 10195  0D55  087B               	movf	_IOCBF7_InterruptHandler+1,w
 10196  0D56  008A               	movwf	10
 10197  0D57  087A               	movf	_IOCBF7_InterruptHandler,w
 10198  0D58  000A               	callw
 10199  0D59  318D               	pagesel	$
 10200  0D5A                     i1l3419:
 10201                           
 10202                           ;mcc_generated_files/pin_manager.c: 136:     IOCBFbits.IOCBF7 = 0;
 10203  0D5A  0027               	movlb	7	; select bank7
 10204  0D5B  1396               	bcf	22,7	;volatile
 10205  0D5C                     i1l273:
 10206  0D5C  0008               	return
 10207  0D5D                     __end_of_IOCBF7_ISR:
 10208                           
 10209                           	psect	text79
 10210  0C8D                     __ptext79:	
 10211 ;; *************** function _ButtonInterrupt *****************
 10212 ;; Defined at:
 10213 ;;		line 587 in file "main.c"
 10214 ;; Parameters:    Size  Location     Type
 10215 ;;		None
 10216 ;; Auto vars:     Size  Location     Type
 10217 ;;		None
 10218 ;; Return value:  Size  Location     Type
 10219 ;;                  1    wreg      void 
 10220 ;; Registers used:
 10221 ;;		wreg, status,2, status,0, pclath, cstack
 10222 ;; Tracked objects:
 10223 ;;		On entry : 0/0
 10224 ;;		On exit  : 0/0
 10225 ;;		Unchanged: 0/0
 10226 ;; Data sizes:     COMMON   BANK0   BANK1   BANK2   BANK3   BANK4   BANK5   BANK6   BANK7   BANK8   BANK9  BANK10  BANK1
      +1  BANK12
 10227 ;;      Params:         0       0       0       0       0       0       0       0       0       0       0       0       
      +0       0
 10228 ;;      Locals:         0       0       0       0       0       0       0       0       0       0       0       0       
      +0       0
 10229 ;;      Temps:          0       0       0       0       0       0       0       0       0       0       0       0       
      +0       0
 10230 ;;      Totals:         0       0       0       0       0       0       0       0       0       0       0       0       
      +0       0
 10231 ;;Total ram usage:        0 bytes
 10232 ;; Hardware stack levels used: 1
 10233 ;; Hardware stack levels required when called: 4
 10234 ;; This function calls:
 10235 ;;		i1_sparks
 10236 ;; This function is called by:
 10237 ;;		_main
 10238 ;;		_IOCBF7_ISR
 10239 ;; This function uses a non-reentrant model
 10240 ;;
 10241                           
 10242                           
 10243                           ;psect for function _ButtonInterrupt
 10244  0C8D                     _ButtonInterrupt:
 10245  0C8D                     i1l3215:	
 10246                           ;incstack = 0
 10247 ;; hardware stack exceeded
 10248                           ; Regs used in _ButtonInterrupt: [wreg+status,2+status,0+pclath+cstack]
 10249                           
 10250                           
 10251                           ;main.c: 596:     sparks();
 10252  0C8D  3184  24AC  318C   	fcall	i1_sparks
 10253  0C90                     i1l173:
 10254  0C90  0008               	return
 10255  0C91                     __end_of_ButtonInterrupt:
 10256                           
 10257                           	psect	text80
 10258  0C6F                     __ptext80:	
 10259 ;; *************** function _IOCBF7_DefaultInterruptHandler *****************
 10260 ;; Defined at:
 10261 ;;		line 149 in file "mcc_generated_files/pin_manager.c"
 10262 ;; Parameters:    Size  Location     Type
 10263 ;;		None
 10264 ;; Auto vars:     Size  Location     Type
 10265 ;;		None
 10266 ;; Return value:  Size  Location     Type
 10267 ;;                  1    wreg      void 
 10268 ;; Registers used:
 10269 ;;		None
 10270 ;; Tracked objects:
 10271 ;;		On entry : 0/0
 10272 ;;		On exit  : 0/0
 10273 ;;		Unchanged: 0/0
 10274 ;; Data sizes:     COMMON   BANK0   BANK1   BANK2   BANK3   BANK4   BANK5   BANK6   BANK7   BANK8   BANK9  BANK10  BANK1
      +1  BANK12
 10275 ;;      Params:         0       0       0       0       0       0       0       0       0       0       0       0       
      +0       0
 10276 ;;      Locals:         0       0       0       0       0       0       0       0       0       0       0       0       
      +0       0
 10277 ;;      Temps:          0       0       0       0       0       0       0       0       0       0       0       0       
      +0       0
 10278 ;;      Totals:         0       0       0       0       0       0       0       0       0       0       0       0       
      +0       0
 10279 ;;Total ram usage:        0 bytes
 10280 ;; Hardware stack levels used: 1
 10281 ;; This function calls:
 10282 ;;		Nothing
 10283 ;; This function is called by:
 10284 ;;		_PIN_MANAGER_Initialize
 10285 ;;		_IOCBF7_ISR
 10286 ;; This function uses a non-reentrant model
 10287 ;;
 10288                           
 10289                           
 10290                           ;psect for function _IOCBF7_DefaultInterruptHandler
 10291  0C6F                     _IOCBF7_DefaultInterruptHandler:
 10292  0C6F                     i1l279:	
 10293                           ;incstack = 0
 10294                           ; Regs used in _IOCBF7_DefaultInterruptHandler: []
 10295                           
 10296  0C6F  0008               	return
 10297  0C70                     __end_of_IOCBF7_DefaultInterruptHandler:
 10298                           
 10299                           	psect	text81
 10300  04AC                     __ptext81:	
 10301 ;; *************** function i1_sparks *****************
 10302 ;; Defined at:
 10303 ;;		line 208 in file "main.c"
 10304 ;; Parameters:    Size  Location     Type
 10305 ;;		None
 10306 ;; Auto vars:     Size  Location     Type
 10307 ;;  i               1    9[COMMON] unsigned char 
 10308 ;; Return value:  Size  Location     Type
 10309 ;;                  1    wreg      void 
 10310 ;; Registers used:
 10311 ;;		wreg, status,2, status,0, pclath, cstack
 10312 ;; Tracked objects:
 10313 ;;		On entry : 0/0
 10314 ;;		On exit  : 0/0
 10315 ;;		Unchanged: 0/0
 10316 ;; Data sizes:     COMMON   BANK0   BANK1   BANK2   BANK3   BANK4   BANK5   BANK6   BANK7   BANK8   BANK9  BANK10  BANK1
      +1  BANK12
 10317 ;;      Params:         0       0       0       0       0       0       0       0       0       0       0       0       
      +0       0
 10318 ;;      Locals:         1       0       0       0       0       0       0       0       0       0       0       0       
      +0       0
 10319 ;;      Temps:          2       0       0       0       0       0       0       0       0       0       0       0       
      +0       0
 10320 ;;      Totals:         3       0       0       0       0       0       0       0       0       0       0       0       
      +0       0
 10321 ;;Total ram usage:        3 bytes
 10322 ;; Hardware stack levels used: 1
 10323 ;; Hardware stack levels required when called: 3
 10324 ;; This function calls:
 10325 ;;		i1_DELAY_milliseconds
 10326 ;;		i1_EPWM2_LoadDutyValue
 10327 ;;		i1_flashRED
 10328 ;;		i1_lightsOff
 10329 ;; This function is called by:
 10330 ;;		_ButtonInterrupt
 10331 ;; This function uses a non-reentrant model
 10332 ;;
 10333                           
 10334                           
 10335                           ;psect for function i1_sparks
 10336  04AC                     i1_sparks:
 10337  04AC                     i1l3189:	
 10338                           ;incstack = 0
 10339 ;; hardware stack exceeded
 10340                           ; Regs used in i1_sparks: [wreg+status,2+status,0+pclath+cstack]
 10341                           
 10342                           
 10343                           ;main.c: 210:     uint8_t i;;main.c: 231:     lightsOff();
 10344  04AC  318D  25A5  3184   	fcall	i1_lightsOff
 10345  04AF                     i1l3191:
 10346                           
 10347                           ;main.c: 233:     for (i=0;i<160;i++)
 10348  04AF  01F9               	clrf	i1sparks@i
 10349  04B0                     i1l3197:
 10350                           
 10351                           ;main.c: 234:     {;main.c: 235:         EPWM2_LoadDutyValue(i);
 10352  04B0  0879               	movf	i1sparks@i,w
 10353  04B1  00F7               	movwf	??i1_sparks
 10354  04B2  01F8               	clrf	??i1_sparks+1
 10355  04B3  0877               	movf	??i1_sparks,w
 10356  04B4  00F0               	movwf	i1EPWM2_LoadDutyValue@dutyValue
 10357  04B5  0878               	movf	??i1_sparks+1,w
 10358  04B6  00F1               	movwf	i1EPWM2_LoadDutyValue@dutyValue+1
 10359  04B7  318E  26A7  3184   	fcall	i1_EPWM2_LoadDutyValue
 10360                           
 10361                           ;main.c: 236:         DELAY_milliseconds(10);
 10362  04BA  300A               	movlw	10
 10363  04BB  00F0               	movwf	i1DELAY_milliseconds@milliseconds
 10364  04BC  3000               	movlw	0
 10365  04BD  00F1               	movwf	i1DELAY_milliseconds@milliseconds+1
 10366  04BE  318E  2664  3184   	fcall	i1_DELAY_milliseconds
 10367  04C1                     i1l3199:
 10368                           
 10369                           ;main.c: 237:     }
 10370  04C1  3001               	movlw	1
 10371  04C2  00F7               	movwf	??i1_sparks
 10372  04C3  0877               	movf	??i1_sparks,w
 10373  04C4  07F9               	addwf	i1sparks@i,f
 10374  04C5                     i1l3201:
 10375  04C5  30A0               	movlw	160
 10376  04C6  0279               	subwf	i1sparks@i,w
 10377  04C7  1C03               	skipc
 10378  04C8  2CCA               	goto	u115_21
 10379  04C9  2CCB               	goto	u115_20
 10380  04CA                     u115_21:
 10381  04CA  2CB0               	goto	i1l3197
 10382  04CB                     u115_20:
 10383  04CB                     i1l3203:
 10384                           
 10385                           ;main.c: 239:     lightsOff();
 10386  04CB  318D  25A5  3184   	fcall	i1_lightsOff
 10387                           
 10388                           ;main.c: 240:     DELAY_milliseconds(400);
 10389  04CE  3090               	movlw	144
 10390  04CF  00F0               	movwf	i1DELAY_milliseconds@milliseconds
 10391  04D0  3001               	movlw	1
 10392  04D1  00F1               	movwf	i1DELAY_milliseconds@milliseconds+1
 10393  04D2  318E  2664  3184   	fcall	i1_DELAY_milliseconds
 10394                           
 10395                           ;main.c: 242:     flashRED();
 10396  04D5  3187  275F  3184   	fcall	i1_flashRED
 10397                           
 10398                           ;main.c: 243:     DELAY_milliseconds(400);
 10399  04D8  3090               	movlw	144
 10400  04D9  00F0               	movwf	i1DELAY_milliseconds@milliseconds
 10401  04DA  3001               	movlw	1
 10402  04DB  00F1               	movwf	i1DELAY_milliseconds@milliseconds+1
 10403  04DC  318E  2664  3184   	fcall	i1_DELAY_milliseconds
 10404                           
 10405                           ;main.c: 245:     flashRED();
 10406  04DF  3187  275F  3184   	fcall	i1_flashRED
 10407                           
 10408                           ;main.c: 246:     DELAY_milliseconds(50);
 10409  04E2  3032               	movlw	50
 10410  04E3  00F0               	movwf	i1DELAY_milliseconds@milliseconds
 10411  04E4  3000               	movlw	0
 10412  04E5  00F1               	movwf	i1DELAY_milliseconds@milliseconds+1
 10413  04E6  318E  2664  3184   	fcall	i1_DELAY_milliseconds
 10414                           
 10415                           ;main.c: 248:     flashRED();
 10416  04E9  3187  275F  3184   	fcall	i1_flashRED
 10417                           
 10418                           ;main.c: 249:     DELAY_milliseconds(50);
 10419  04EC  3032               	movlw	50
 10420  04ED  00F0               	movwf	i1DELAY_milliseconds@milliseconds
 10421  04EE  3000               	movlw	0
 10422  04EF  00F1               	movwf	i1DELAY_milliseconds@milliseconds+1
 10423  04F0  318E  2664  3184   	fcall	i1_DELAY_milliseconds
 10424                           
 10425                           ;main.c: 251:     flashRED();
 10426  04F3  3187  275F  3184   	fcall	i1_flashRED
 10427                           
 10428                           ;main.c: 252:     DELAY_milliseconds(300);
 10429  04F6  302C               	movlw	44
 10430  04F7  00F0               	movwf	i1DELAY_milliseconds@milliseconds
 10431  04F8  3001               	movlw	1
 10432  04F9  00F1               	movwf	i1DELAY_milliseconds@milliseconds+1
 10433  04FA  318E  2664  3184   	fcall	i1_DELAY_milliseconds
 10434                           
 10435                           ;main.c: 254:     flashRED();
 10436  04FD  3187  275F  3184   	fcall	i1_flashRED
 10437                           
 10438                           ;main.c: 255:     DELAY_milliseconds(20);
 10439  0500  3014               	movlw	20
 10440  0501  00F0               	movwf	i1DELAY_milliseconds@milliseconds
 10441  0502  3000               	movlw	0
 10442  0503  00F1               	movwf	i1DELAY_milliseconds@milliseconds+1
 10443  0504  318E  2664  3184   	fcall	i1_DELAY_milliseconds
 10444                           
 10445                           ;main.c: 257:     flashRED();
 10446  0507  3187  275F  3184   	fcall	i1_flashRED
 10447                           
 10448                           ;main.c: 258:     DELAY_milliseconds(20);
 10449  050A  3014               	movlw	20
 10450  050B  00F0               	movwf	i1DELAY_milliseconds@milliseconds
 10451  050C  3000               	movlw	0
 10452  050D  00F1               	movwf	i1DELAY_milliseconds@milliseconds+1
 10453  050E  318E  2664  3184   	fcall	i1_DELAY_milliseconds
 10454                           
 10455                           ;main.c: 260:     flashRED();
 10456  0511  3187  275F  3184   	fcall	i1_flashRED
 10457                           
 10458                           ;main.c: 261:     DELAY_milliseconds(20);
 10459  0514  3014               	movlw	20
 10460  0515  00F0               	movwf	i1DELAY_milliseconds@milliseconds
 10461  0516  3000               	movlw	0
 10462  0517  00F1               	movwf	i1DELAY_milliseconds@milliseconds+1
 10463  0518  318E  2664  3184   	fcall	i1_DELAY_milliseconds
 10464                           
 10465                           ;main.c: 263:     flashRED();
 10466  051B  3187  275F  3184   	fcall	i1_flashRED
 10467                           
 10468                           ;main.c: 264:     DELAY_milliseconds(100);
 10469  051E  3064               	movlw	100
 10470  051F  00F0               	movwf	i1DELAY_milliseconds@milliseconds
 10471  0520  3000               	movlw	0
 10472  0521  00F1               	movwf	i1DELAY_milliseconds@milliseconds+1
 10473  0522  318E  2664  3184   	fcall	i1_DELAY_milliseconds
 10474                           
 10475                           ;main.c: 266:     flashRED();
 10476  0525  3187  275F  3184   	fcall	i1_flashRED
 10477                           
 10478                           ;main.c: 267:     DELAY_milliseconds(20);
 10479  0528  3014               	movlw	20
 10480  0529  00F0               	movwf	i1DELAY_milliseconds@milliseconds
 10481  052A  3000               	movlw	0
 10482  052B  00F1               	movwf	i1DELAY_milliseconds@milliseconds+1
 10483  052C  318E  2664  3184   	fcall	i1_DELAY_milliseconds
 10484                           
 10485                           ;main.c: 269:     flashRED();
 10486  052F  3187  275F  3184   	fcall	i1_flashRED
 10487                           
 10488                           ;main.c: 270:     DELAY_milliseconds(20);
 10489  0532  3014               	movlw	20
 10490  0533  00F0               	movwf	i1DELAY_milliseconds@milliseconds
 10491  0534  3000               	movlw	0
 10492  0535  00F1               	movwf	i1DELAY_milliseconds@milliseconds+1
 10493  0536  318E  2664  3184   	fcall	i1_DELAY_milliseconds
 10494                           
 10495                           ;main.c: 272:     flashRED();
 10496  0539  3187  275F  3184   	fcall	i1_flashRED
 10497                           
 10498                           ;main.c: 273:     DELAY_milliseconds(20);
 10499  053C  3014               	movlw	20
 10500  053D  00F0               	movwf	i1DELAY_milliseconds@milliseconds
 10501  053E  3000               	movlw	0
 10502  053F  00F1               	movwf	i1DELAY_milliseconds@milliseconds+1
 10503  0540  318E  2664  3184   	fcall	i1_DELAY_milliseconds
 10504                           
 10505                           ;main.c: 275:     flashRED();
 10506  0543  3187  275F  3184   	fcall	i1_flashRED
 10507                           
 10508                           ;main.c: 276:     DELAY_milliseconds(20);
 10509  0546  3014               	movlw	20
 10510  0547  00F0               	movwf	i1DELAY_milliseconds@milliseconds
 10511  0548  3000               	movlw	0
 10512  0549  00F1               	movwf	i1DELAY_milliseconds@milliseconds+1
 10513  054A  318E  2664  3184   	fcall	i1_DELAY_milliseconds
 10514                           
 10515                           ;main.c: 295:     lightsOff();
 10516  054D  318D  25A5  3184   	fcall	i1_lightsOff
 10517  0550                     i1l143:
 10518  0550  0008               	return
 10519  0551                     __end_ofi1_sparks:
 10520                           
 10521                           	psect	text82
 10522  075F                     __ptext82:	
 10523 ;; *************** function i1_flashRED *****************
 10524 ;; Defined at:
 10525 ;;		line 178 in file "main.c"
 10526 ;; Parameters:    Size  Location     Type
 10527 ;;		None
 10528 ;; Auto vars:     Size  Location     Type
 10529 ;;  i               1    6[COMMON] unsigned char 
 10530 ;; Return value:  Size  Location     Type
 10531 ;;                  1    wreg      void 
 10532 ;; Registers used:
 10533 ;;		wreg, status,2, status,0, pclath, cstack
 10534 ;; Tracked objects:
 10535 ;;		On entry : 0/0
 10536 ;;		On exit  : 0/0
 10537 ;;		Unchanged: 0/0
 10538 ;; Data sizes:     COMMON   BANK0   BANK1   BANK2   BANK3   BANK4   BANK5   BANK6   BANK7   BANK8   BANK9  BANK10  BANK1
      +1  BANK12
 10539 ;;      Params:         0       0       0       0       0       0       0       0       0       0       0       0       
      +0       0
 10540 ;;      Locals:         1       0       0       0       0       0       0       0       0       0       0       0       
      +0       0
 10541 ;;      Temps:          2       0       0       0       0       0       0       0       0       0       0       0       
      +0       0
 10542 ;;      Totals:         3       0       0       0       0       0       0       0       0       0       0       0       
      +0       0
 10543 ;;Total ram usage:        3 bytes
 10544 ;; Hardware stack levels used: 1
 10545 ;; Hardware stack levels required when called: 2
 10546 ;; This function calls:
 10547 ;;		i1_DELAY_milliseconds
 10548 ;;		i1_EPWM2_LoadDutyValue
 10549 ;;		i1_lightsOff
 10550 ;; This function is called by:
 10551 ;;		i1_sparks
 10552 ;; This function uses a non-reentrant model
 10553 ;;
 10554                           
 10555                           
 10556                           ;psect for function i1_flashRED
 10557  075F                     i1_flashRED:
 10558  075F                     i1l3131:	
 10559                           ;incstack = 0
 10560 ;; hardware stack exceeded
 10561                           ; Regs used in i1_flashRED: [wreg+status,2+status,0+pclath+cstack]
 10562                           
 10563                           
 10564                           ;main.c: 180:     uint8_t i;;main.c: 181:     EPWM2_LoadDutyValue(160);
 10565  075F  30A0               	movlw	160
 10566  0760  00F0               	movwf	i1EPWM2_LoadDutyValue@dutyValue
 10567  0761  3000               	movlw	0
 10568  0762  00F1               	movwf	i1EPWM2_LoadDutyValue@dutyValue+1
 10569  0763  318E  26A7  3187   	fcall	i1_EPWM2_LoadDutyValue
 10570                           
 10571                           ;main.c: 182:     DELAY_milliseconds(100);
 10572  0766  3064               	movlw	100
 10573  0767  00F0               	movwf	i1DELAY_milliseconds@milliseconds
 10574  0768  3000               	movlw	0
 10575  0769  00F1               	movwf	i1DELAY_milliseconds@milliseconds+1
 10576  076A  318E  2664  3187   	fcall	i1_DELAY_milliseconds
 10577  076D                     i1l3133:
 10578                           
 10579                           ;main.c: 183:     for (i=20;i>0;i--)
 10580  076D  3014               	movlw	20
 10581  076E  00F4               	movwf	??i1_flashRED
 10582  076F  0874               	movf	??i1_flashRED,w
 10583  0770  00F6               	movwf	i1flashRED@i
 10584  0771                     i1l3139:
 10585                           
 10586                           ;main.c: 184:     {;main.c: 185:         EPWM2_LoadDutyValue(i);
 10587  0771  0876               	movf	i1flashRED@i,w
 10588  0772  00F4               	movwf	??i1_flashRED
 10589  0773  01F5               	clrf	??i1_flashRED+1
 10590  0774  0874               	movf	??i1_flashRED,w
 10591  0775  00F0               	movwf	i1EPWM2_LoadDutyValue@dutyValue
 10592  0776  0875               	movf	??i1_flashRED+1,w
 10593  0777  00F1               	movwf	i1EPWM2_LoadDutyValue@dutyValue+1
 10594  0778  318E  26A7  3187   	fcall	i1_EPWM2_LoadDutyValue
 10595                           
 10596                           ;main.c: 186:         DELAY_milliseconds(1);
 10597  077B  3001               	movlw	1
 10598  077C  00F0               	movwf	i1DELAY_milliseconds@milliseconds
 10599  077D  3000               	movlw	0
 10600  077E  00F1               	movwf	i1DELAY_milliseconds@milliseconds+1
 10601  077F  318E  2664  3187   	fcall	i1_DELAY_milliseconds
 10602  0782                     i1l3141:
 10603                           
 10604                           ;main.c: 187:     }
 10605  0782  3001               	movlw	1
 10606  0783  02F6               	subwf	i1flashRED@i,f
 10607  0784                     i1l3143:
 10608  0784  0876               	movf	i1flashRED@i,w
 10609  0785  1D03               	btfss	3,2
 10610  0786  2F88               	goto	u108_21
 10611  0787  2F89               	goto	u108_20
 10612  0788                     u108_21:
 10613  0788  2F71               	goto	i1l3139
 10614  0789                     u108_20:
 10615  0789                     i1l3145:
 10616                           
 10617                           ;main.c: 188:     lightsOff();
 10618  0789  318D  25A5  3187   	fcall	i1_lightsOff
 10619  078C                     i1l133:
 10620  078C  0008               	return
 10621  078D                     __end_ofi1_flashRED:
 10622                           
 10623                           	psect	text83
 10624  0DA5                     __ptext83:	
 10625 ;; *************** function i1_lightsOff *****************
 10626 ;; Defined at:
 10627 ;;		line 172 in file "main.c"
 10628 ;; Parameters:    Size  Location     Type
 10629 ;;		None
 10630 ;; Auto vars:     Size  Location     Type
 10631 ;;		None
 10632 ;; Return value:  Size  Location     Type
 10633 ;;                  1    wreg      void 
 10634 ;; Registers used:
 10635 ;;		wreg, status,2, status,0, pclath, cstack
 10636 ;; Tracked objects:
 10637 ;;		On entry : 0/0
 10638 ;;		On exit  : 0/0
 10639 ;;		Unchanged: 0/0
 10640 ;; Data sizes:     COMMON   BANK0   BANK1   BANK2   BANK3   BANK4   BANK5   BANK6   BANK7   BANK8   BANK9  BANK10  BANK1
      +1  BANK12
 10641 ;;      Params:         0       0       0       0       0       0       0       0       0       0       0       0       
      +0       0
 10642 ;;      Locals:         0       0       0       0       0       0       0       0       0       0       0       0       
      +0       0
 10643 ;;      Temps:          0       0       0       0       0       0       0       0       0       0       0       0       
      +0       0
 10644 ;;      Totals:         0       0       0       0       0       0       0       0       0       0       0       0       
      +0       0
 10645 ;;Total ram usage:        0 bytes
 10646 ;; Hardware stack levels used: 1
 10647 ;; Hardware stack levels required when called: 1
 10648 ;; This function calls:
 10649 ;;		i1_EPWM1_LoadDutyValue
 10650 ;;		i1_EPWM2_LoadDutyValue
 10651 ;;		i1_PWM4_LoadDutyValue
 10652 ;; This function is called by:
 10653 ;;		i1_flashRED
 10654 ;;		i1_sparks
 10655 ;; This function uses a non-reentrant model
 10656 ;;
 10657                           
 10658                           
 10659                           ;psect for function i1_lightsOff
 10660  0DA5                     i1_lightsOff:
 10661  0DA5                     i1l3113:	
 10662                           ;incstack = 0
 10663 ;; hardware stack exceeded
 10664                           ; Regs used in i1_lightsOff: [wreg+status,2+status,0+pclath+cstack]
 10665                           
 10666                           
 10667                           ;main.c: 173:     EPWM1_LoadDutyValue(0);
 10668  0DA5  3000               	movlw	0
 10669  0DA6  00F0               	movwf	i1EPWM1_LoadDutyValue@dutyValue
 10670  0DA7  00F1               	movwf	i1EPWM1_LoadDutyValue@dutyValue+1
 10671  0DA8  318E  2690  318D   	fcall	i1_EPWM1_LoadDutyValue
 10672                           
 10673                           ;main.c: 174:     EPWM2_LoadDutyValue(0);
 10674  0DAB  3000               	movlw	0
 10675  0DAC  00F0               	movwf	i1EPWM2_LoadDutyValue@dutyValue
 10676  0DAD  00F1               	movwf	i1EPWM2_LoadDutyValue@dutyValue+1
 10677  0DAE  318E  26A7  318D   	fcall	i1_EPWM2_LoadDutyValue
 10678                           
 10679                           ;main.c: 175:     PWM4_LoadDutyValue(0);
 10680  0DB1  3000               	movlw	0
 10681  0DB2  00F0               	movwf	i1PWM4_LoadDutyValue@dutyValue
 10682  0DB3  00F1               	movwf	i1PWM4_LoadDutyValue@dutyValue+1
 10683  0DB4  318E  26BE  318D   	fcall	i1_PWM4_LoadDutyValue
 10684  0DB7                     i1l128:
 10685  0DB7  0008               	return
 10686  0DB8                     __end_ofi1_lightsOff:
 10687                           
 10688                           	psect	text84
 10689  0EBE                     __ptext84:	
 10690 ;; *************** function i1_PWM4_LoadDutyValue *****************
 10691 ;; Defined at:
 10692 ;;		line 82 in file "mcc_generated_files/pwm4.c"
 10693 ;; Parameters:    Size  Location     Type
 10694 ;;  dutyValue       2    0[COMMON] unsigned short 
 10695 ;; Auto vars:     Size  Location     Type
 10696 ;;		None
 10697 ;; Return value:  Size  Location     Type
 10698 ;;                  1    wreg      void 
 10699 ;; Registers used:
 10700 ;;		wreg, status,2, status,0
 10701 ;; Tracked objects:
 10702 ;;		On entry : 0/0
 10703 ;;		On exit  : 0/0
 10704 ;;		Unchanged: 0/0
 10705 ;; Data sizes:     COMMON   BANK0   BANK1   BANK2   BANK3   BANK4   BANK5   BANK6   BANK7   BANK8   BANK9  BANK10  BANK1
      +1  BANK12
 10706 ;;      Params:         2       0       0       0       0       0       0       0       0       0       0       0       
      +0       0
 10707 ;;      Locals:         0       0       0       0       0       0       0       0       0       0       0       0       
      +0       0
 10708 ;;      Temps:          2       0       0       0       0       0       0       0       0       0       0       0       
      +0       0
 10709 ;;      Totals:         4       0       0       0       0       0       0       0       0       0       0       0       
      +0       0
 10710 ;;Total ram usage:        4 bytes
 10711 ;; Hardware stack levels used: 1
 10712 ;; This function calls:
 10713 ;;		Nothing
 10714 ;; This function is called by:
 10715 ;;		i1_lightsOff
 10716 ;; This function uses a non-reentrant model
 10717 ;;
 10718                           
 10719                           
 10720                           ;psect for function i1_PWM4_LoadDutyValue
 10721  0EBE                     i1_PWM4_LoadDutyValue:
 10722  0EBE                     i1l3095:	
 10723                           ;incstack = 0
 10724 ;; hardware stack exceeded
 10725                           ; Regs used in i1_PWM4_LoadDutyValue: [wreg+status,2+status,0]
 10726                           
 10727                           
 10728                           ;mcc_generated_files/pwm4.c: 82: void PWM4_LoadDutyValue(uint16_t dutyValue);mcc_generat
      +                          ed_files/pwm4.c: 83: {;mcc_generated_files/pwm4.c: 85:     CCPR4L = ((dutyValue & 0x03FC
      +                          )>>2);
 10729  0EBE  0871               	movf	i1PWM4_LoadDutyValue@dutyValue+1,w
 10730  0EBF  00F3               	movwf	??i1_PWM4_LoadDutyValue+1
 10731  0EC0  0870               	movf	i1PWM4_LoadDutyValue@dutyValue,w
 10732  0EC1  00F2               	movwf	??i1_PWM4_LoadDutyValue
 10733  0EC2  36F3               	lsrf	??i1_PWM4_LoadDutyValue+1,f
 10734  0EC3  0CF2               	rrf	??i1_PWM4_LoadDutyValue,f
 10735  0EC4  36F3               	lsrf	??i1_PWM4_LoadDutyValue+1,f
 10736  0EC5  0CF2               	rrf	??i1_PWM4_LoadDutyValue,f
 10737  0EC6  0872               	movf	??i1_PWM4_LoadDutyValue,w
 10738  0EC7  0026               	movlb	6	; select bank6
 10739  0EC8  0098               	movwf	24	;volatile
 10740                           
 10741                           ;mcc_generated_files/pwm4.c: 88:     CCP4CON = ((uint8_t)(CCP4CON & 0xCF) | ((dutyValue 
      +                          & 0x0003)<<4));
 10742  0EC9  0870               	movf	i1PWM4_LoadDutyValue@dutyValue,w
 10743  0ECA  3903               	andlw	3
 10744  0ECB  00F2               	movwf	??i1_PWM4_LoadDutyValue
 10745  0ECC  3004               	movlw	4
 10746  0ECD                     u100_25:
 10747  0ECD  35F2               	lslf	??i1_PWM4_LoadDutyValue,f
 10748  0ECE  0B89               	decfsz	9,f
 10749  0ECF  2ECD               	goto	u100_25
 10750  0ED0  081A               	movf	26,w	;volatile
 10751  0ED1  39CF               	andlw	207
 10752  0ED2  0472               	iorwf	??i1_PWM4_LoadDutyValue,w
 10753  0ED3  009A               	movwf	26	;volatile
 10754  0ED4                     i1l52:
 10755  0ED4  0008               	return
 10756  0ED5                     __end_ofi1_PWM4_LoadDutyValue:
 10757                           
 10758                           	psect	text85
 10759  0EA7                     __ptext85:	
 10760 ;; *************** function i1_EPWM2_LoadDutyValue *****************
 10761 ;; Defined at:
 10762 ;;		line 90 in file "mcc_generated_files/epwm2.c"
 10763 ;; Parameters:    Size  Location     Type
 10764 ;;  dutyValue       2    0[COMMON] unsigned short 
 10765 ;; Auto vars:     Size  Location     Type
 10766 ;;		None
 10767 ;; Return value:  Size  Location     Type
 10768 ;;                  1    wreg      void 
 10769 ;; Registers used:
 10770 ;;		wreg, status,2, status,0
 10771 ;; Tracked objects:
 10772 ;;		On entry : 0/0
 10773 ;;		On exit  : 0/0
 10774 ;;		Unchanged: 0/0
 10775 ;; Data sizes:     COMMON   BANK0   BANK1   BANK2   BANK3   BANK4   BANK5   BANK6   BANK7   BANK8   BANK9  BANK10  BANK1
      +1  BANK12
 10776 ;;      Params:         2       0       0       0       0       0       0       0       0       0       0       0       
      +0       0
 10777 ;;      Locals:         0       0       0       0       0       0       0       0       0       0       0       0       
      +0       0
 10778 ;;      Temps:          2       0       0       0       0       0       0       0       0       0       0       0       
      +0       0
 10779 ;;      Totals:         4       0       0       0       0       0       0       0       0       0       0       0       
      +0       0
 10780 ;;Total ram usage:        4 bytes
 10781 ;; Hardware stack levels used: 1
 10782 ;; This function calls:
 10783 ;;		Nothing
 10784 ;; This function is called by:
 10785 ;;		i1_lightsOff
 10786 ;;		i1_flashRED
 10787 ;;		i1_sparks
 10788 ;; This function uses a non-reentrant model
 10789 ;;
 10790                           
 10791                           
 10792                           ;psect for function i1_EPWM2_LoadDutyValue
 10793  0EA7                     i1_EPWM2_LoadDutyValue:
 10794  0EA7                     i1l3097:	
 10795                           ;incstack = 0
 10796 ;; hardware stack exceeded
 10797                           ; Regs used in i1_EPWM2_LoadDutyValue: [wreg+status,2+status,0]
 10798                           
 10799                           
 10800                           ;mcc_generated_files/epwm2.c: 90: void EPWM2_LoadDutyValue(uint16_t dutyValue);mcc_gener
      +                          ated_files/epwm2.c: 91: {;mcc_generated_files/epwm2.c: 93:     CCPR2L = ((dutyValue & 0x
      +                          03FC)>>2);
 10801  0EA7  0871               	movf	i1EPWM2_LoadDutyValue@dutyValue+1,w
 10802  0EA8  00F3               	movwf	??i1_EPWM2_LoadDutyValue+1
 10803  0EA9  0870               	movf	i1EPWM2_LoadDutyValue@dutyValue,w
 10804  0EAA  00F2               	movwf	??i1_EPWM2_LoadDutyValue
 10805  0EAB  36F3               	lsrf	??i1_EPWM2_LoadDutyValue+1,f
 10806  0EAC  0CF2               	rrf	??i1_EPWM2_LoadDutyValue,f
 10807  0EAD  36F3               	lsrf	??i1_EPWM2_LoadDutyValue+1,f
 10808  0EAE  0CF2               	rrf	??i1_EPWM2_LoadDutyValue,f
 10809  0EAF  0872               	movf	??i1_EPWM2_LoadDutyValue,w
 10810  0EB0  0025               	movlb	5	; select bank5
 10811  0EB1  0098               	movwf	24	;volatile
 10812                           
 10813                           ;mcc_generated_files/epwm2.c: 96:     CCP2CON = ((uint8_t)(CCP2CON & 0xCF) | ((dutyValue
      +                           & 0x0003)<<4));
 10814  0EB2  0870               	movf	i1EPWM2_LoadDutyValue@dutyValue,w
 10815  0EB3  3903               	andlw	3
 10816  0EB4  00F2               	movwf	??i1_EPWM2_LoadDutyValue
 10817  0EB5  3004               	movlw	4
 10818  0EB6                     u101_25:
 10819  0EB6  35F2               	lslf	??i1_EPWM2_LoadDutyValue,f
 10820  0EB7  0B89               	decfsz	9,f
 10821  0EB8  2EB6               	goto	u101_25
 10822  0EB9  081A               	movf	26,w	;volatile
 10823  0EBA  39CF               	andlw	207
 10824  0EBB  0472               	iorwf	??i1_EPWM2_LoadDutyValue,w
 10825  0EBC  009A               	movwf	26	;volatile
 10826  0EBD                     i1l196:
 10827  0EBD  0008               	return
 10828  0EBE                     __end_ofi1_EPWM2_LoadDutyValue:
 10829                           
 10830                           	psect	text86
 10831  0E90                     __ptext86:	
 10832 ;; *************** function i1_EPWM1_LoadDutyValue *****************
 10833 ;; Defined at:
 10834 ;;		line 90 in file "mcc_generated_files/epwm1.c"
 10835 ;; Parameters:    Size  Location     Type
 10836 ;;  dutyValue       2    0[COMMON] unsigned short 
 10837 ;; Auto vars:     Size  Location     Type
 10838 ;;		None
 10839 ;; Return value:  Size  Location     Type
 10840 ;;                  1    wreg      void 
 10841 ;; Registers used:
 10842 ;;		wreg, status,2, status,0
 10843 ;; Tracked objects:
 10844 ;;		On entry : 0/0
 10845 ;;		On exit  : 0/0
 10846 ;;		Unchanged: 0/0
 10847 ;; Data sizes:     COMMON   BANK0   BANK1   BANK2   BANK3   BANK4   BANK5   BANK6   BANK7   BANK8   BANK9  BANK10  BANK1
      +1  BANK12
 10848 ;;      Params:         2       0       0       0       0       0       0       0       0       0       0       0       
      +0       0
 10849 ;;      Locals:         0       0       0       0       0       0       0       0       0       0       0       0       
      +0       0
 10850 ;;      Temps:          2       0       0       0       0       0       0       0       0       0       0       0       
      +0       0
 10851 ;;      Totals:         4       0       0       0       0       0       0       0       0       0       0       0       
      +0       0
 10852 ;;Total ram usage:        4 bytes
 10853 ;; Hardware stack levels used: 1
 10854 ;; This function calls:
 10855 ;;		Nothing
 10856 ;; This function is called by:
 10857 ;;		i1_lightsOff
 10858 ;; This function uses a non-reentrant model
 10859 ;;
 10860                           
 10861                           
 10862                           ;psect for function i1_EPWM1_LoadDutyValue
 10863  0E90                     i1_EPWM1_LoadDutyValue:
 10864  0E90                     i1l3099:	
 10865                           ;incstack = 0
 10866 ;; hardware stack exceeded
 10867                           ; Regs used in i1_EPWM1_LoadDutyValue: [wreg+status,2+status,0]
 10868                           
 10869                           
 10870                           ;mcc_generated_files/epwm1.c: 90: void EPWM1_LoadDutyValue(uint16_t dutyValue);mcc_gener
      +                          ated_files/epwm1.c: 91: {;mcc_generated_files/epwm1.c: 93:     CCPR1L = ((dutyValue & 0x
      +                          03FC)>>2);
 10871  0E90  0871               	movf	i1EPWM1_LoadDutyValue@dutyValue+1,w
 10872  0E91  00F3               	movwf	??i1_EPWM1_LoadDutyValue+1
 10873  0E92  0870               	movf	i1EPWM1_LoadDutyValue@dutyValue,w
 10874  0E93  00F2               	movwf	??i1_EPWM1_LoadDutyValue
 10875  0E94  36F3               	lsrf	??i1_EPWM1_LoadDutyValue+1,f
 10876  0E95  0CF2               	rrf	??i1_EPWM1_LoadDutyValue,f
 10877  0E96  36F3               	lsrf	??i1_EPWM1_LoadDutyValue+1,f
 10878  0E97  0CF2               	rrf	??i1_EPWM1_LoadDutyValue,f
 10879  0E98  0872               	movf	??i1_EPWM1_LoadDutyValue,w
 10880  0E99  0025               	movlb	5	; select bank5
 10881  0E9A  0091               	movwf	17	;volatile
 10882                           
 10883                           ;mcc_generated_files/epwm1.c: 96:     CCP1CON = ((uint8_t)(CCP1CON & 0xCF) | ((dutyValue
      +                           & 0x0003)<<4));
 10884  0E9B  0870               	movf	i1EPWM1_LoadDutyValue@dutyValue,w
 10885  0E9C  3903               	andlw	3
 10886  0E9D  00F2               	movwf	??i1_EPWM1_LoadDutyValue
 10887  0E9E  3004               	movlw	4
 10888  0E9F                     u102_25:
 10889  0E9F  35F2               	lslf	??i1_EPWM1_LoadDutyValue,f
 10890  0EA0  0B89               	decfsz	9,f
 10891  0EA1  2E9F               	goto	u102_25
 10892  0EA2  0813               	movf	19,w	;volatile
 10893  0EA3  39CF               	andlw	207
 10894  0EA4  0472               	iorwf	??i1_EPWM1_LoadDutyValue,w
 10895  0EA5  0093               	movwf	19	;volatile
 10896  0EA6                     i1l216:
 10897  0EA6  0008               	return
 10898  0EA7                     __end_ofi1_EPWM1_LoadDutyValue:
 10899                           
 10900                           	psect	text87
 10901  0E64                     __ptext87:	
 10902 ;; *************** function i1_DELAY_milliseconds *****************
 10903 ;; Defined at:
 10904 ;;		line 38 in file "mcc_generated_files/delay.c"
 10905 ;; Parameters:    Size  Location     Type
 10906 ;;  milliseconds    2    0[COMMON] unsigned short 
 10907 ;; Auto vars:     Size  Location     Type
 10908 ;;		None
 10909 ;; Return value:  Size  Location     Type
 10910 ;;                  1    wreg      void 
 10911 ;; Registers used:
 10912 ;;		wreg, status,2, status,0
 10913 ;; Tracked objects:
 10914 ;;		On entry : 0/0
 10915 ;;		On exit  : 0/0
 10916 ;;		Unchanged: 0/0
 10917 ;; Data sizes:     COMMON   BANK0   BANK1   BANK2   BANK3   BANK4   BANK5   BANK6   BANK7   BANK8   BANK9  BANK10  BANK1
      +1  BANK12
 10918 ;;      Params:         2       0       0       0       0       0       0       0       0       0       0       0       
      +0       0
 10919 ;;      Locals:         0       0       0       0       0       0       0       0       0       0       0       0       
      +0       0
 10920 ;;      Temps:          1       0       0       0       0       0       0       0       0       0       0       0       
      +0       0
 10921 ;;      Totals:         3       0       0       0       0       0       0       0       0       0       0       0       
      +0       0
 10922 ;;Total ram usage:        3 bytes
 10923 ;; Hardware stack levels used: 1
 10924 ;; This function calls:
 10925 ;;		Nothing
 10926 ;; This function is called by:
 10927 ;;		i1_flashRED
 10928 ;;		i1_sparks
 10929 ;; This function uses a non-reentrant model
 10930 ;;
 10931                           
 10932                           
 10933                           ;psect for function i1_DELAY_milliseconds
 10934  0E64                     i1_DELAY_milliseconds:
 10935  0E64                     i1l3115:	
 10936                           ;incstack = 0
 10937 ;; hardware stack exceeded
 10938                           ; Regs used in i1_DELAY_milliseconds: [wreg+status,2+status,0]
 10939                           
 10940                           
 10941                           ;mcc_generated_files/delay.c: 39:     while(milliseconds--){
 10942  0E64  2E6D               	goto	i1l3119
 10943  0E65                     i1l3117:
 10944                           
 10945                           ;mcc_generated_files/delay.c: 40:         _delay((unsigned long)((1)*(32000000/4000.0)))
      +                          ;
 10946  0E65  300B               	movlw	11
 10947  0E66  00F2               	movwf	??i1_DELAY_milliseconds
 10948  0E67  3062               	movlw	98
 10949  0E68                     u187_27:
 10950  0E68  0B89               	decfsz	9,f
 10951  0E69  2E68               	goto	u187_27
 10952  0E6A  0BF2               	decfsz	??i1_DELAY_milliseconds,f
 10953  0E6B  2E68               	goto	u187_27
 10954  0E6C  3200               	nop2
 10955  0E6D                     i1l3119:
 10956                           
 10957                           ;mcc_generated_files/delay.c: 39:     while(milliseconds--){
 10958  0E6D  3001               	movlw	1
 10959  0E6E  02F0               	subwf	i1DELAY_milliseconds@milliseconds,f
 10960  0E6F  3000               	movlw	0
 10961  0E70  3BF1               	subwfb	i1DELAY_milliseconds@milliseconds+1,f
 10962  0E71  0A70               	incf	i1DELAY_milliseconds@milliseconds,w
 10963  0E72  1D03               	skipz
 10964  0E73  2E78               	goto	u106_21
 10965  0E74  0A71               	incf	i1DELAY_milliseconds@milliseconds+1,w
 10966  0E75  1D03               	btfss	3,2
 10967  0E76  2E78               	goto	u106_21
 10968  0E77  2E79               	goto	u106_20
 10969  0E78                     u106_21:
 10970  0E78  2E65               	goto	i1l3117
 10971  0E79                     u106_20:
 10972  0E79                     i1l319:
 10973  0E79  0008               	return
 10974  0E7A                     __end_ofi1_DELAY_milliseconds:
 10975  007E                     btemp	set	126	;btemp
 10976  007E                     int$flags	set	126
 10977  007E                     wtemp0	set	126
 10978                           
 10979                           	psect	config
 10980                           
 10981                           ;Config register CONFIG1 @ 0x8007
 10982                           ;	Oscillator Selection
 10983                           ;	FOSC = INTOSC, INTOSC oscillator: I/O function on CLKIN pin
 10984                           ;	Watchdog Timer Enable
 10985                           ;	WDTE = OFF, WDT disabled
 10986                           ;	Power-up Timer Enable
 10987                           ;	PWRTE = OFF, PWRT disabled
 10988                           ;	MCLR Pin Function Select
 10989                           ;	MCLRE = ON, MCLR/VPP pin function is MCLR
 10990                           ;	Flash Program Memory Code Protection
 10991                           ;	CP = OFF, Program memory code protection is disabled
 10992                           ;	Data Memory Code Protection
 10993                           ;	CPD = OFF, Data memory code protection is disabled
 10994                           ;	Brown-out Reset Enable
 10995                           ;	BOREN = ON, Brown-out Reset enabled
 10996                           ;	Clock Out Enable
 10997                           ;	CLKOUTEN = OFF, CLKOUT function is disabled. I/O or oscillator function on the CLKOUT 
      +                          pin
 10998                           ;	Internal/External Switchover
 10999                           ;	IESO = ON, Internal/External Switchover mode is enabled
 11000                           ;	Fail-Safe Clock Monitor Enable
 11001                           ;	FCMEN = ON, Fail-Safe Clock Monitor is enabled
 11002  8007                     	org	32775
 11003  8007  3FE4               	dw	16356
 11004                           
 11005                           ;Config register CONFIG2 @ 0x8008
 11006                           ;	Flash Memory Self-Write Protection
 11007                           ;	WRT = OFF, Write protection off
 11008                           ;	PLL Enable
 11009                           ;	PLLEN = ON, 4x PLL enabled
 11010                           ;	Stack Overflow/Underflow Reset Enable
 11011                           ;	STVREN = ON, Stack Overflow or Underflow will cause a Reset
 11012                           ;	Brown-out Reset Voltage Selection
 11013                           ;	BORV = LO, Brown-out Reset Voltage (Vbor), low trip point selected.
 11014                           ;	Low-Voltage Programming Enable
 11015                           ;	LVP = ON, Low-voltage programming enabled
 11016  8008                     	org	32776
 11017  8008  3FFF               	dw	16383

Data Sizes:
    Strings     0
    Constant    32
    Data        1
    BSS         33
    Persistent  34
    Stack       0

Auto Spaces:
    Space          Size  Autos    Used
    COMMON           14     10      12
    BANK0            80     44      78
    BANK1            80      0       0
    BANK2            80      0       0
    BANK3            80      0       0
    BANK4            80      0       0
    BANK5            80      0       0
    BANK6            80      0       0
    BANK7            80      0       0
    BANK8            80      0       0
    BANK9            80      0       0
    BANK10           80      0       0
    BANK11           80      0       0
    BANK12           48      0       0

Pointer List with Targets:

    I2C1_Read1ByteRegister@returnValue.data	PTR unsigned char  size(1) Largest target is 0

    I2C1_Read2ByteRegister@returnValue.data	PTR unsigned char  size(1) Largest target is 0

    I2C1_Write1ByteRegister@data.data	PTR unsigned char  size(1) Largest target is 0

    I2C1_Write2ByteRegister@data.data	PTR unsigned char  size(1) Largest target is 0

    i2c_write1ByteRegister@data.data	PTR unsigned char  size(1) Largest target is 0

    i2c_read1ByteRegister@d2.data	PTR unsigned char  size(1) Largest target is 0

    i2c_read2ByteRegister@result.data	PTR unsigned char  size(1) Largest target is 0

    i2c_write2ByteRegister@data.data	PTR unsigned char  size(1) Largest target is 0

    I2C1_DO_TX$2101$0	PTR void  size(1) Largest target is 4
		 -> i2c_readDataBlock@d(COMMON[3]), i2c_write2ByteRegister@data(COMMON[2]), i2c_read2ByteRegister@result(COMMON[2]), i2c_read1ByteRegister@d2(COMMON[1]), 
		 -> i2c_write1ByteRegister@data(COMMON[1]), I2C1_ReadDataBlock@bufferBlock(COMMON[3]), I2C1_Write2ByteRegister@data(COMMON[2]), I2C1_Write1ByteRegister@data(BANK0[1]), 
		 -> I2C1_Read2ByteRegister@returnValue(COMMON[2]), NULL(NULL[0]), I2C1_Read1ByteRegister@returnValue(BANK0[1]), 

    I2C1_DO_TX$2106	PTR void  size(1) Largest target is 4
		 -> i2c_readDataBlock@d(COMMON[3]), i2c_write2ByteRegister@data(COMMON[2]), i2c_read2ByteRegister@result(COMMON[2]), i2c_read1ByteRegister@d2(COMMON[1]), 
		 -> i2c_write1ByteRegister@data(COMMON[1]), I2C1_ReadDataBlock@bufferBlock(COMMON[3]), I2C1_Write2ByteRegister@data(COMMON[2]), I2C1_Write1ByteRegister@data(BANK0[1]), 
		 -> I2C1_Read2ByteRegister@returnValue(COMMON[2]), NULL(NULL[0]), I2C1_Read1ByteRegister@returnValue(BANK0[1]), 

    I2C1_DO_TX$2101	PTR FTN(PTR void ,)enum E360 size(2) Largest target is 1
		 -> rdBlkRegCompleteHandler@i2c_simple_master$F1313(), wr2RegCompleteHandler@i2c_simple_master$F1307(), rd2RegCompleteHandler@i2c_simple_master$F1301(), rd1RegCompleteHandler@i2c_simple_master$F1293(), 
		 -> wr1RegCompleteHandler@i2c_simple_master$F1283(), I2C1_CallbackReturnReset(), I2C1_CallbackReturnStop(), rdBlkRegCompleteHandler(), 
		 -> wr2RegCompleteHandler(), wr1RegCompleteHandler(), rd2RegCompleteHandler(), rd1RegCompleteHandler(), 
		 -> Absolute function(), 

    I2C1_MasterFsm$2100	const PTR FTN()enum E3009 size(2) Largest target is 1
		 -> I2C1_DO_ADDRESS_NACK(), I2C1_DO_RESET(), I2C1_DO_RX_NACK_RESTART(), I2C1_DO_RX_NACK_STOP(), 
		 -> I2C1_DO_RX_ACK(), I2C1_DO_SEND_STOP(), I2C1_DO_SEND_RESTART(), I2C1_DO_SEND_RESTART_WRITE(), 
		 -> I2C1_DO_SEND_RESTART_READ(), I2C1_DO_TX_EMPTY(), I2C1_DO_RCEN(), I2C1_DO_RX(), 
		 -> I2C1_DO_TX(), I2C1_DO_SEND_ADR_WRITE(), I2C1_DO_SEND_ADR_READ(), I2C1_DO_IDLE(), 

    I2C1_CallbackReturnStop@funPtr	PTR void  size(1) Largest target is 4
		 -> i2c_readDataBlock@d(COMMON[3]), i2c_write2ByteRegister@data(COMMON[2]), i2c_read2ByteRegister@result(COMMON[2]), i2c_read1ByteRegister@d2(COMMON[1]), 
		 -> i2c_write1ByteRegister@data(COMMON[1]), I2C1_ReadDataBlock@bufferBlock(COMMON[3]), I2C1_Write2ByteRegister@data(COMMON[2]), I2C1_Write1ByteRegister@data(BANK0[1]), 
		 -> I2C1_Read2ByteRegister@returnValue(COMMON[2]), NULL(NULL[0]), I2C1_Read1ByteRegister@returnValue(BANK0[1]), 

    I2C1_CallbackReturnReset@funPtr	PTR void  size(1) Largest target is 4
		 -> i2c_readDataBlock@d(COMMON[3]), i2c_write2ByteRegister@data(COMMON[2]), i2c_read2ByteRegister@result(COMMON[2]), i2c_read1ByteRegister@d2(COMMON[1]), 
		 -> i2c_write1ByteRegister@data(COMMON[1]), I2C1_ReadDataBlock@bufferBlock(COMMON[3]), I2C1_Write2ByteRegister@data(COMMON[2]), I2C1_Write1ByteRegister@data(BANK0[1]), 
		 -> I2C1_Read2ByteRegister@returnValue(COMMON[2]), NULL(NULL[0]), I2C1_Read1ByteRegister@returnValue(BANK0[1]), 

    cb$0	PTR void  size(1) Largest target is 4
		 -> i2c_readDataBlock@d(COMMON[3]), i2c_write2ByteRegister@data(COMMON[2]), i2c_read2ByteRegister@result(COMMON[2]), i2c_read1ByteRegister@d2(COMMON[1]), 
		 -> i2c_write1ByteRegister@data(COMMON[1]), I2C1_ReadDataBlock@bufferBlock(COMMON[3]), I2C1_Write2ByteRegister@data(COMMON[2]), I2C1_Write1ByteRegister@data(BANK0[1]), 
		 -> I2C1_Read2ByteRegister@returnValue(COMMON[2]), NULL(NULL[0]), I2C1_Read1ByteRegister@returnValue(BANK0[1]), 

    cb$0	PTR void  size(1) Largest target is 4
		 -> i2c_readDataBlock@d(COMMON[3]), i2c_write2ByteRegister@data(COMMON[2]), i2c_read2ByteRegister@result(COMMON[2]), i2c_read1ByteRegister@d2(COMMON[1]), 
		 -> i2c_write1ByteRegister@data(COMMON[1]), I2C1_ReadDataBlock@bufferBlock(COMMON[3]), I2C1_Write2ByteRegister@data(COMMON[2]), I2C1_Write1ByteRegister@data(BANK0[1]), 
		 -> I2C1_Read2ByteRegister@returnValue(COMMON[2]), NULL(NULL[0]), I2C1_Read1ByteRegister@returnValue(BANK0[1]), 

    S779$0$0	PTR void  size(1) Largest target is 4
		 -> i2c_readDataBlock@d(COMMON[3]), i2c_write2ByteRegister@data(COMMON[2]), i2c_read2ByteRegister@result(COMMON[2]), i2c_read1ByteRegister@d2(COMMON[1]), 
		 -> i2c_write1ByteRegister@data(COMMON[1]), I2C1_ReadDataBlock@bufferBlock(COMMON[3]), I2C1_Write2ByteRegister@data(COMMON[2]), I2C1_Write1ByteRegister@data(BANK0[1]), 
		 -> I2C1_Read2ByteRegister@returnValue(COMMON[2]), NULL(NULL[0]), I2C1_Read1ByteRegister@returnValue(BANK0[1]), 

    d.data	PTR unsigned char  size(1) Largest target is 0

    rdBlkRegCompleteHandler@i2c_simple_master$F1313@p.data	PTR unsigned char  size(1) Largest target is 0

    rdBlkRegCompleteHandler@i2c_simple_master$F1313@p	PTR void  size(1) Largest target is 4
		 -> i2c_readDataBlock@d(COMMON[3]), i2c_write2ByteRegister@data(COMMON[2]), i2c_read2ByteRegister@result(COMMON[2]), i2c_read1ByteRegister@d2(COMMON[1]), 
		 -> i2c_write1ByteRegister@data(COMMON[1]), I2C1_ReadDataBlock@bufferBlock(COMMON[3]), I2C1_Write2ByteRegister@data(COMMON[2]), I2C1_Write1ByteRegister@data(BANK0[1]), 
		 -> I2C1_Read2ByteRegister@returnValue(COMMON[2]), NULL(NULL[0]), I2C1_Read1ByteRegister@returnValue(BANK0[1]), 

    wr2RegCompleteHandler@i2c_simple_master$F1307@p	PTR void  size(1) Largest target is 4
		 -> i2c_readDataBlock@d(COMMON[3]), i2c_write2ByteRegister@data(COMMON[2]), i2c_read2ByteRegister@result(COMMON[2]), i2c_read1ByteRegister@d2(COMMON[1]), 
		 -> i2c_write1ByteRegister@data(COMMON[1]), I2C1_ReadDataBlock@bufferBlock(COMMON[3]), I2C1_Write2ByteRegister@data(COMMON[2]), I2C1_Write1ByteRegister@data(BANK0[1]), 
		 -> I2C1_Read2ByteRegister@returnValue(COMMON[2]), NULL(NULL[0]), I2C1_Read1ByteRegister@returnValue(BANK0[1]), 

    rd2RegCompleteHandler@i2c_simple_master$F1301@p	PTR void  size(1) Largest target is 4
		 -> i2c_readDataBlock@d(COMMON[3]), i2c_write2ByteRegister@data(COMMON[2]), i2c_read2ByteRegister@result(COMMON[2]), i2c_read1ByteRegister@d2(COMMON[1]), 
		 -> i2c_write1ByteRegister@data(COMMON[1]), I2C1_ReadDataBlock@bufferBlock(COMMON[3]), I2C1_Write2ByteRegister@data(COMMON[2]), I2C1_Write1ByteRegister@data(BANK0[1]), 
		 -> I2C1_Read2ByteRegister@returnValue(COMMON[2]), NULL(NULL[0]), I2C1_Read1ByteRegister@returnValue(BANK0[1]), 

    rd1RegCompleteHandler@i2c_simple_master$F1293@p	PTR void  size(1) Largest target is 4
		 -> i2c_readDataBlock@d(COMMON[3]), i2c_write2ByteRegister@data(COMMON[2]), i2c_read2ByteRegister@result(COMMON[2]), i2c_read1ByteRegister@d2(COMMON[1]), 
		 -> i2c_write1ByteRegister@data(COMMON[1]), I2C1_ReadDataBlock@bufferBlock(COMMON[3]), I2C1_Write2ByteRegister@data(COMMON[2]), I2C1_Write1ByteRegister@data(BANK0[1]), 
		 -> I2C1_Read2ByteRegister@returnValue(COMMON[2]), NULL(NULL[0]), I2C1_Read1ByteRegister@returnValue(BANK0[1]), 

    wr1RegCompleteHandler@i2c_simple_master$F1283@p	PTR void  size(1) Largest target is 4
		 -> i2c_readDataBlock@d(COMMON[3]), i2c_write2ByteRegister@data(COMMON[2]), i2c_read2ByteRegister@result(COMMON[2]), i2c_read1ByteRegister@d2(COMMON[1]), 
		 -> i2c_write1ByteRegister@data(COMMON[1]), I2C1_ReadDataBlock@bufferBlock(COMMON[3]), I2C1_Write2ByteRegister@data(COMMON[2]), I2C1_Write1ByteRegister@data(BANK0[1]), 
		 -> I2C1_Read2ByteRegister@returnValue(COMMON[2]), NULL(NULL[0]), I2C1_Read1ByteRegister@returnValue(BANK0[1]), 

    I2C1_SetCallback@ptr	PTR void  size(1) Largest target is 4
		 -> i2c_readDataBlock@d(COMMON[3]), i2c_write2ByteRegister@data(COMMON[2]), i2c_read2ByteRegister@result(COMMON[2]), i2c_read1ByteRegister@d2(COMMON[1]), 
		 -> i2c_write1ByteRegister@data(COMMON[1]), I2C1_ReadDataBlock@bufferBlock(COMMON[3]), I2C1_Write2ByteRegister@data(COMMON[2]), I2C1_Write1ByteRegister@data(BANK0[1]), 
		 -> I2C1_Read2ByteRegister@returnValue(COMMON[2]), NULL(NULL[0]), I2C1_Read1ByteRegister@returnValue(BANK0[1]), 

    I2C1_SetCallback@cb	PTR FTN(PTR void ,)enum E360 size(2) Largest target is 1
		 -> rdBlkRegCompleteHandler@i2c_simple_master$F1313(), wr2RegCompleteHandler@i2c_simple_master$F1307(), rd2RegCompleteHandler@i2c_simple_master$F1301(), rd1RegCompleteHandler@i2c_simple_master$F1293(), 
		 -> wr1RegCompleteHandler@i2c_simple_master$F1283(), rdBlkRegCompleteHandler(), wr2RegCompleteHandler(), wr1RegCompleteHandler(), 
		 -> rd2RegCompleteHandler(), rd1RegCompleteHandler(), Absolute function(), 

    I2C1_SetAddressNackCallback@ptr	PTR void  size(1) Largest target is 0
		 -> NULL(NULL[0]), 

    I2C1_SetAddressNackCallback@cb	PTR FTN(PTR void ,)enum E360 size(2) Largest target is 1
		 -> Absolute function(), 

    I2C1_SetDataCompleteCallback@ptr	PTR void  size(1) Largest target is 4
		 -> i2c_readDataBlock@d(COMMON[3]), i2c_write2ByteRegister@data(COMMON[2]), i2c_read2ByteRegister@result(COMMON[2]), i2c_read1ByteRegister@d2(COMMON[1]), 
		 -> i2c_write1ByteRegister@data(COMMON[1]), I2C1_ReadDataBlock@bufferBlock(COMMON[3]), I2C1_Write2ByteRegister@data(COMMON[2]), I2C1_Write1ByteRegister@data(BANK0[1]), 
		 -> I2C1_Read2ByteRegister@returnValue(COMMON[2]), NULL(NULL[0]), I2C1_Read1ByteRegister@returnValue(BANK0[1]), 

    I2C1_SetDataCompleteCallback@cb	PTR FTN(PTR void ,)enum E360 size(2) Largest target is 1
		 -> rdBlkRegCompleteHandler@i2c_simple_master$F1313(), wr2RegCompleteHandler@i2c_simple_master$F1307(), rd2RegCompleteHandler@i2c_simple_master$F1301(), rd1RegCompleteHandler@i2c_simple_master$F1293(), 
		 -> wr1RegCompleteHandler@i2c_simple_master$F1283(), rdBlkRegCompleteHandler(), wr2RegCompleteHandler(), wr1RegCompleteHandler(), 
		 -> rd2RegCompleteHandler(), rd1RegCompleteHandler(), Absolute function(), 

    I2C1_SetBuffer@buffer	PTR void  size(1) Largest target is 4
		 -> i2c_readDataBlock@reg(COMMON[1]), i2c_readDataBlock@d(COMMON[3]), i2c_write2ByteRegister@reg(COMMON[1]), i2c_write2ByteRegister@data(COMMON[2]), 
		 -> i2c_read2ByteRegister@reg(COMMON[1]), i2c_read2ByteRegister@result(COMMON[2]), i2c_read1ByteRegister@reg(COMMON[1]), i2c_read1ByteRegister@d2(COMMON[1]), 
		 -> i2c_write1ByteRegister@reg(COMMON[1]), i2c_write1ByteRegister@data(COMMON[1]), I2C1_ReadDataBlock@reg(COMMON[1]), I2C1_ReadDataBlock@bufferBlock(COMMON[3]), 
		 -> I2C1_Write2ByteRegister@reg(COMMON[1]), I2C1_Write2ByteRegister@data(COMMON[2]), I2C1_Write1ByteRegister@reg(BANK0[1]), I2C1_Write1ByteRegister@data(BANK0[1]), 
		 -> I2C1_Read2ByteRegister@reg(COMMON[1]), I2C1_Read2ByteRegister@returnValue(COMMON[2]), NULL(NULL[0]), I2C1_Read1ByteRegister@reg(BANK0[1]), 
		 -> I2C1_Read1ByteRegister@returnValue(BANK0[1]), 

    S779$data_ptr	PTR unsigned char  size(1) Largest target is 4
		 -> i2c_readDataBlock@reg(COMMON[1]), i2c_readDataBlock@d(COMMON[3]), i2c_write2ByteRegister@reg(COMMON[1]), i2c_write2ByteRegister@data(COMMON[2]), 
		 -> i2c_read2ByteRegister@reg(COMMON[1]), i2c_read2ByteRegister@result(COMMON[2]), i2c_read1ByteRegister@reg(COMMON[1]), i2c_read1ByteRegister@d2(COMMON[1]), 
		 -> i2c_write1ByteRegister@reg(COMMON[1]), i2c_write1ByteRegister@data(COMMON[1]), I2C1_ReadDataBlock@reg(COMMON[1]), I2C1_ReadDataBlock@bufferBlock(COMMON[3]), 
		 -> I2C1_Write2ByteRegister@reg(COMMON[1]), I2C1_Write2ByteRegister@data(COMMON[2]), I2C1_Write1ByteRegister@reg(BANK0[1]), I2C1_Write1ByteRegister@data(BANK0[1]), 
		 -> I2C1_Read2ByteRegister@reg(COMMON[1]), I2C1_Read2ByteRegister@returnValue(COMMON[2]), NULL(NULL[0]), I2C1_Read1ByteRegister@reg(BANK0[1]), 
		 -> I2C1_Read1ByteRegister@returnValue(BANK0[1]), 

    I2C1_Status.data_ptr	PTR unsigned char  size(1) Largest target is 4
		 -> i2c_readDataBlock@reg(COMMON[1]), i2c_readDataBlock@d(COMMON[3]), i2c_write2ByteRegister@reg(COMMON[1]), i2c_write2ByteRegister@data(COMMON[2]), 
		 -> i2c_read2ByteRegister@reg(COMMON[1]), i2c_read2ByteRegister@result(COMMON[2]), i2c_read1ByteRegister@reg(COMMON[1]), i2c_read1ByteRegister@d2(COMMON[1]), 
		 -> i2c_write1ByteRegister@reg(COMMON[1]), i2c_write1ByteRegister@data(COMMON[1]), I2C1_ReadDataBlock@reg(COMMON[1]), I2C1_ReadDataBlock@bufferBlock(COMMON[3]), 
		 -> I2C1_Write2ByteRegister@reg(COMMON[1]), I2C1_Write2ByteRegister@data(COMMON[2]), I2C1_Write1ByteRegister@reg(BANK0[1]), I2C1_Write1ByteRegister@data(BANK0[1]), 
		 -> I2C1_Read2ByteRegister@reg(COMMON[1]), I2C1_Read2ByteRegister@returnValue(COMMON[2]), NULL(NULL[0]), I2C1_Read1ByteRegister@reg(BANK0[1]), 
		 -> I2C1_Read1ByteRegister@returnValue(BANK0[1]), 

    S779$callbackPayload	PTR void [6] size(1) Largest target is 4
		 -> i2c_readDataBlock@d(COMMON[3]), i2c_write2ByteRegister@data(COMMON[2]), i2c_read2ByteRegister@result(COMMON[2]), i2c_read1ByteRegister@d2(COMMON[1]), 
		 -> i2c_write1ByteRegister@data(COMMON[1]), I2C1_ReadDataBlock@bufferBlock(COMMON[3]), I2C1_Write2ByteRegister@data(COMMON[2]), I2C1_Write1ByteRegister@data(BANK0[1]), 
		 -> I2C1_Read2ByteRegister@returnValue(COMMON[2]), NULL(NULL[0]), I2C1_Read1ByteRegister@returnValue(BANK0[1]), 

    I2C1_Status.callbackPayload	PTR void [6] size(1) Largest target is 4
		 -> i2c_readDataBlock@d(COMMON[3]), i2c_write2ByteRegister@data(COMMON[2]), i2c_read2ByteRegister@result(COMMON[2]), i2c_read1ByteRegister@d2(COMMON[1]), 
		 -> i2c_write1ByteRegister@data(COMMON[1]), I2C1_ReadDataBlock@bufferBlock(COMMON[3]), I2C1_Write2ByteRegister@data(COMMON[2]), I2C1_Write1ByteRegister@data(BANK0[1]), 
		 -> I2C1_Read2ByteRegister@returnValue(COMMON[2]), NULL(NULL[0]), I2C1_Read1ByteRegister@returnValue(BANK0[1]), 

    S779$callbackTable	PTR FTN(PTR void ,)enum E360[6] size(2) Largest target is 1
		 -> rdBlkRegCompleteHandler@i2c_simple_master$F1313(), wr2RegCompleteHandler@i2c_simple_master$F1307(), rd2RegCompleteHandler@i2c_simple_master$F1301(), rd1RegCompleteHandler@i2c_simple_master$F1293(), 
		 -> wr1RegCompleteHandler@i2c_simple_master$F1283(), I2C1_CallbackReturnReset(), I2C1_CallbackReturnStop(), rdBlkRegCompleteHandler(), 
		 -> wr2RegCompleteHandler(), wr1RegCompleteHandler(), rd2RegCompleteHandler(), rd1RegCompleteHandler(), 
		 -> Absolute function(), 

    I2C1_Status.callbackTable	PTR FTN(PTR void ,)enum E360[6] size(2) Largest target is 1
		 -> rdBlkRegCompleteHandler@i2c_simple_master$F1313(), wr2RegCompleteHandler@i2c_simple_master$F1307(), rd2RegCompleteHandler@i2c_simple_master$F1301(), rd1RegCompleteHandler@i2c_simple_master$F1293(), 
		 -> wr1RegCompleteHandler@i2c_simple_master$F1283(), I2C1_CallbackReturnReset(), I2C1_CallbackReturnStop(), rdBlkRegCompleteHandler(), 
		 -> wr2RegCompleteHandler(), wr1RegCompleteHandler(), rd2RegCompleteHandler(), rd1RegCompleteHandler(), 
		 -> Absolute function(), 

    i2c1_fsmStateTable	const PTR FTN()enum E3009[16] size(2) Largest target is 1
		 -> I2C1_DO_ADDRESS_NACK(), I2C1_DO_RESET(), I2C1_DO_RX_NACK_RESTART(), I2C1_DO_RX_NACK_STOP(), 
		 -> I2C1_DO_RX_ACK(), I2C1_DO_SEND_STOP(), I2C1_DO_SEND_RESTART(), I2C1_DO_SEND_RESTART_WRITE(), 
		 -> I2C1_DO_SEND_RESTART_READ(), I2C1_DO_TX_EMPTY(), I2C1_DO_RCEN(), I2C1_DO_RX(), 
		 -> I2C1_DO_TX(), I2C1_DO_SEND_ADR_WRITE(), I2C1_DO_SEND_ADR_READ(), I2C1_DO_IDLE(), 

    rdBlkRegCompleteHandler@ptr.data	PTR unsigned char  size(1) Largest target is 0

    rdBlkRegCompleteHandler@ptr	PTR void  size(1) Largest target is 4
		 -> i2c_readDataBlock@d(COMMON[3]), i2c_write2ByteRegister@data(COMMON[2]), i2c_read2ByteRegister@result(COMMON[2]), i2c_read1ByteRegister@d2(COMMON[1]), 
		 -> i2c_write1ByteRegister@data(COMMON[1]), I2C1_ReadDataBlock@bufferBlock(COMMON[3]), I2C1_Write2ByteRegister@data(COMMON[2]), I2C1_Write1ByteRegister@data(BANK0[1]), 
		 -> I2C1_Read2ByteRegister@returnValue(COMMON[2]), NULL(NULL[0]), I2C1_Read1ByteRegister@returnValue(BANK0[1]), 

    wr2RegCompleteHandler@ptr	PTR void  size(1) Largest target is 4
		 -> i2c_readDataBlock@d(COMMON[3]), i2c_write2ByteRegister@data(COMMON[2]), i2c_read2ByteRegister@result(COMMON[2]), i2c_read1ByteRegister@d2(COMMON[1]), 
		 -> i2c_write1ByteRegister@data(COMMON[1]), I2C1_ReadDataBlock@bufferBlock(COMMON[3]), I2C1_Write2ByteRegister@data(COMMON[2]), I2C1_Write1ByteRegister@data(BANK0[1]), 
		 -> I2C1_Read2ByteRegister@returnValue(COMMON[2]), NULL(NULL[0]), I2C1_Read1ByteRegister@returnValue(BANK0[1]), 

    wr1RegCompleteHandler@ptr	PTR void  size(1) Largest target is 4
		 -> i2c_readDataBlock@d(COMMON[3]), i2c_write2ByteRegister@data(COMMON[2]), i2c_read2ByteRegister@result(COMMON[2]), i2c_read1ByteRegister@d2(COMMON[1]), 
		 -> i2c_write1ByteRegister@data(COMMON[1]), I2C1_ReadDataBlock@bufferBlock(COMMON[3]), I2C1_Write2ByteRegister@data(COMMON[2]), I2C1_Write1ByteRegister@data(BANK0[1]), 
		 -> I2C1_Read2ByteRegister@returnValue(COMMON[2]), NULL(NULL[0]), I2C1_Read1ByteRegister@returnValue(BANK0[1]), 

    rd2RegCompleteHandler@ptr	PTR void  size(1) Largest target is 4
		 -> i2c_readDataBlock@d(COMMON[3]), i2c_write2ByteRegister@data(COMMON[2]), i2c_read2ByteRegister@result(COMMON[2]), i2c_read1ByteRegister@d2(COMMON[1]), 
		 -> i2c_write1ByteRegister@data(COMMON[1]), I2C1_ReadDataBlock@bufferBlock(COMMON[3]), I2C1_Write2ByteRegister@data(COMMON[2]), I2C1_Write1ByteRegister@data(BANK0[1]), 
		 -> I2C1_Read2ByteRegister@returnValue(COMMON[2]), NULL(NULL[0]), I2C1_Read1ByteRegister@returnValue(BANK0[1]), 

    rd1RegCompleteHandler@ptr	PTR void  size(1) Largest target is 4
		 -> i2c_readDataBlock@d(COMMON[3]), i2c_write2ByteRegister@data(COMMON[2]), i2c_read2ByteRegister@result(COMMON[2]), i2c_read1ByteRegister@d2(COMMON[1]), 
		 -> i2c_write1ByteRegister@data(COMMON[1]), I2C1_ReadDataBlock@bufferBlock(COMMON[3]), I2C1_Write2ByteRegister@data(COMMON[2]), I2C1_Write1ByteRegister@data(BANK0[1]), 
		 -> I2C1_Read2ByteRegister@returnValue(COMMON[2]), NULL(NULL[0]), I2C1_Read1ByteRegister@returnValue(BANK0[1]), 

    S627$data	PTR unsigned char  size(1) Largest target is 0

    bufferBlock.data	PTR unsigned char  size(1) Largest target is 0

    IOCBF7_SetInterruptHandler@InterruptHandler	PTR FTN()void  size(2) Largest target is 1
		 -> IOCBF7_DefaultInterruptHandler(), ButtonInterrupt(), 

    IOCBF7_InterruptHandler	PTR FTN()void  size(2) Largest target is 1
		 -> Absolute function(), IOCBF7_DefaultInterruptHandler(), ButtonInterrupt(), 


Critical Paths under _main in COMMON

    None.

Critical Paths under _INTERRUPT_InterruptManager in COMMON

    _ButtonInterrupt->i1_sparks
    i1_sparks->i1_flashRED
    i1_flashRED->i1_EPWM2_LoadDutyValue
    i1_lightsOff->i1_EPWM1_LoadDutyValue
    i1_lightsOff->i1_EPWM2_LoadDutyValue
    i1_lightsOff->i1_PWM4_LoadDutyValue

Critical Paths under _main in BANK0

    _main->_lumos
    _sparks->_flashRED
    _flashRED->_EPWM2_LoadDutyValue
    _lightsOff->_EPWM1_LoadDutyValue
    _lightsOff->_EPWM2_LoadDutyValue
    _lightsOff->_PWM4_LoadDutyValue
    _patronus->_EPWM1_LoadDutyValue
    _patronus->_EPWM2_LoadDutyValue
    _patronus->_PWM4_LoadDutyValue
    _lumos->_I2C1_Read1ByteRegister
    _PIN_MANAGER_Initialize->_IOCBF7_SetInterruptHandler
    _I2C1_SetAddressNackCallback->_I2C1_SetCallback
    _I2C1_MasterWrite->_I2C1_MasterOperation
    _I2C1_Poller->_I2C1_MasterFsm
    _I2C1_MasterFsm->_I2C1_DO_ADDRESS_NACK
    _I2C1_MasterFsm->_I2C1_DO_RX
    _I2C1_MasterFsm->_I2C1_DO_TX
    _I2C1_MasterFsm->_I2C1_DO_TX_EMPTY
    _I2C1_DO_TX_EMPTY->_I2C1_CallbackReturnReset
    _I2C1_DO_TX_EMPTY->_I2C1_CallbackReturnStop
    _I2C1_DO_TX_EMPTY->_rd1RegCompleteHandler
    _I2C1_DO_TX_EMPTY->_rd1RegCompleteHandler@i2c_simple_master$F1293
    _I2C1_DO_TX_EMPTY->_rd2RegCompleteHandler
    _I2C1_DO_TX_EMPTY->_rd2RegCompleteHandler@i2c_simple_master$F1301
    _I2C1_DO_TX_EMPTY->_rdBlkRegCompleteHandler
    _I2C1_DO_TX_EMPTY->_rdBlkRegCompleteHandler@i2c_simple_master$F1313
    _I2C1_DO_TX_EMPTY->_wr1RegCompleteHandler
    _I2C1_DO_TX_EMPTY->_wr1RegCompleteHandler@i2c_simple_master$F1283
    _I2C1_DO_TX_EMPTY->_wr2RegCompleteHandler
    _I2C1_DO_TX_EMPTY->_wr2RegCompleteHandler@i2c_simple_master$F1307
    _I2C1_DO_TX->_I2C1_CallbackReturnReset
    _I2C1_DO_TX->_I2C1_CallbackReturnStop
    _I2C1_DO_TX->_rd1RegCompleteHandler
    _I2C1_DO_TX->_rd1RegCompleteHandler@i2c_simple_master$F1293
    _I2C1_DO_TX->_rd2RegCompleteHandler
    _I2C1_DO_TX->_rd2RegCompleteHandler@i2c_simple_master$F1301
    _I2C1_DO_TX->_rdBlkRegCompleteHandler
    _I2C1_DO_TX->_rdBlkRegCompleteHandler@i2c_simple_master$F1313
    _I2C1_DO_TX->_wr1RegCompleteHandler
    _I2C1_DO_TX->_wr1RegCompleteHandler@i2c_simple_master$F1283
    _I2C1_DO_TX->_wr2RegCompleteHandler
    _I2C1_DO_TX->_wr2RegCompleteHandler@i2c_simple_master$F1307
    _I2C1_DO_SEND_ADR_WRITE->_I2C1_MasterSendTxData
    _I2C1_DO_RX->_I2C1_CallbackReturnReset
    _I2C1_DO_RX->_I2C1_CallbackReturnStop
    _I2C1_DO_RX->_rd1RegCompleteHandler
    _I2C1_DO_RX->_rd1RegCompleteHandler@i2c_simple_master$F1293
    _I2C1_DO_RX->_rd2RegCompleteHandler
    _I2C1_DO_RX->_rd2RegCompleteHandler@i2c_simple_master$F1301
    _I2C1_DO_RX->_rdBlkRegCompleteHandler
    _I2C1_DO_RX->_rdBlkRegCompleteHandler@i2c_simple_master$F1313
    _I2C1_DO_RX->_wr1RegCompleteHandler
    _I2C1_DO_RX->_wr1RegCompleteHandler@i2c_simple_master$F1283
    _I2C1_DO_RX->_wr2RegCompleteHandler
    _I2C1_DO_RX->_wr2RegCompleteHandler@i2c_simple_master$F1307
    _I2C1_DO_ADDRESS_NACK->_I2C1_CallbackReturnReset
    _I2C1_DO_ADDRESS_NACK->_I2C1_CallbackReturnStop
    _I2C1_DO_ADDRESS_NACK->_rd1RegCompleteHandler
    _I2C1_DO_ADDRESS_NACK->_rd1RegCompleteHandler@i2c_simple_master$F1293
    _I2C1_DO_ADDRESS_NACK->_rd2RegCompleteHandler
    _I2C1_DO_ADDRESS_NACK->_rd2RegCompleteHandler@i2c_simple_master$F1301
    _I2C1_DO_ADDRESS_NACK->_rdBlkRegCompleteHandler
    _I2C1_DO_ADDRESS_NACK->_rdBlkRegCompleteHandler@i2c_simple_master$F1313
    _I2C1_DO_ADDRESS_NACK->_wr1RegCompleteHandler
    _I2C1_DO_ADDRESS_NACK->_wr1RegCompleteHandler@i2c_simple_master$F1283
    _I2C1_DO_ADDRESS_NACK->_wr2RegCompleteHandler
    _I2C1_DO_ADDRESS_NACK->_wr2RegCompleteHandler@i2c_simple_master$F1307
    _wr2RegCompleteHandler@i2c_simple_master$F1307->_I2C1_SetDataCompleteCallback
    _wr2RegCompleteHandler->_I2C1_SetDataCompleteCallback
    _wr1RegCompleteHandler@i2c_simple_master$F1283->_I2C1_SetDataCompleteCallback
    _wr1RegCompleteHandler->_I2C1_SetDataCompleteCallback
    _rdBlkRegCompleteHandler@i2c_simple_master$F1313->_I2C1_SetDataCompleteCallback
    _rdBlkRegCompleteHandler->_I2C1_SetDataCompleteCallback
    _rd2RegCompleteHandler@i2c_simple_master$F1301->_I2C1_SetDataCompleteCallback
    _rd2RegCompleteHandler->_I2C1_SetDataCompleteCallback
    _rd1RegCompleteHandler@i2c_simple_master$F1293->_I2C1_SetDataCompleteCallback
    _rd1RegCompleteHandler->_I2C1_SetDataCompleteCallback
    _I2C1_SetDataCompleteCallback->_I2C1_SetCallback

Critical Paths under _INTERRUPT_InterruptManager in BANK0

    None.

Critical Paths under _main in BANK1

    None.

Critical Paths under _INTERRUPT_InterruptManager in BANK1

    None.

Critical Paths under _main in BANK2

    None.

Critical Paths under _INTERRUPT_InterruptManager in BANK2

    None.

Critical Paths under _main in BANK3

    None.

Critical Paths under _INTERRUPT_InterruptManager in BANK3

    None.

Critical Paths under _main in BANK4

    None.

Critical Paths under _INTERRUPT_InterruptManager in BANK4

    None.

Critical Paths under _main in BANK5

    None.

Critical Paths under _INTERRUPT_InterruptManager in BANK5

    None.

Critical Paths under _main in BANK6

    None.

Critical Paths under _INTERRUPT_InterruptManager in BANK6

    None.

Critical Paths under _main in BANK7

    None.

Critical Paths under _INTERRUPT_InterruptManager in BANK7

    None.

Critical Paths under _main in BANK8

    None.

Critical Paths under _INTERRUPT_InterruptManager in BANK8

    None.

Critical Paths under _main in BANK9

    None.

Critical Paths under _INTERRUPT_InterruptManager in BANK9

    None.

Critical Paths under _main in BANK10

    None.

Critical Paths under _INTERRUPT_InterruptManager in BANK10

    None.

Critical Paths under _main in BANK11

    None.

Critical Paths under _INTERRUPT_InterruptManager in BANK11

    None.

Critical Paths under _main in BANK12

    None.

Critical Paths under _INTERRUPT_InterruptManager in BANK12

    None.

Call Graph Tables:

 ---------------------------------------------------------------------------------
 (Depth) Function   	        Calls       Base Space   Used Autos Params    Refs
 ---------------------------------------------------------------------------------
 (0) _main                                                24    24      0  877024
                                             27 BANK0     17    17      0
                 _DELAY_milliseconds
                _EPWM1_LoadDutyValue
                _EPWM2_LoadDutyValue
             _I2C1_Read1ByteRegister
            _I2C1_Write1ByteRegister
         _IOCBF7_SetInterruptHandler
                 _PWM4_LoadDutyValue
                  _SYSTEM_Initialize
                              _lumos
                            _mathAbs
                           _patronus
                             _sparks
 ---------------------------------------------------------------------------------
 (1) _sparks                                               3     3      0   17708
                                              7 BANK0      3     3      0
                 _DELAY_milliseconds
                _EPWM2_LoadDutyValue
                           _flashRED
                          _lightsOff
 ---------------------------------------------------------------------------------
 (2) _flashRED                                             3     3      0    8854
                                              4 BANK0      3     3      0
                 _DELAY_milliseconds
                _EPWM2_LoadDutyValue
                          _lightsOff
 ---------------------------------------------------------------------------------
 (2) _lightsOff                                            0     0      0    4616
                _EPWM1_LoadDutyValue
                _EPWM2_LoadDutyValue
                 _PWM4_LoadDutyValue
 ---------------------------------------------------------------------------------
 (1) _patronus                                             3     3      0    7452
                                              4 BANK0      3     3      0
                 _DELAY_milliseconds
                _EPWM1_LoadDutyValue
                _EPWM2_LoadDutyValue
                 _PWM4_LoadDutyValue
 ---------------------------------------------------------------------------------
 (1) _lumos                                                4     4      0  286122
                                             23 BANK0      4     4      0
                 _DELAY_milliseconds
                _EPWM1_LoadDutyValue
                _EPWM2_LoadDutyValue
             _I2C1_Read1ByteRegister
                 _PWM4_LoadDutyValue
                            _mathAbs
 ---------------------------------------------------------------------------------
 (1) _mathAbs                                              1     1      0      88
                                              0 BANK0      1     1      0
 ---------------------------------------------------------------------------------
 (3) _PWM4_LoadDutyValue                                   4     2      2    1488
                                              0 BANK0      4     2      2
 ---------------------------------------------------------------------------------
 (2) _I2C1_Read1ByteRegister                               4     3      1  278917
                                             19 BANK0      4     3      1
                         _I2C1_Close
                   _I2C1_MasterWrite
                          _I2C1_Open
        _I2C1_SetAddressNackCallback
                     _I2C1_SetBuffer
       _I2C1_SetDataCompleteCallback
 ---------------------------------------------------------------------------------
 (3) _EPWM2_LoadDutyValue                                  4     2      2    1716
                                              0 BANK0      4     2      2
 ---------------------------------------------------------------------------------
 (3) _EPWM1_LoadDutyValue                                  4     2      2    1412
                                              0 BANK0      4     2      2
 ---------------------------------------------------------------------------------
 (3) _DELAY_milliseconds                                   3     1      2    2454
                                              0 BANK0      3     1      2
 ---------------------------------------------------------------------------------
 (1) _SYSTEM_Initialize                                    0     0      0     174
                   _EPWM1_Initialize
                   _EPWM2_Initialize
                    _I2C1_Initialize
              _OSCILLATOR_Initialize
             _PIN_MANAGER_Initialize
                    _PWM4_Initialize
                    _TMR2_Initialize
                     _WDT_Initialize
 ---------------------------------------------------------------------------------
 (2) _WDT_Initialize                                       0     0      0       0
 ---------------------------------------------------------------------------------
 (2) _TMR2_Initialize                                      0     0      0       0
 ---------------------------------------------------------------------------------
 (2) _PWM4_Initialize                                      0     0      0       0
 ---------------------------------------------------------------------------------
 (2) _PIN_MANAGER_Initialize                               0     0      0     174
         _IOCBF7_SetInterruptHandler
 ---------------------------------------------------------------------------------
 (3) _IOCBF7_SetInterruptHandler                           2     0      2     174
                                              0 BANK0      2     0      2
 ---------------------------------------------------------------------------------
 (2) _OSCILLATOR_Initialize                                0     0      0       0
 ---------------------------------------------------------------------------------
 (2) _I2C1_Initialize                                      0     0      0       0
 ---------------------------------------------------------------------------------
 (2) _EPWM2_Initialize                                     0     0      0       0
 ---------------------------------------------------------------------------------
 (2) _EPWM1_Initialize                                     0     0      0       0
 ---------------------------------------------------------------------------------
 (1) _I2C1_Write1ByteRegister                              4     2      2  279046
                                             19 BANK0      4     2      2
                         _I2C1_Close
                   _I2C1_MasterWrite
                          _I2C1_Open
        _I2C1_SetAddressNackCallback
                     _I2C1_SetBuffer
       _I2C1_SetDataCompleteCallback
 ---------------------------------------------------------------------------------
 (3) _I2C1_SetAddressNackCallback                          4     1      3    2782
                                              5 BANK0      4     1      3
                   _I2C1_SetCallback
 ---------------------------------------------------------------------------------
 (3) _I2C1_Open                                            3     3      0      46
                                              0 BANK0      3     3      0
                _I2C1_MasterClearIrq
                    _I2C1_MasterOpen
 ---------------------------------------------------------------------------------
 (4) _I2C1_MasterOpen                                      0     0      0       0
 ---------------------------------------------------------------------------------
 (3) _I2C1_MasterWrite                                     0     0      0  268548
               _I2C1_MasterOperation
 ---------------------------------------------------------------------------------
 (4) _I2C1_MasterOperation                                 3     3      0  268548
                                             16 BANK0      3     3      0
                   _I2C1_MasterStart
                        _I2C1_Poller
 ---------------------------------------------------------------------------------
 (5) _I2C1_Poller                                          0     0      0  268502
                     _I2C1_MasterFsm
            _I2C1_MasterWaitForEvent
 ---------------------------------------------------------------------------------
 (6) _I2C1_MasterWaitForEvent                              0     0      0       0
 ---------------------------------------------------------------------------------
 (6) _I2C1_MasterFsm                                       3     3      0  268502
                                             13 BANK0      3     3      0
               _I2C1_DO_ADDRESS_NACK *
                       _I2C1_DO_IDLE *
                       _I2C1_DO_RCEN *
                      _I2C1_DO_RESET *
                         _I2C1_DO_RX *
                     _I2C1_DO_RX_ACK *
            _I2C1_DO_RX_NACK_RESTART *
               _I2C1_DO_RX_NACK_STOP *
              _I2C1_DO_SEND_ADR_READ *
             _I2C1_DO_SEND_ADR_WRITE *
               _I2C1_DO_SEND_RESTART *
          _I2C1_DO_SEND_RESTART_READ *
         _I2C1_DO_SEND_RESTART_WRITE *
                  _I2C1_DO_SEND_STOP *
                         _I2C1_DO_TX *
                   _I2C1_DO_TX_EMPTY *
                _I2C1_MasterClearIrq
                  _I2C1_MasterIsNack
 ---------------------------------------------------------------------------------
 (7) _I2C1_DO_TX_EMPTY                                     3     3      0   67109
                                             10 BANK0      3     3      0
                   Absolute function *
           _I2C1_CallbackReturnReset *
            _I2C1_CallbackReturnStop *
               _I2C1_DO_SEND_RESTART
                  _I2C1_DO_SEND_STOP
                  _I2C1_MasterSetIrq
              _rd1RegCompleteHandler *
_rd1RegCompleteHandler@i2c_simple_ma *
              _rd2RegCompleteHandler *
_rd2RegCompleteHandler@i2c_simple_ma *
            _rdBlkRegCompleteHandler *
_rdBlkRegCompleteHandler@i2c_simple_ *
              _wr1RegCompleteHandler *
_wr1RegCompleteHandler@i2c_simple_ma *
              _wr2RegCompleteHandler *
_wr2RegCompleteHandler@i2c_simple_ma *
 ---------------------------------------------------------------------------------
 (8) _I2C1_MasterSetIrq                                    0     0      0       0
 ---------------------------------------------------------------------------------
 (7) _I2C1_DO_TX                                           3     3      0   67131
                                             10 BANK0      3     3      0
                   Absolute function *
           _I2C1_CallbackReturnReset *
            _I2C1_CallbackReturnStop *
          _I2C1_DO_SEND_RESTART_READ
         _I2C1_DO_SEND_RESTART_WRITE
                  _I2C1_DO_SEND_STOP
                  _I2C1_MasterIsNack
              _I2C1_MasterSendTxData
              _rd1RegCompleteHandler *
_rd1RegCompleteHandler@i2c_simple_ma *
              _rd2RegCompleteHandler *
_rd2RegCompleteHandler@i2c_simple_ma *
            _rdBlkRegCompleteHandler *
_rdBlkRegCompleteHandler@i2c_simple_ *
              _wr1RegCompleteHandler *
_wr1RegCompleteHandler@i2c_simple_ma *
              _wr2RegCompleteHandler *
_wr2RegCompleteHandler@i2c_simple_ma *
 ---------------------------------------------------------------------------------
 (7) _I2C1_MasterIsNack                                    0     0      0       0
 ---------------------------------------------------------------------------------
 (8) _I2C1_DO_SEND_RESTART_WRITE                           0     0      0       0
           _I2C1_MasterEnableRestart
 ---------------------------------------------------------------------------------
 (8) _I2C1_DO_SEND_RESTART_READ                            0     0      0       0
           _I2C1_MasterEnableRestart
 ---------------------------------------------------------------------------------
 (7) _I2C1_DO_SEND_ADR_WRITE                               0     0      0      22
              _I2C1_MasterSendTxData
 ---------------------------------------------------------------------------------
 (7) _I2C1_DO_SEND_ADR_READ                                0     0      0      22
              _I2C1_MasterSendTxData
 ---------------------------------------------------------------------------------
 (8) _I2C1_MasterSendTxData                                1     1      0      22
                                              0 BANK0      1     1      0
 ---------------------------------------------------------------------------------
 (7) _I2C1_DO_RX_ACK                                       0     0      0       0
                 _I2C1_MasterSendAck
 ---------------------------------------------------------------------------------
 (7) _I2C1_DO_RX                                           3     3      0   67109
                                             10 BANK0      3     3      0
                   Absolute function *
           _I2C1_CallbackReturnReset *
            _I2C1_CallbackReturnStop *
            _I2C1_DO_RX_NACK_RESTART
               _I2C1_DO_RX_NACK_STOP
               _I2C1_MasterGetRxData
                 _I2C1_MasterSendAck
              _rd1RegCompleteHandler *
_rd1RegCompleteHandler@i2c_simple_ma *
              _rd2RegCompleteHandler *
_rd2RegCompleteHandler@i2c_simple_ma *
            _rdBlkRegCompleteHandler *
_rdBlkRegCompleteHandler@i2c_simple_ *
              _wr1RegCompleteHandler *
_wr1RegCompleteHandler@i2c_simple_ma *
              _wr2RegCompleteHandler *
_wr2RegCompleteHandler@i2c_simple_ma *
 ---------------------------------------------------------------------------------
 (8) _I2C1_MasterSendAck                                   0     0      0       0
 ---------------------------------------------------------------------------------
 (8) _I2C1_MasterGetRxData                                 0     0      0       0
 ---------------------------------------------------------------------------------
 (7) _I2C1_DO_RX_NACK_STOP                                 0     0      0       0
                _I2C1_MasterSendNack
 ---------------------------------------------------------------------------------
 (7) _I2C1_DO_RX_NACK_RESTART                              0     0      0       0
                _I2C1_MasterSendNack
 ---------------------------------------------------------------------------------
 (8) _I2C1_MasterSendNack                                  0     0      0       0
 ---------------------------------------------------------------------------------
 (7) _I2C1_DO_RESET                                        0     0      0       0
 ---------------------------------------------------------------------------------
 (7) _I2C1_DO_RCEN                                         0     0      0       0
                 _I2C1_MasterStartRx
 ---------------------------------------------------------------------------------
 (8) _I2C1_MasterStartRx                                   0     0      0       0
 ---------------------------------------------------------------------------------
 (7) _I2C1_DO_IDLE                                         0     0      0       0
 ---------------------------------------------------------------------------------
 (7) _I2C1_DO_ADDRESS_NACK                                 3     3      0   67109
                                             10 BANK0      3     3      0
                   Absolute function *
           _I2C1_CallbackReturnReset *
            _I2C1_CallbackReturnStop *
               _I2C1_DO_SEND_RESTART
                  _I2C1_DO_SEND_STOP
              _rd1RegCompleteHandler *
_rd1RegCompleteHandler@i2c_simple_ma *
              _rd2RegCompleteHandler *
_rd2RegCompleteHandler@i2c_simple_ma *
            _rdBlkRegCompleteHandler *
_rdBlkRegCompleteHandler@i2c_simple_ *
              _wr1RegCompleteHandler *
_wr1RegCompleteHandler@i2c_simple_ma *
              _wr2RegCompleteHandler *
_wr2RegCompleteHandler@i2c_simple_ma *
 ---------------------------------------------------------------------------------
 (8) _wr2RegCompleteHandler@i2c_simple_master$F1307        1     0      1    6680
                                              9 BANK0      1     0      1
                     _I2C1_SetBuffer
       _I2C1_SetDataCompleteCallback
 ---------------------------------------------------------------------------------
 (8) _wr2RegCompleteHandler                                1     0      1    6680
                                              9 BANK0      1     0      1
                     _I2C1_SetBuffer
       _I2C1_SetDataCompleteCallback
 ---------------------------------------------------------------------------------
 (8) _wr1RegCompleteHandler@i2c_simple_master$F1283        1     0      1    6680
                                              9 BANK0      1     0      1
                     _I2C1_SetBuffer
       _I2C1_SetDataCompleteCallback
 ---------------------------------------------------------------------------------
 (8) _wr1RegCompleteHandler                                1     0      1    6680
                                              9 BANK0      1     0      1
                     _I2C1_SetBuffer
       _I2C1_SetDataCompleteCallback
 ---------------------------------------------------------------------------------
 (8) _rdBlkRegCompleteHandler@i2c_simple_master$F1313      1     0      1    6967
                                              9 BANK0      1     0      1
                     _I2C1_SetBuffer
       _I2C1_SetDataCompleteCallback
 ---------------------------------------------------------------------------------
 (8) _rdBlkRegCompleteHandler                              1     0      1    6702
                                              9 BANK0      1     0      1
                     _I2C1_SetBuffer
       _I2C1_SetDataCompleteCallback
 ---------------------------------------------------------------------------------
 (8) _rd2RegCompleteHandler@i2c_simple_master$F1301        1     0      1    6680
                                              9 BANK0      1     0      1
                     _I2C1_SetBuffer
       _I2C1_SetDataCompleteCallback
 ---------------------------------------------------------------------------------
 (8) _rd2RegCompleteHandler                                1     0      1    6680
                                              9 BANK0      1     0      1
                     _I2C1_SetBuffer
       _I2C1_SetDataCompleteCallback
 ---------------------------------------------------------------------------------
 (8) _rd1RegCompleteHandler@i2c_simple_master$F1293        1     0      1    6680
                                              9 BANK0      1     0      1
                     _I2C1_SetBuffer
       _I2C1_SetDataCompleteCallback
 ---------------------------------------------------------------------------------
 (8) _rd1RegCompleteHandler                                1     0      1    6680
                                              9 BANK0      1     0      1
                     _I2C1_SetBuffer
       _I2C1_SetDataCompleteCallback
 ---------------------------------------------------------------------------------
 (3) _I2C1_SetDataCompleteCallback                         4     1      3    3998
                                              5 BANK0      4     1      3
                   _I2C1_SetCallback
 ---------------------------------------------------------------------------------
 (4) _I2C1_SetCallback                                     5     2      3     914
                                              0 BANK0      5     2      3
 ---------------------------------------------------------------------------------
 (3) _I2C1_SetBuffer                                       4     2      2    2660
                                              0 BANK0      4     2      2
 ---------------------------------------------------------------------------------
 (8) _I2C1_DO_SEND_STOP                                    0     0      0       0
                    _I2C1_MasterStop
 ---------------------------------------------------------------------------------
 (9) _I2C1_MasterStop                                      0     0      0       0
 ---------------------------------------------------------------------------------
 (8) _I2C1_DO_SEND_RESTART                                 0     0      0       0
           _I2C1_MasterEnableRestart
 ---------------------------------------------------------------------------------
 (9) _I2C1_MasterEnableRestart                             0     0      0       0
 ---------------------------------------------------------------------------------
 (8) _I2C1_CallbackReturnStop                              1     0      1       0
                                              9 BANK0      1     0      1
 ---------------------------------------------------------------------------------
 (8) _I2C1_CallbackReturnReset                             1     0      1       0
                                              9 BANK0      1     0      1
 ---------------------------------------------------------------------------------
 (14) Absolute function(Fake)                              0     0      0       0
 ---------------------------------------------------------------------------------
 (5) _I2C1_MasterStart                                     0     0      0       0
 ---------------------------------------------------------------------------------
 (3) _I2C1_Close                                           2     2      0      24
                                              0 BANK0      2     2      0
                _I2C1_MasterClearIrq
                   _I2C1_MasterClose
              _I2C1_MasterDisableIrq
 ---------------------------------------------------------------------------------
 (4) _I2C1_MasterDisableIrq                                0     0      0       0
 ---------------------------------------------------------------------------------
 (4) _I2C1_MasterClose                                     0     0      0       0
 ---------------------------------------------------------------------------------
 (4) _I2C1_MasterClearIrq                                  0     0      0       0
 ---------------------------------------------------------------------------------
 Estimated maximum stack depth 14
 ---------------------------------------------------------------------------------
 (Depth) Function   	        Calls       Base Space   Used Autos Params    Refs
 ---------------------------------------------------------------------------------
 (11) _INTERRUPT_InterruptManager                          0     0      0    1884
                    _PIN_MANAGER_IOC
 ---------------------------------------------------------------------------------
 (12) _PIN_MANAGER_IOC                                     0     0      0    1884
                         _IOCBF7_ISR
 ---------------------------------------------------------------------------------
 (13) _IOCBF7_ISR                                          0     0      0    1884
                   Absolute function *
                    _ButtonInterrupt *
     _IOCBF7_DefaultInterruptHandler *
 ---------------------------------------------------------------------------------
 (14) _IOCBF7_DefaultInterruptHandler                      0     0      0       0
 ---------------------------------------------------------------------------------
 (14) _ButtonInterrupt                                     0     0      0    1884
                           i1_sparks
 ---------------------------------------------------------------------------------
 (15) i1_sparks                                            3     3      0    1884
                                              7 COMMON     3     3      0
               i1_DELAY_milliseconds
              i1_EPWM2_LoadDutyValue
                         i1_flashRED
                        i1_lightsOff
 ---------------------------------------------------------------------------------
 (16) i1_flashRED                                          3     3      0     942
                                              4 COMMON     3     3      0
               i1_DELAY_milliseconds
              i1_EPWM2_LoadDutyValue
                        i1_lightsOff
 ---------------------------------------------------------------------------------
 (16) i1_lightsOff                                         0     0      0     288
              i1_EPWM1_LoadDutyValue
              i1_EPWM2_LoadDutyValue
               i1_PWM4_LoadDutyValue
 ---------------------------------------------------------------------------------
 (17) i1_PWM4_LoadDutyValue                                4     2      2      70
                                              0 COMMON     4     2      2
 ---------------------------------------------------------------------------------
 (17) i1_EPWM2_LoadDutyValue                               4     2      2     148
                                              0 COMMON     4     2      2
 ---------------------------------------------------------------------------------
 (17) i1_EPWM1_LoadDutyValue                               4     2      2      70
                                              0 COMMON     4     2      2
 ---------------------------------------------------------------------------------
 (17) i1_DELAY_milliseconds                                3     1      2     438
                                              0 COMMON     3     1      2
 ---------------------------------------------------------------------------------
 (14) Absolute function(Fake)                              0     0      0       0
 ---------------------------------------------------------------------------------
 Estimated maximum stack depth 17
 ---------------------------------------------------------------------------------

 Call Graph Graphs:

 _main (ROOT)
   _DELAY_milliseconds
   _EPWM1_LoadDutyValue
   _EPWM2_LoadDutyValue
   _I2C1_Read1ByteRegister
     _I2C1_Close
       _I2C1_MasterClearIrq
       _I2C1_MasterClose
       _I2C1_MasterDisableIrq
     _I2C1_MasterWrite
       _I2C1_MasterOperation
         _I2C1_MasterStart
         _I2C1_Poller
           _I2C1_MasterFsm
             _I2C1_DO_ADDRESS_NACK *
               Absolute function(Fake) *
               _I2C1_CallbackReturnReset *
               _I2C1_CallbackReturnStop *
               _I2C1_DO_SEND_RESTART *
                 _I2C1_MasterEnableRestart
               _I2C1_DO_SEND_STOP *
                 _I2C1_MasterStop
               _rd1RegCompleteHandler *
                 _I2C1_SetBuffer
                 _I2C1_SetDataCompleteCallback
                   _I2C1_SetCallback
               _rd1RegCompleteHandler@i2c_simple_master$F1293 *
                 _I2C1_SetBuffer
                 _I2C1_SetDataCompleteCallback
               _rd2RegCompleteHandler *
                 _I2C1_SetBuffer
                 _I2C1_SetDataCompleteCallback
               _rd2RegCompleteHandler@i2c_simple_master$F1301 *
                 _I2C1_SetBuffer
                 _I2C1_SetDataCompleteCallback
               _rdBlkRegCompleteHandler *
                 _I2C1_SetBuffer
                 _I2C1_SetDataCompleteCallback
               _rdBlkRegCompleteHandler@i2c_simple_master$F1313 *
                 _I2C1_SetBuffer
                 _I2C1_SetDataCompleteCallback
               _wr1RegCompleteHandler *
                 _I2C1_SetBuffer
                 _I2C1_SetDataCompleteCallback
               _wr1RegCompleteHandler@i2c_simple_master$F1283 *
                 _I2C1_SetBuffer
                 _I2C1_SetDataCompleteCallback
               _wr2RegCompleteHandler *
                 _I2C1_SetBuffer
                 _I2C1_SetDataCompleteCallback
               _wr2RegCompleteHandler@i2c_simple_master$F1307 *
                 _I2C1_SetBuffer
                 _I2C1_SetDataCompleteCallback
             _I2C1_DO_IDLE *
             _I2C1_DO_RCEN *
               _I2C1_MasterStartRx
             _I2C1_DO_RESET *
             _I2C1_DO_RX *
               Absolute function(Fake) *
               _I2C1_CallbackReturnReset *
               _I2C1_CallbackReturnStop *
               _I2C1_DO_RX_NACK_RESTART *
                 _I2C1_MasterSendNack
               _I2C1_DO_RX_NACK_STOP *
                 _I2C1_MasterSendNack
               _I2C1_MasterGetRxData *
               _I2C1_MasterSendAck *
               _rd1RegCompleteHandler *
               _rd1RegCompleteHandler@i2c_simple_master$F1293 *
               _rd2RegCompleteHandler *
               _rd2RegCompleteHandler@i2c_simple_master$F1301 *
               _rdBlkRegCompleteHandler *
               _rdBlkRegCompleteHandler@i2c_simple_master$F1313 *
               _wr1RegCompleteHandler *
               _wr1RegCompleteHandler@i2c_simple_master$F1283 *
               _wr2RegCompleteHandler *
               _wr2RegCompleteHandler@i2c_simple_master$F1307 *
             _I2C1_DO_RX_ACK *
               _I2C1_MasterSendAck
             _I2C1_DO_RX_NACK_RESTART *
             _I2C1_DO_RX_NACK_STOP *
             _I2C1_DO_SEND_ADR_READ *
               _I2C1_MasterSendTxData
             _I2C1_DO_SEND_ADR_WRITE *
               _I2C1_MasterSendTxData
             _I2C1_DO_SEND_RESTART *
             _I2C1_DO_SEND_RESTART_READ *
               _I2C1_MasterEnableRestart
             _I2C1_DO_SEND_RESTART_WRITE *
               _I2C1_MasterEnableRestart
             _I2C1_DO_SEND_STOP *
             _I2C1_DO_TX *
               Absolute function(Fake) *
               _I2C1_CallbackReturnReset *
               _I2C1_CallbackReturnStop *
               _I2C1_DO_SEND_RESTART_READ *
               _I2C1_DO_SEND_RESTART_WRITE *
               _I2C1_DO_SEND_STOP *
               _I2C1_MasterIsNack *
               _I2C1_MasterSendTxData *
               _rd1RegCompleteHandler *
               _rd1RegCompleteHandler@i2c_simple_master$F1293 *
               _rd2RegCompleteHandler *
               _rd2RegCompleteHandler@i2c_simple_master$F1301 *
               _rdBlkRegCompleteHandler *
               _rdBlkRegCompleteHandler@i2c_simple_master$F1313 *
               _wr1RegCompleteHandler *
               _wr1RegCompleteHandler@i2c_simple_master$F1283 *
               _wr2RegCompleteHandler *
               _wr2RegCompleteHandler@i2c_simple_master$F1307 *
             _I2C1_DO_TX_EMPTY *
               Absolute function(Fake) *
               _I2C1_CallbackReturnReset *
               _I2C1_CallbackReturnStop *
               _I2C1_DO_SEND_RESTART *
               _I2C1_DO_SEND_STOP *
               _I2C1_MasterSetIrq *
               _rd1RegCompleteHandler *
               _rd1RegCompleteHandler@i2c_simple_master$F1293 *
               _rd2RegCompleteHandler *
               _rd2RegCompleteHandler@i2c_simple_master$F1301 *
               _rdBlkRegCompleteHandler *
               _rdBlkRegCompleteHandler@i2c_simple_master$F1313 *
               _wr1RegCompleteHandler *
               _wr1RegCompleteHandler@i2c_simple_master$F1283 *
               _wr2RegCompleteHandler *
               _wr2RegCompleteHandler@i2c_simple_master$F1307 *
             _I2C1_MasterClearIrq *
             _I2C1_MasterIsNack *
           _I2C1_MasterWaitForEvent
     _I2C1_Open
       _I2C1_MasterClearIrq
       _I2C1_MasterOpen
     _I2C1_SetAddressNackCallback
       _I2C1_SetCallback
     _I2C1_SetBuffer
     _I2C1_SetDataCompleteCallback
   _I2C1_Write1ByteRegister
     _I2C1_Close
     _I2C1_MasterWrite
     _I2C1_Open
     _I2C1_SetAddressNackCallback
     _I2C1_SetBuffer
     _I2C1_SetDataCompleteCallback
   _IOCBF7_SetInterruptHandler
   _PWM4_LoadDutyValue
   _SYSTEM_Initialize
     _EPWM1_Initialize
     _EPWM2_Initialize
     _I2C1_Initialize
     _OSCILLATOR_Initialize
     _PIN_MANAGER_Initialize
       _IOCBF7_SetInterruptHandler
     _PWM4_Initialize
     _TMR2_Initialize
     _WDT_Initialize
   _lumos
     _DELAY_milliseconds
     _EPWM1_LoadDutyValue
     _EPWM2_LoadDutyValue
     _I2C1_Read1ByteRegister
     _PWM4_LoadDutyValue
     _mathAbs
   _mathAbs
   _patronus
     _DELAY_milliseconds
     _EPWM1_LoadDutyValue
     _EPWM2_LoadDutyValue
     _PWM4_LoadDutyValue
   _sparks
     _DELAY_milliseconds
     _EPWM2_LoadDutyValue
     _flashRED
       _DELAY_milliseconds
       _EPWM2_LoadDutyValue
       _lightsOff
         _EPWM1_LoadDutyValue
         _EPWM2_LoadDutyValue
         _PWM4_LoadDutyValue
     _lightsOff

 _INTERRUPT_InterruptManager (ROOT)
   _PIN_MANAGER_IOC
     _IOCBF7_ISR
       Absolute function(Fake) *
       _ButtonInterrupt *
         i1_sparks
           i1_DELAY_milliseconds
           i1_EPWM2_LoadDutyValue
           i1_flashRED
             i1_DELAY_milliseconds
             i1_EPWM2_LoadDutyValue
             i1_lightsOff
               i1_EPWM1_LoadDutyValue
               i1_EPWM2_LoadDutyValue
               i1_PWM4_LoadDutyValue
           i1_lightsOff
       _IOCBF7_DefaultInterruptHandler *

 Address spaces:
Name               Size   Autos  Total    Cost      Usage
BIGRAM             3F0      0       0       0        0.0%
EEDATA             100      0       0       0        0.0%
NULL                 0      0       0       0        0.0%
CODE                 0      0       0       0        0.0%
BITCOMMON            E      0       0       1        0.0%
BITSFR0              0      0       0       1        0.0%
SFR0                 0      0       0       1        0.0%
COMMON               E      A       C       2       85.7%
BITSFR1              0      0       0       2        0.0%
SFR1                 0      0       0       2        0.0%
BITSFR2              0      0       0       3        0.0%
SFR2                 0      0       0       3        0.0%
STACK                0      0       0       3        0.0%
BITBANK0            50      0       0       4        0.0%
BITSFR3              0      0       0       4        0.0%
SFR3                 0      0       0       4        0.0%
BANK0               50     2C      4E       5       97.5%
BITSFR4              0      0       0       5        0.0%
SFR4                 0      0       0       5        0.0%
BITBANK1            50      0       0       6        0.0%
BITSFR5              0      0       0       6        0.0%
SFR5                 0      0       0       6        0.0%
BANK1               50      0       0       7        0.0%
BITSFR6              0      0       0       7        0.0%
SFR6                 0      0       0       7        0.0%
BITBANK2            50      0       0       8        0.0%
BITSFR7              0      0       0       8        0.0%
SFR7                 0      0       0       8        0.0%
BANK2               50      0       0       9        0.0%
BITSFR8              0      0       0       9        0.0%
SFR8                 0      0       0       9        0.0%
BITBANK3            50      0       0      10        0.0%
BITSFR9              0      0       0      10        0.0%
SFR9                 0      0       0      10        0.0%
BANK3               50      0       0      11        0.0%
BITSFR10             0      0       0      11        0.0%
SFR10                0      0       0      11        0.0%
BITBANK4            50      0       0      12        0.0%
BITSFR11             0      0       0      12        0.0%
SFR11                0      0       0      12        0.0%
BANK4               50      0       0      13        0.0%
BITSFR12             0      0       0      13        0.0%
SFR12                0      0       0      13        0.0%
BITBANK5            50      0       0      14        0.0%
BITSFR13             0      0       0      14        0.0%
SFR13                0      0       0      14        0.0%
BANK5               50      0       0      15        0.0%
BITSFR14             0      0       0      15        0.0%
SFR14                0      0       0      15        0.0%
BITBANK6            50      0       0      16        0.0%
BITSFR15             0      0       0      16        0.0%
SFR15                0      0       0      16        0.0%
BANK6               50      0       0      17        0.0%
BITSFR16             0      0       0      17        0.0%
SFR16                0      0       0      17        0.0%
BITBANK7            50      0       0      18        0.0%
BITSFR17             0      0       0      18        0.0%
SFR17                0      0       0      18        0.0%
BANK7               50      0       0      19        0.0%
BITSFR18             0      0       0      19        0.0%
SFR18                0      0       0      19        0.0%
BITSFR19             0      0       0      20        0.0%
SFR19                0      0       0      20        0.0%
ABS                  0      0      5A      20        0.0%
BITBANK8            50      0       0      21        0.0%
BITSFR20             0      0       0      21        0.0%
SFR20                0      0       0      21        0.0%
BANK8               50      0       0      22        0.0%
BITSFR21             0      0       0      22        0.0%
SFR21                0      0       0      22        0.0%
BITBANK9            50      0       0      23        0.0%
BITSFR22             0      0       0      23        0.0%
SFR22                0      0       0      23        0.0%
BANK9               50      0       0      24        0.0%
BITSFR23             0      0       0      24        0.0%
SFR23                0      0       0      24        0.0%
BITBANK10           50      0       0      25        0.0%
BITSFR24             0      0       0      25        0.0%
SFR24                0      0       0      25        0.0%
BANK10              50      0       0      26        0.0%
BITSFR25             0      0       0      26        0.0%
SFR25                0      0       0      26        0.0%
BITBANK11           50      0       0      27        0.0%
BITSFR26             0      0       0      27        0.0%
SFR26                0      0       0      27        0.0%
BANK11              50      0       0      28        0.0%
BITSFR27             0      0       0      28        0.0%
SFR27                0      0       0      28        0.0%
BITBANK12           30      0       0      29        0.0%
BITSFR28             0      0       0      29        0.0%
SFR28                0      0       0      29        0.0%
BANK12              30      0       0      30        0.0%
BITSFR29             0      0       0      30        0.0%
SFR29                0      0       0      30        0.0%
BITSFR30             0      0       0      31        0.0%
SFR30                0      0       0      31        0.0%
DATA                 0      0      5A      31        0.0%
BITSFR31             0      0       0      32        0.0%
SFR31                0      0       0      32        0.0%


Microchip Technology PIC Macro Assembler V2.32 build 20210201212658 
Symbol Table                                                                                   Thu Aug 12 17:42:35 2021

                            __size_of_EPWM2_LoadDutyValue 001C  
                                                      l32 0D2F  
                                                      l35 0D34  
                                                      l52 0F8F  
                                                      l29 0F05  
                                                      l38 0C9C  
                                                      l49 0D28  
                                                      l91 0E5B  
                                                      l92 0E63  
                                  ??i1_PWM4_LoadDutyValue 0072  
                                                     l213 0D86  
                                                     l125 05B6  
                                                     l133 072E  
                                                     l118 03F6  
                                                     l143 04AB  
                                                     l216 0F57  
                                                     l128 0E8F  
                                                     l421 0DF0  
                                                     l430 0F1F  
                                                     l319 0EEC  
                                                     l424 0E03  
                                                     l600 0D15  
                                                     l193 0D94  
                                                     l265 0FFF  
                                                     l361 06C6  
                                                     l418 0DDD  
                                                     l427 0E16  
                                                     l603 0CFB  
                                                     l540 068D  
                                                     l276 0CE6  
                                                     l292 0D03  
                                                     l196 0F73  
                                                     l541 068E  
                                                     l606 05F0  
                                                     l622 062A  
                                                     l623 0653  
                                                     l551 0FAE  
                                                     l712 0C89  
                                                     l640 075E  
                                                     l545 0F3B  
                                                     l609 060C  
                                                     l537 0D1E  
                                                     l730 0C83  
                                                     l634 0CF3  
                                                     l706 0D4E  
                                                     l715 0CD4  
                                                     l379 06FB  
                                                     l564 0DA4  
                                                     l820 0E4F  
                                                     l724 0C86  
                                                     l709 0C77  
                                                     l805 0E3C  
                                                     l733 0CDA  
                                                     l661 0CAB  
                                                     l557 0CCE  
                                                     l573 0D78  
                                                     l718 0C80  
                                                     l670 0CBA  
                                                     l590 0D41  
                                                     l727 0C7D  
                                                     l567 0D6A  
                                                     l584 0FD5  
                                                     l832 0DCA  
                                                     l736 0C98  
                                                     l760 0C8C  
                                                     l664 0CB0  
                                                     l673 0CBF  
                                                     l754 0C7A  
                                                     l658 0CA6  
                                                     l594 07E4  
                                                     l739 0C94  
                                                     l667 0CB5  
                                                     l763 0CDB  
                                                     l844 07FE  
                                                     l676 0CC4  
                                                     l757 0C74  
                                                     l693 0C71  
                                                     l597 0CA1  
                                                     l685 07B9  
                                                     l679 0CC9  
                                                     l767 0CE0  
                                                     l696 0003  
                                                     l784 0E29  
                                                     _PR2 001B  
                                                     u950 0FB7  
                                                     u951 0FB6  
                                                     u960 0D9B  
                                                     u961 0D9A  
                                                     u970 05BF  
                                                     u971 05BE  
                                                     u980 0609  
                                                     u981 0608  
                                                     u990 0625  
                                                     u991 0624  
                              __end_of_DELAY_milliseconds 0EED  
                                   ?_I2C1_MasterOperation 0070  
                                         _TMR2_Initialize 0CFC  
                                         _PWM4_Initialize 0D1F  
                                                     wreg 0009  
                                  ?_I2C1_MasterSendTxData 0070  
                                              i1_flashRED 075F  
                       __size_of_I2C1_MasterEnableRestart 0003  
                                __end_of_EPWM2_Initialize 0D95  
                                    _I2C1_DO_RX_NACK_STOP 0CBB  
                               ?_I2C1_MasterEnableRestart 0070  
                      __end_of_IOCBF7_SetInterruptHandler 0CE7  
                              _IOCBF7_SetInterruptHandler 0CE1  
                                    I2C1_SetBuffer@buffer 0023  
                                 ??_rd2RegCompleteHandler 002A  
                                                    l3001 0617  
                                                    l3003 061B  
                                                    l3013 062C  
                                                    l3005 0625  
                                                    l3023 0634  
                                                    l3007 0628  
                                                    l3031 0CEF  
                                                    l3111 07CF  
                                                    l3103 07BA  
                                                    l3121 0C7B  
                                                    l3017 0630  
                                                    l3033 0CF2  
                                                    l3105 07BD  
                                                    l3043 0736  
                                                    l3107 07C2  
                                                    l3123 0D35  
                                                    l3211 0E7A  
                                                    l3045 0739  
                                                    l3037 072F  
                                                    l4021 0645  
                                                    l3029 0CED  
                                                    l3061 0CB6  
                                                    l3109 07CA  
                                                    l3125 0D36  
                                                    l3221 0660  
                                                    l3213 0CE1  
                                                    l3301 0FED  
                                                    l3205 0ED5  
                                                    l3039 0732  
                                                    l3055 073F  
                                                    l4023 05E2  
                                                    l3063 0CB9  
                                                    l3071 0CC8  
                                                    l3127 0D39  
                                                    l3231 0671  
                                                    l3223 0661  
                                                    l3311 0FF5  
                                                    l3303 0FEF  
                                                    l3207 0ED6  
                                                    l3151 0F58  
                                                    l4025 0750  
                                                    l3049 073B  
                                                    l3129 0D3C  
                                                    l3161 0D4D  
                                                    l3153 0D42  
                                                    l3241 0685  
                                                    l3233 0676  
                                                    l3225 0662  
                                                    l3217 0656  
                                                    l3321 0D2D  
                                                    l3313 0FF6  
                                                    l3305 0FF1  
                                                    l3209 0EDF  
                                                    l3401 070C  
                                                    l3067 0CC5  
                                                    l4019 07B1  
                                                    l3083 0798  
                                                    l3075 078D  
                                                    l3171 0F98  
                                                    l3251 0CCA  
                                                    l3155 0D47  
                                                    l3243 0688  
                                                    l3235 067A  
                                                    l3227 066B  
                                                    l3219 065C  
                                                    l3331 0D8D  
                                                    l3315 0FFE  
                                                    l3307 0FF2  
                                                    l3323 0C99  
                                                    l3147 0F74  
                                                    l3411 0726  
                                                    l3165 0C78  
                                                    l3261 0F2C  
                                                    l3069 0CC7  
                                                    l3077 078F  
                                                    l3181 0FA6  
                                                    l3173 0F99  
                                                    l3157 0D48  
                                                    l3245 068B  
                                                    l3237 067F  
                                                    l3229 0670  
                                                    l3341 0D7D  
                                                    l3333 0D8F  
                                                    l3325 0D87  
                                                    l3317 0D29  
                                                    l3309 0FF4  
                                                    l3421 0EED  
                                                    l3149 0F3C  
                                                    l3413 072B  
                                                    l3501 03FC  
                                                    l3167 0C75  
                                                    l3263 0F2F  
                                                    l3255 0F20  
                                                    l3079 0794  
                                                    l3183 0FA9  
                                                    l3175 0F9A  
                                                    l3159 0D4A  
                                                    l3239 0680  
                                                    l3511 06C9  
                                                    l3343 0D7F  
                                                    l3335 0D92  
                                                    l3327 0D8A  
                                                    l3319 0D2C  
                                                    l3351 0D24  
                                                    l3431 0328  
                                                    l3423 0311  
                                                    l3407 0711  
                                                    l3503 040E  
                                                    l3265 0F32  
                                                    l3257 0F27  
                                                    l2801 0C91  
                                                    l3089 079C  
                                                    l3177 0F9F  
                                                    l3185 0FAC  
                                                    l3169 0F92  
                                                    l3249 0D6B  
                                                    l3521 06F3  
                                                    l3513 06D3  
                                                    l3345 0D81  
                                                    l3337 0D79  
                                                    l3329 0D8B  
                                                    l3273 0D16  
                                                    l3281 0FD6  
                                                    l3353 0D25  
                                                    l3361 0D01  
                                                    l3433 033A  
                                                    l3425 0326  
                                                    l3409 0723  
                                                    l3505 0413  
                                                    l3601 00C8  
                                                    l3267 0F35  
                                                    l3259 0F28  
                                                    l2803 0DCB  
                                                    l2811 0DDE  
                                                    l3179 0FA2  
                                                    l3515 06DF  
                                                    l3347 0D84  
                                                    l3339 0D7C  
                                                    l3275 0D18  
                                                    l3291 0FE4  
                                                    l3283 0FDA  
                                                    l3355 0CFC  
                                                    l3371 0E5F  
                                                    l3363 0E52  
                                                    l3443 0346  
                                                    l3435 033F  
                                                    l3507 0419  
                                                    l3611 0149  
                                                    l3603 00EC  
                                                    l3269 0F3A  
                                                    l2805 0DD4  
                                                    l2813 0DE7  
                                                    l2821 0DFA  
                                                    l2901 0E17  
                                                    l3517 06E8  
                                                    l3509 06C9  
                                                    l3277 0D1A  
                                                    l3293 0FE6  
                                                    l3285 0FDD  
                                                    l3349 0D1F  
                                                    l3357 0CFF  
                                                    l3381 0691  
                                                    l3365 0E59  
                                                    l3461 03AC  
                                                    l3453 0372  
                                                    l3445 0363  
                                                    l3437 0345  
                                                    l3701 02C2  
                                                    l3621 01A9  
                                                    l3613 014F  
                                                    l3605 011B  
                                                    l2807 0DDC  
                                                    l2815 0DEF  
                                                    l2823 0E02  
                                                    l2831 0E15  
                                                    l2903 0E20  
                                                    l2911 0E33  
                                                    l3519 06F0  
                                                    l3279 0D1D  
                                                    l3295 0FE8  
                                                    l3287 0FDF  
                                                    l3359 0D00  
                                                    l3391 06B9  
                                                    l3383 0692  
                                                    l3471 03DC  
                                                    l3455 039A  
                                                    l3447 0368  
                                                    l3711 02CB  
                                                    l3703 02C5  
                                                    l3631 01C6  
                                                    l3623 01B3  
                                                    l3607 0138  
                                                    l3615 0154  
                                                    l3551 0025  
                                                    l2905 0E28  
                                                    l2913 0E3B  
                                                    l2921 0E4E  
                                                    l2841 0CD5  
                                                    l3297 0FEB  
                                                    l3289 0FE1  
                                                    l3393 06BC  
                                                    l3385 069C  
                                                    l3377 0E62  
                                                    l3481 0581  
                                                    l3473 03E2  
                                                    l3457 039F  
                                                    l3449 036E  
                                                    l3713 02D1  
                                                    l3705 02C7  
                                                    l3641 01D7  
                                                    l3633 01CB  
                                                    l3625 01BB  
                                                    l3617 0184  
                                                    l3609 0140  
                                                    l3721 02E9  
                                                    l3561 0067  
                                                    l3553 0045  
                                                    l2819 0DF1  
                                                    l2827 0E04  
                                                    l2835 0F06  
                                                    l3299 0FEC  
                                                    l3395 06C4  
                                                    l3387 06A8  
                                                    l3483 0596  
                                                    l3491 05B0  
                                                    l3475 0551  
                                                    l3467 03B1  
                                                    l3459 03A5  
                                                    l3723 02F6  
                                                    l3715 02D8  
                                                    l3707 02C8  
                                                    l3651 01EE  
                                                    l3643 01D8  
                                                    l3635 01D1  
                                                    l3627 01BF  
                                                    l3619 01A1  
                                                    l3571 00C3  
                                                    l3563 0074  
                                                    l3555 0052  
                                                    l2925 0DB8  
                                                    l2829 0E0D  
                                                    l2837 0F1E  
                                                    l2909 0E2A  
                                                    l2917 0E3D  
                                                    l2933 07E5  
                                                    l2845 0CD1  
                                                    l2941 0C9D  
                                                    l2853 0CA7  
                                                    l2861 0CB4  
                                                    l3389 06B1  
                                                    l3485 0598  
                                                    l3477 0554  
                                                    l3469 03D9  
                                                    l3493 03F7  
                                                    l3725 0302  
                                                    l3717 02DF  
                                                    l3709 02C9  
                                                    l3645 01DA  
                                                    l3637 01D4  
                                                    l3653 01F6  
                                                    l3629 01C0  
                                                    l3661 020A  
                                                    l3581 00C3  
                                                    l3573 00C3  
                                                    l3565 00C3  
                                                    l3557 0058  
                                                    l2791 0D97  
                                                    l2783 0FB1  
                                                    l2927 0DC1  
                                                    l2919 0E46  
                                                    l2935 07FD  
                                                    l2943 0C9F  
                                                    l2951 0D0F  
                                                    l2847 0CA2  
                                                    l2855 0CAA  
                                                    l2871 0CC0  
                                                    l3487 05A0  
                                                    l3479 0573  
                                                    l3399 06FC  
                                                    l3495 03FA  
                                                    l3719 02E7  
                                                    l3671 0271  
                                                    l3663 023A  
                                                    l3655 01FB  
                                                    l3647 01E0  
                                                    l3639 01D6  
                                                    l3591 00C8  
                                                    l3583 00C3  
                                                    l3575 00C3  
                                                    l3567 00C3  
                                                    l3559 0060  
                                                    l2793 0D9B  
                                                    l2785 0FB7  
                                                    l2929 0DC9  
                                                    l2865 0C87  
                                                    l2945 0CA0  
                                                    l2953 0D14  
                                                    l2961 0CFA  
                                                    l2849 0CA5  
                                                    l2873 0CC3  
                                                    l3489 05A8  
                                                    l3681 028F  
                                                    l3673 0276  
                                                    l3665 0257  
                                                    l3657 0202  
                                                    l3649 01E7  
                                                    l3593 00C8  
                                                    l3585 00C5  
                                                    l3577 00C3  
                                                    l3569 00C3  
                                                    l2939 0C72  
                                                    l2795 0DA3  
                                                    l2787 0FC8  
                                                    l2883 0C84  
                                                    l2891 0C8A  
                                                    l2859 0CB1  
                                                    l3691 02A1  
                                                    l3683 0291  
                                                    l3675 0280  
                                                    l3667 025F  
                                                    l3659 0206  
                                                    l3595 00C8  
                                                    l3587 00C6  
                                                    l3579 00C3  
                                                    l2797 0C7E  
                                                    l2789 0D5D  
                                                    l2893 0C70  
                                                    l2869 0C95  
                                                    l2949 0D0D  
                                                    l2957 0CF4  
                                                    l2973 05C4  
                                                    l2965 05B7  
                                                    l2885 0CAC  
                                                    l2877 0CBB  
                                                    l3693 02A8  
                                                    l3685 0292  
                                                    l3677 0286  
                                                    l3669 0269  
                                                    l3597 00C8  
                                                    l3589 00C7  
                                                    l2799 0C81  
                                                    l2959 0CF6  
                                                    l2991 060B  
                                                    l2983 05CC  
                                                    l2887 0CAF  
                                                    l2879 0CBE  
                                                    l3687 0294  
                                                    l3679 028C  
                                                    l3695 02B0  
                                                    l3599 00C8  
                                                    l2897 0002  
                                                    l2985 05F2  
                                                    l2977 05C8  
                                                    l2969 05C0  
                                                    l3697 02B7  
                                                    l3689 029A  
                                                    l2987 05FE  
                                                    l3699 02BC  
                                                    l2989 0609  
                                                    l2999 060D  
                                                    u1030 0CE0  
                                                    u1031 0CDF  
                                                    u1040 07C2  
                                                    u1120 0D47  
                                                    u1200 0E59  
                                                    u1041 07C1  
                                                    u1121 0D46  
                                                    u1105 0F4D  
                                                    u1201 0E58  
                                                    u1050 07CA  
                                                    u1130 0F98  
                                                    u1210 0E5F  
                                                    u1051 07C9  
                                                    u1131 0F97  
                                                    u1115 0F69  
                                                    u1211 0E5E  
                                                    u1140 0F9F  
                                                    u1220 069C  
                                                    u1300 0596  
                                                    u1141 0F9E  
                                                    u1221 069B  
                                                    u1301 0595  
                                                    u1070 0D41  
                                                    u1230 06C4  
                                                    u1310 05B6  
                                                    u1071 0D40  
                                                    u1231 06C3  
                                                    u1311 05B5  
                                                    u1160 0EEC  
                                                    u1240 072B  
                                                    u1320 0419  
                                                    u1400 0149  
                                                    u1161 0EEB  
                                                    u1241 072A  
                                                    u1321 0418  
                                                    u1401 0148  
                                                    u1170 065C  
                                                    u1330 06D3  
                                                    u1410 0184  
                                                    u1171 065B  
                                                    u1331 06D2  
                                                    u1411 0183  
                                                    u1180 0F27  
                                                    u1340 06FB  
                                                    u1260 0345  
                                                    u1500 0269  
                                                    u1420 01A9  
                                                    u1181 0F26  
                                                    u1341 06FA  
                                                    u1261 0344  
                                                    u1501 0268  
                                                    u1421 01A8  
                                                    _LATA 010C  
                                                    u1190 0D34  
                                                    u1270 036E  
                                                    u1510 0280  
                                                    u1430 01B3  
                                                    _LATB 010D  
                                                    u1191 0D33  
                                                    u1095 0F85  
                                                    u1271 036D  
                                                    u1511 027F  
                                                    u1431 01B2  
                                                    u1415 0180  
                                                    _LATC 010E  
                                                    u1280 03A5  
                                                    u1520 0286  
                                                    u1440 01C6  
                                                    u1281 03A4  
                                                    u1521 0285  
                                                    u1441 01C5  
                                                    u1290 03E2  
                                                    u1530 028C  
                                                    u1450 01CB  
                                                    u1370 0058  
                                                    u1291 03E1  
                                                    u1531 028B  
                                                    u1451 01CA  
                                                    u1371 0057  
                                                    u1540 02B7  
                                                    u1460 01D1  
                                                    u1380 011B  
                                                    u1541 02B6  
                                                    u1461 01D0  
                                                    u1381 011A  
                                                    u1550 02BC  
                                                    u1470 0202  
                                                    u1390 0140  
                                                    u1551 02BB  
                                                    u1471 0201  
                                                    u1391 013F  
                                                    u1560 02C2  
                                                    u1480 023A  
                                                    u1561 02C1  
                                                    u1481 0239  
                                                    u1385 0117  
                                                    u1490 025F  
                                                    u1491 025E  
                                                    u1485 0236  
                                                    u1867 0EDA  
                                                    i1l52 0ED4  
                                                    _PLLR 04D6  
                                                    _TMR2 001A  
                                                    _WPUA 020C  
                                                    _WPUB 020D  
                                                    _WPUC 020E  
                                 ??_wr2RegCompleteHandler 002A  
                                        ??_I2C1_MasterFsm 002D  
                        __size_of_I2C1_DO_RX_NACK_RESTART 0005  
                                    i1_DELAY_milliseconds 0E64  
                               ??_I2C1_CallbackReturnStop 002A  
                                                    _main 0025  
                                                    _part 006D  
                                                    fsr0h 0005  
                                                    fsr1h 0007  
                                                    indf0 0000  
                                                    fsr0l 0004  
                                                    indf1 0001  
                                                    fsr1l 0006  
                                                    btemp 007E  
                                                    start 0013  
                                        ??_I2C1_SetBuffer 0022  
                                   ??_EPWM1_LoadDutyValue 0022  
                        __size_of_rdBlkRegCompleteHandler 001A  
                           I2C1_CallbackReturnStop@funPtr 0029  
                          __size_of_OSCILLATOR_Initialize 000C  
                           __end_of_OSCILLATOR_Initialize 0D35  
                                     __size_of_IOCBF7_ISR 000E  
                                       __end_of_I2C1_Open 068F  
                                 ??i1_EPWM2_LoadDutyValue 0072  
                                                   ?_main 0070  
                          __size_ofi1_EPWM1_LoadDutyValue 0017  
                                                   _T2CON 001C  
                                             i1_lightsOff 0DA5  
                           __end_ofi1_EPWM1_LoadDutyValue 0EA7  
                                                   i1l133 078C  
                                                   i1l143 0550  
                                                   i1l216 0EA6  
                                                   i1l128 0DB7  
                                                   i1l173 0C90  
                                                   i1l319 0E79  
                                                   i1l273 0D5C  
                                                   i1l196 0EBD  
                                                   i1l269 0D0C  
                                                   i1l279 0C6F  
                                                   i1l873 0011  
                              __end_of_i2c1_fsmStateTable 1020  
                                      _PWM4_LoadDutyValue 0F74  
                                                   _TRISA 008C  
                                                   _TRISB 008D  
                                                   _TRISC 008E  
                                  ??_I2C1_MasterGetRxData 0020  
                                   ?_I2C1_DO_RX_NACK_STOP 0070  
                              ??_I2C1_CallbackReturnReset 002A  
                                       ??_I2C1_MasterOpen 0020  
                                       ??_I2C1_MasterStop 0020  
                                       ??_I2C1_Initialize 0020  
                                         __end_of_mathAbs 0E64  
                                 __end_of_PIN_MANAGER_IOC 0D0D  
                                          _WDT_Initialize 0C99  
                                     ?_PWM4_LoadDutyValue 0020  
                                                   _moves 0069  
                                                   _lumos 0551  
                                   ?i1_DELAY_milliseconds 0070  
                                                   pclath 000A  
                                                   status 0003  
                             __size_of_I2C1_MasterSendAck 0004  
                                                   wtemp0 007E  
                                            ??_I2C1_DO_RX 002A  
                                            ??_I2C1_DO_TX 002A  
                                  ??_I2C1_DO_ADDRESS_NACK 002A  
                                            ??_I2C1_Close 0020  
                                        __end_ofi1_sparks 0551  
                                             i1flashRED@i 0076  
                             __size_of_I2C1_MasterStartRx 0003  
                                         __initialization 0015  
                                            __end_of_main 0311  
                                    ??_PWM4_LoadDutyValue 0022  
                                 __end_of_PWM4_Initialize 0D29  
                                 __end_of_TMR2_Initialize 0D04  
                             ?_INTERRUPT_InterruptManager 0070  
                                  ??_I2C1_MasterOperation 0030  
                                                  ??_main 003B  
                                __size_of_ButtonInterrupt 0004  
                           __size_of_I2C1_DO_SEND_RESTART 0005  
                                             ?i1_flashRED 0070  
                                      __end_of_I2C1_DO_RX 0654  
                                      __end_of_I2C1_DO_TX 060D  
                                  __end_of_WDT_Initialize 0C9D  
                                      __end_of_I2C1_Close 0F3C  
                                 ?_I2C1_Read1ByteRegister 0033  
                                                  _CCP2AS 029C  
                                                  _CCPR1H 0292  
                                                  _CCPR2H 0299  
                                                  _CCPR1L 0291  
                                                  _CCPR4H 0319  
                                                  _CCPR2L 0298  
                                                  _CCPR4L 0318  
                                                  ?_lumos 0070  
                                                  _ANSELA 018C  
                                                  _ANSELB 018D  
                                                  _ANSELC 018E  
                                                  _BORCON 0116  
                                                  u100_25 0ECD  
                                                  u101_25 0EB6  
                                                  u102_25 0E9F  
                                                  i1l3113 0DA5  
                                                  i1l3201 04C5  
                                                  i1l3115 0E64  
                                                  i1l3131 075F  
                                                  i1l3203 04CB  
                                                  i1l3117 0E65  
                                                  i1l3141 0782  
                                                  i1l3133 076D  
                                                  i1l3119 0E6D  
                                                  i1l3143 0784  
                                                  i1l3215 0C8D  
                                                  i1l3145 0789  
                                                  i1l3139 0771  
                                                  i1l3095 0EBE  
                                                  i1l3191 04AF  
                                                  i1l3415 0D4F  
                                                  u106_20 0E79  
                                                  u106_21 0E78  
                                                  i1l3097 0EA7  
                                                  i1l3417 0D55  
                                                  i1l3099 0E90  
                                                  i1l3419 0D5A  
                                                  i1l3523 0D04  
                                                  i1l3197 04B0  
                                                  i1l3189 04AC  
                                                  i1l3525 0D09  
                                                  i1l3199 04C1  
                                                  u115_20 04CB  
                                                  u115_21 04CA  
                                                  u108_20 0789  
                                                  u108_21 0788  
                                                  i1l3933 0006  
                                                  i1l3935 000A  
                                                  u125_20 0D55  
                                                  u125_21 0D54  
                                                  i1l3937 000E  
                    __size_of_I2C1_SetAddressNackCallback 000E  
                                                  u135_20 0D09  
                                                  u135_21 0D08  
                                                  u184_20 000A  
                                                  u184_21 0009  
                                                  u185_20 000E  
                                                  u185_21 000D  
                                                  u187_27 0E68  
                                                  _OSCCON 0099  
                                                  _WDTCON 0097  
                                       ?_I2C1_MasterClose 0070  
                                 ??_I2C1_MasterDisableIrq 0020  
                                       ?_I2C1_MasterStart 0070  
                                       ?_I2C1_MasterWrite 0070  
                                ?_I2C1_MasterWaitForEvent 0070  
                                      ??_I2C1_MasterClose 0020  
                                        _I2C1_DO_TX_EMPTY 072F  
                                        __end_of_flashRED 072F  
                                      ??_I2C1_MasterStart 0020  
                                      ??_I2C1_MasterWrite 0033  
                                ?_I2C1_Write1ByteRegister 0033  
                            __size_of_I2C1_MasterClearIrq 0003  
                                                  _sparks 03F7  
                                ??_I2C1_DO_SEND_ADR_WRITE 0021  
                                       ?_I2C1_SetCallback 0020  
                                        __end_of_patronus 03F7  
                                               ??_mathAbs 0020  
                                  ??_I2C1_DO_RX_NACK_STOP 0020  
                                   _I2C1_DO_SEND_ADR_READ 0D0D  
                           ?_I2C1_SetDataCompleteCallback 0025  
                                      ??_I2C1_SetCallback 0023  
                          __end_of_I2C1_Read1ByteRegister 06C7  
                                         ?_WDT_Initialize 0070  
                                     _EPWM2_LoadDutyValue 0F58  
              IOCBF7_SetInterruptHandler@InterruptHandler 0020  
                                        ?_PIN_MANAGER_IOC 0070  
                            __size_of_I2C1_MasterSendNack 0004  
                                  ??i1_DELAY_milliseconds 0072  
                                 _I2C1_DO_RX_NACK_RESTART 0CC0  
                                            ??_IOCBF7_ISR 007A  
                                       _SYSTEM_Initialize 0EED  
                          I2C1_SetDataCompleteCallback@cb 0025  
                                 __end_of__initialization 0021  
                         I2C1_MasterOperation@returnValue 0032  
                                      ?_SYSTEM_Initialize 0070  
                                           ??_I2C1_Poller 0030  
                                 _rdBlkRegCompleteHandler 0F06  
                                       ?_EPWM1_Initialize 0070  
                                     __size_ofi1_flashRED 002E  
                                          __pcstackCOMMON 0070  
                                    ?_EPWM2_LoadDutyValue 0020  
                                            __pidataBANK0 07FF  
                                     ??_SYSTEM_Initialize 0022  
                        __end_of_I2C1_MasterEnableRestart 0C81  
                                      ??_EPWM1_Initialize 0020  
                                           __end_of_lumos 05B7  
                                        ?_TMR2_Initialize 0070  
                                        ?_PWM4_Initialize 0070  
                            ??_I2C1_DO_SEND_RESTART_WRITE 0020  
                                 ??_I2C1_MasterSendTxData 0020  
                             PWM4_LoadDutyValue@dutyValue 0020  
                                      __end_of_IOCBF7_ISR 0D5D  
                                          _OPTION_REGbits 0095  
                                               ?i1_sparks 0070  
                                   __end_of_I2C1_DO_RESET 0CCA  
                                       ?_EPWM2_Initialize 0070  
                             ?_IOCBF7_SetInterruptHandler 0020  
                                       ??_ButtonInterrupt 007A  
                               __end_of_SYSTEM_Initialize 0F06  
                                                 ??_lumos 0037  
                                      ??_EPWM2_Initialize 0020  
                                              __pbssBANK0 004C  
          rd2RegCompleteHandler@i2c_simple_master$F1301@p 0029  
                         __end_of_I2C1_MasterWaitForEvent 0CE1  
        rdBlkRegCompleteHandler@i2c_simple_master$F1313@p 0029  
          wr2RegCompleteHandler@i2c_simple_master$F1307@p 0029  
          wr1RegCompleteHandler@i2c_simple_master$F1283@p 0029  
          rd1RegCompleteHandler@i2c_simple_master$F1293@p 0029  
                          __size_of_rd2RegCompleteHandler 0013  
                           __end_of_rd2RegCompleteHandler 0DF1  
                                      _DELAY_milliseconds 0ED5  
                                    I2C1_Open@returnValue 0022  
                                              __pnvCOMMON 007A  
                          __size_of_wr2RegCompleteHandler 0013  
                           __end_of_wr2RegCompleteHandler 0E17  
                         __end_of_I2C1_Write1ByteRegister 06FC  
                                      __size_of_lightsOff 0016  
                                   _rd1RegCompleteHandler 0DCB  
                                 _IOCBF7_InterruptHandler 007A  
                                       _I2C1_DO_SEND_STOP 0CB1  
                                   _wr1RegCompleteHandler 0DF1  
                     __size_of_I2C1_DO_SEND_RESTART_WRITE 0005  
                                     ?_DELAY_milliseconds 0020  
                                              __pmaintext 0025  
                                   ??_EPWM2_LoadDutyValue 0022  
                                rd1RegCompleteHandler@ptr 0029  
                                      ?_I2C1_DO_SEND_STOP 0070  
                                         _I2C1_MasterOpen 0D42  
                                              __pintentry 0004  
                                         _I2C1_MasterStop 0C81  
                                         _I2C1_Initialize 0D16  
                                                 _CCP1CON 0293  
                                                 _CCP2CON 029A  
                                     __end_of_I2C1_Poller 0D42  
                                                 _CCP4CON 031A  
                                                 _ECCP1AS 0295  
                                 __size_of_I2C1_DO_RX_ACK 0005  
                                                 _APFCON0 011D  
                                                 _APFCON1 011E  
                                                 ?_sparks 0070  
                                  ?_I2C1_DO_SEND_ADR_READ 0070  
                                     ??_I2C1_DO_SEND_STOP 0020  
                                            ?i1_lightsOff 0070  
                          i1EPWM1_LoadDutyValue@dutyValue 0070  
                         __size_of_I2C1_DO_SEND_ADR_WRITE 0008  
                           __size_ofi1_PWM4_LoadDutyValue 0017  
                          __size_ofi1_EPWM2_LoadDutyValue 0017  
                           __end_ofi1_EPWM2_LoadDutyValue 0EBE  
                                       _I2C1_MasterIsNack 0CD5  
                                    ??_DELAY_milliseconds 0022  
                                               _I2C1_Open 0654  
                                              ??i1_sparks 0077  
                               ??_I2C1_DO_RX_NACK_RESTART 0020  
                                                 _OSCTUNE 0098  
                                                 _PWM1CON 0294  
                                                 _PWM2CON 029B  
                                       _I2C1_MasterSetIrq 0C8A  
                      __size_of_I2C1_DO_SEND_RESTART_READ 0005  
                                                 _SSP1ADD 0212  
                                                 _SSP1BUF 0211  
                                               ?_flashRED 0070  
                                      ?_I2C1_MasterIsNack 0070  
                              ?_I2C1_DO_SEND_RESTART_READ 0070  
                        ??_IOCBF7_DefaultInterruptHandler 0070  
                         ?_IOCBF7_DefaultInterruptHandler 0070  
                          ??_I2C1_SetDataCompleteCallback 0028  
                                      ?_I2C1_MasterSetIrq 0070  
                             __end_of_EPWM1_LoadDutyValue 0F58  
                                      _i2c1_fsmStateTable 1000  
                                     ??_I2C1_MasterIsNack 0020  
                               __end_of_I2C1_DO_SEND_STOP 0CB6  
                               ??_rdBlkRegCompleteHandler 002A  
                                      I2C1_SetCallback@cb 0020  
                                     ??_I2C1_MasterSetIrq 0020  
                                               ?_patronus 0070  
                                           ?_I2C1_DO_IDLE 0070  
                                           ?_I2C1_DO_RCEN 0070  
                                                 __ptext1 03F7  
                                                 __ptext2 06FC  
                                                 __ptext3 0E7A  
                                                 __ptext4 0311  
                                                 __ptext5 0551  
                                                 __ptext6 0E50  
                                                 __ptext7 0F74  
                                                 __ptext8 068F  
                                                 __ptext9 0F58  
                                _I2C1_MasterEnableRestart 0C7E  
                                         __size_of_sparks 00B5  
                               __end_of_I2C1_MasterIsNack 0CDB  
                            ?_I2C1_SetAddressNackCallback 0025  
                                                 _mathAbs 0E50  
                                   _OSCILLATOR_Initialize 0D29  
                                       __end_of_lightsOff 0E90  
                                               _T2CONbits 001C  
                               __end_of_I2C1_MasterSetIrq 0C8D  
                                __end_of_I2C1_DO_TX_EMPTY 075F  
                                            ??i1_flashRED 0074  
                                ??_PIN_MANAGER_Initialize 0022  
                                wr1RegCompleteHandler@ptr 0029  
                                               _IOCBFbits 0396  
                                              ?_I2C1_Open 0070  
                                   i1_EPWM1_LoadDutyValue 0E90  
                                               _IOCBNbits 0395  
                                               _IOCBPbits 0394  
                           __size_of_I2C1_MasterGetRxData 0003  
                                              ??_flashRED 0024  
                                ?_I2C1_CallbackReturnStop 0029  
                              __size_of_SYSTEM_Initialize 0019  
                                                 clrloop0 0CE8  
                        i1DELAY_milliseconds@milliseconds 0070  
                       __end_of_I2C1_DO_SEND_RESTART_READ 0CA7  
                                    end_of_initialization 0021  
                              __end_of_I2C1_MasterSendAck 0C99  
                                     _I2C1_MasterClearIrq 0C72  
                              __end_of_I2C1_MasterStartRx 0C87  
                                  ?_rd1RegCompleteHandler 0029  
                                  _I2C1_DO_SEND_ADR_WRITE 0CF4  
                            __end_of_I2C1_DO_SEND_RESTART 0CB1  
                                 __end_of_I2C1_MasterOpen 0D4F  
                                  ?_wr1RegCompleteHandler 0029  
                                 __end_of_I2C1_MasterStop 0C84  
                                 __end_of_I2C1_Initialize 0D1F  
                                              ??_patronus 0024  
                       __size_of_I2C1_CallbackReturnReset 0002  
                                             _I2C1_Poller 0D35  
                          __size_of_I2C1_MasterDisableIrq 0003  
                               ?_I2C1_CallbackReturnReset 0029  
                           __end_of_I2C1_MasterDisableIrq 0C7B  
                                             _I2C1_Status 004C  
                                                 lumos@on 003A  
                           __size_of_I2C1_DO_ADDRESS_NACK 002D  
                                                 sparks@i 0029  
                                      __end_ofi1_flashRED 078D  
                                 __size_of_I2C1_MasterFsm 002B  
                                     _I2C1_MasterSendNack 0C91  
                     __end_of_I2C1_SetAddressNackCallback 0D79  
                             _I2C1_SetAddressNackCallback 0D6B  
                             __size_of_PWM4_LoadDutyValue 001C  
                                    ?_I2C1_MasterClearIrq 0070  
                                          ??_I2C1_DO_IDLE 0020  
                                          ??_I2C1_DO_RCEN 0020  
                      __end_of_I2C1_DO_SEND_RESTART_WRITE 0CAC  
                              _I2C1_DO_SEND_RESTART_WRITE 0CA7  
                               __size_of_I2C1_MasterClose 0003  
                                        ??_WDT_Initialize 0020  
                                 __size_of_I2C1_SetBuffer 0010  
                         __end_of_rdBlkRegCompleteHandler 0F20  
                        __size_of_I2C1_MasterWaitForEvent 0006  
                               __size_of_I2C1_MasterStart 0003  
                               __size_of_I2C1_MasterWrite 0005  
                           __size_of_I2C1_MasterOperation 001F  
                           ??_I2C1_SetAddressNackCallback 0028  
                               I2C1_Read1ByteRegister@reg 0033  
                        __size_of_I2C1_Write1ByteRegister 0035  
                         I2C1_SetDataCompleteCallback@ptr 0027  
                             I2C1_Write1ByteRegister@data 0034  
                          I2C1_CallbackReturnReset@funPtr 0029  
                                    ?_I2C1_MasterSendNack 0070  
                                              main@data_x 0049  
                                              main@data_y 004A  
                                              main@data_z 004B  
                               __size_of_I2C1_SetCallback 0027  
                              rdBlkRegCompleteHandler@ptr 0029  
                              __size_of_I2C1_DO_SEND_STOP 0005  
                                   ??_I2C1_MasterClearIrq 0020  
                                          _I2C1_DO_RX_ACK 0CB6  
                                         _ButtonInterrupt 0C8D  
                                              mathAbs@num 0020  
                                  ?_OSCILLATOR_Initialize 0070  
                              __size_of_I2C1_MasterIsNack 0006  
                         __end_of_I2C1_CallbackReturnStop 0C72  
                                          __end_of_sparks 04AC  
                          __size_of_I2C1_MasterSendTxData 0006  
                                  ?i1_EPWM1_LoadDutyValue 0070  
                           __end_of_I2C1_MasterSendTxData 0CD5  
                              __size_of_I2C1_MasterSetIrq 0003  
                                     start_initialization 0015  
                               __size_of_EPWM1_Initialize 000E  
                                    __size_ofi1_lightsOff 0013  
                                             ??_I2C1_Open 0020  
                           __size_of_I2C1_DO_RX_NACK_STOP 0005  
                                               i1sparks@i 0079  
                         __size_of_PIN_MANAGER_Initialize 002A  
                                   ??_I2C1_MasterSendNack 0020  
                                       __size_ofi1_sparks 00A5  
                            EPWM1_LoadDutyValue@dutyValue 0020  
                           __size_ofi1_DELAY_milliseconds 0016  
                                I2C1_SetBuffer@bufferSize 0020  
                                __size_of_PIN_MANAGER_IOC 0009  
                                        ?_I2C1_MasterOpen 0070  
                                        ?_I2C1_MasterStop 0070  
                          I2C1_Write1ByteRegister@address 0036  
                                        ?_I2C1_Initialize 0070  
                               __size_of_EPWM2_Initialize 000E  
                                  __end_of_I2C1_DO_RX_ACK 0CBB  
                                             _CCPTMRSbits 029E  
                                 ??_I2C1_DO_SEND_ADR_READ 0020  
                                             __pdataBANK0 006D  
                                                ??_sparks 0027  
                                        I2C1_Open@address 0021  
                                    _I2C1_DO_SEND_RESTART 0CAC  
                                               ___latbits 0002  
                                           __pcstackBANK0 0020  
                                __size_of_PWM4_Initialize 000A  
                                __size_of_TMR2_Initialize 0008  
                             ??_I2C1_DO_SEND_RESTART_READ 0020  
                                       __size_of_flashRED 0033  
                                    __end_of_I2C1_DO_IDLE 0CA2  
                                    __end_of_I2C1_DO_RCEN 0CF4  
                             __end_of_EPWM2_LoadDutyValue 0F74  
                                     main@previous_data_x 0044  
                                     main@previous_data_y 0045  
                                     main@previous_data_z 0046  
                            __end_ofi1_PWM4_LoadDutyValue 0ED5  
                           I2C1_SetAddressNackCallback@cb 0025  
                                   _rd2RegCompleteHandler 0DDE  
                                  _PIN_MANAGER_Initialize 0FD6  
                                   _wr2RegCompleteHandler 0E04  
                                 __end_of_ButtonInterrupt 0C91  
                              ??_I2C1_MasterEnableRestart 0020  
                  __end_of_IOCBF7_DefaultInterruptHandler 0C70  
                 __size_of_IOCBF7_DefaultInterruptHandler 0001  
                          _IOCBF7_DefaultInterruptHandler 0C6F  
                                rd2RegCompleteHandler@ptr 0029  
                                          _I2C1_MasterFsm 07BA  
                                       __size_of_patronus 00E6  
                                  __size_of_I2C1_DO_RESET 0005  
                                         ?_I2C1_DO_RX_ACK 0070  
                           i1PWM4_LoadDutyValue@dutyValue 0070  
                                 _I2C1_MasterWaitForEvent 0CDB  
                                        _I2C1_MasterClose 0C75  
                                ??_I2C1_Read1ByteRegister 0034  
                                          _I2C1_SetBuffer 0D95  
                            ??_INTERRUPT_InterruptManager 007A  
                                        _I2C1_MasterStart 0C7B  
                                        _I2C1_MasterWrite 0CCA  
                                                ?_mathAbs 0070  
                                 _I2C1_Write1ByteRegister 06C7  
                                   ?_I2C1_DO_SEND_RESTART 0070  
                          i1EPWM2_LoadDutyValue@dutyValue 0070  
                                       ?_I2C1_DO_TX_EMPTY 0070  
                             __size_of_DELAY_milliseconds 0018  
                                   i1_EPWM2_LoadDutyValue 0EA7  
                        __end_of_I2C1_CallbackReturnReset 0004  
                                               _lightsOff 0E7A  
                                      ??_I2C1_DO_TX_EMPTY 002A  
                                 ??_rd1RegCompleteHandler 002A  
                                 ?_I2C1_DO_SEND_ADR_WRITE 0070  
                                          __size_of_lumos 0066  
                               I2C1_MasterSendTxData@data 0020  
                                 ??_wr1RegCompleteHandler 002A  
                                        _I2C1_SetCallback 0FAF  
                                              _I2C1_DO_RX 060D  
                                              _I2C1_DO_TX 05B7  
                                               clear_ram0 0CE7  
                                                _PIE1bits 0091  
                                              _I2C1_Close 0F20  
                                            ?_I2C1_Poller 0070  
                                  __end_of_I2C1_MasterFsm 07E5  
                     __size_of_INTERRUPT_InterruptManager 000F  
                            __end_of_I2C1_MasterGetRxData 0C8A  
                                                _PIR1bits 0011  
                        __size_of_I2C1_CallbackReturnStop 0002  
                                                _PIR2bits 0012  
                            __size_of_EPWM1_LoadDutyValue 001C  
                                      _I2C1_MasterSendAck 0C95  
                          DELAY_milliseconds@milliseconds 0020  
                               _I2C1_DO_SEND_RESTART_READ 0CA2  
                                                _SSP1CON1 0215  
                                                _SSP1CON2 0216  
                                                _PSTR1CON 0296  
                                                _PSTR2CON 029D  
                                  __end_of_I2C1_SetBuffer 0DA5  
                                                _SSP1STAT 0214  
                                               flashRED@i 0026  
                                       ??_PIN_MANAGER_IOC 007A  
                    __end_of_I2C1_SetDataCompleteCallback 0D6B  
                   __size_of_I2C1_SetDataCompleteCallback 000E  
                            _I2C1_SetDataCompleteCallback 0D5D  
                                      _I2C1_MasterStartRx 0C84  
                             ?_I2C1_DO_SEND_RESTART_WRITE 0070  
                              I2C1_Write1ByteRegister@reg 0033  
                                     ?_I2C1_MasterSendAck 0070  
                                ?_I2C1_DO_RX_NACK_RESTART 0070  
                                     ?_I2C1_MasterStartRx 0070  
                            __end_of_I2C1_DO_ADDRESS_NACK 07BA  
                                        _EPWM1_Initialize 0D79  
                                               main@timer 0048  
                                                i1_sparks 04AC  
                                wr2RegCompleteHandler@ptr 0029  
                          __end_of_I2C1_DO_SEND_ADR_WRITE 0CFC  
                                           _I2C1_DO_RESET 0CC5  
                                              ?_lightsOff 0070  
                                   I2C1_Close@returnValue 0021  
                                ?_rdBlkRegCompleteHandler 0029  
                                     I2C1_SetCallback@idx 0024  
                                     I2C1_SetCallback@ptr 0022  
                                    ??_I2C1_MasterSendAck 0020  
                                       ??_TMR2_Initialize 0020  
                                       ??_PWM4_Initialize 0020  
                                  ?_rd2RegCompleteHandler 0029  
                            __end_of_I2C1_MasterOperation 0FAF  
                                  ?_wr2RegCompleteHandler 0029  
                                    ??_I2C1_MasterStartRx 0020  
                                         ?_I2C1_MasterFsm 0070  
                                        _EPWM2_Initialize 0D87  
                              __end_of_PWM4_LoadDutyValue 0F90  
                                        ?_ButtonInterrupt 0070  
                               ??_I2C1_MasterWaitForEvent 0020  
                                   _I2C1_MasterDisableIrq 0C78  
                                 ??_OSCILLATOR_Initialize 0020  
                                         ?_I2C1_SetBuffer 0020  
                                 ??i1_EPWM1_LoadDutyValue 0072  
                               ??_I2C1_Write1ByteRegister 0035  
                         __size_of_I2C1_Read1ByteRegister 0038  
                       I2C1_Read1ByteRegister@returnValue 0036  
                                  ??_I2C1_DO_SEND_RESTART 0020  
                                    i1_PWM4_LoadDutyValue 0EBE  
                                        __size_of_mathAbs 0014  
                                  ?i1_EPWM2_LoadDutyValue 0070  
                                           lumos@previous 0039  
                                          ?_I2C1_DO_RESET 0070  
                                   __size_of_I2C1_DO_IDLE 0005  
                                   __size_of_I2C1_DO_RCEN 0007  
                                                __ptext10 0F3C  
                                                __ptext11 0ED5  
                                                __ptext20 0D87  
                                                __ptext12 0EED  
                                                __ptext21 0D79  
                                                __ptext13 0C99  
                                                __ptext30 07BA  
                                                __ptext22 06C7  
                                                __ptext14 0CFC  
                                                __ptext31 078D  
                                                __ptext23 0D6B  
                                                __ptext15 0D1F  
                                                __ptext40 0CED  
                                                __ptext32 0CC5  
                                                __ptext24 0654  
                                                __ptext16 0FD6  
                                                __ptext41 060D  
                                                __ptext33 0CC0  
                                                __ptext25 0D42  
                                                __ptext17 0CE1  
                                                __ptext50 0C95  
                                                __ptext42 05B7  
                                                __ptext34 0CBB  
                                                __ptext26 0CCA  
                                                __ptext18 0D29  
                                                __ptext51 0C87  
                                                __ptext43 0CF4  
                                                __ptext35 0CB6  
                                                __ptext27 0F90  
                                                __ptext19 0D16  
                                                __ptext60 0F06  
                                                __ptext52 0C91  
                                                __ptext44 0D0D  
                                                __ptext36 0CB1  
                                                __ptext28 0D35  
                                                __ptext61 0E04  
                                                __ptext53 0C84  
                                                __ptext45 0C9D  
                                                __ptext37 0CAC  
                                                __ptext29 0CDB  
                                                __ptext70 0C7E  
                                                __ptext62 0DF1  
                                                __ptext54 07E5  
                                                __ptext46 072F  
                                                __ptext38 0CA7  
                                                __ptext71 0C7B  
                                                __ptext63 0DDE  
                                                __ptext55 0E3D  
                                                __ptext47 0C8A  
                                                __ptext39 0CA2  
                                                __ptext80 0C6F  
                                                __ptext72 0F20  
                                                __ptext64 0DCB  
                                                __ptext56 0E2A  
                                                __ptext48 0CD5  
                                                __ptext81 04AC  
                                                __ptext73 0C78  
                                                __ptext65 0DB8  
                                                __ptext57 0E17  
                                                __ptext49 0CCF  
                                                __ptext82 075F  
                                                __ptext74 0C75  
                                                __ptext66 0D5D  
                                                __ptext58 0002  
                                                __ptext83 0DA5  
                                                __ptext75 0C72  
                                                __ptext67 0FAF  
                                                __ptext59 0C70  
                                                __ptext84 0EBE  
                                                __ptext68 0D95  
                                                __ptext85 0EA7  
                                                __ptext77 0D04  
                                                __ptext69 0C81  
                                                __ptext86 0E90  
                                                __ptext78 0D4F  
                                                __ptext87 0E64  
                                                __ptext79 0C8D  
                                                _flashRED 06FC  
                                            _SSP1CON1bits 0215  
                                            _SSP1CON2bits 0216  
                                               patronus@i 0026  
                            ??_IOCBF7_SetInterruptHandler 0022  
                                              _IOCBF7_ISR 0D4F  
                                _I2C1_CallbackReturnReset 0002  
                                           __size_of_main 02EC  
                                             ?_I2C1_DO_RX 0070  
                                             ?_I2C1_DO_TX 0070  
                             __end_of_I2C1_MasterClearIrq 0C75  
                            __end_of_I2C1_DO_RX_NACK_STOP 0CC0  
                                             ?_I2C1_Close 0070  
                                                _patronus 0311  
                                                int$flags 007E  
                         __end_of_I2C1_DO_RX_NACK_RESTART 0CC5  
                                I2C1_MasterOperation@read 0031  
                            __end_ofi1_DELAY_milliseconds 0E7A  
                      __end_of_INTERRUPT_InterruptManager 0013  
                              _INTERRUPT_InterruptManager 0004  
                                                main@data 0047  
                                            _SSP1STATbits 0214  
                          __size_of_I2C1_DO_SEND_ADR_READ 0009  
                           __end_of_I2C1_DO_SEND_ADR_READ 0D16  
                                            _I2C1_DO_IDLE 0C9D  
                                            _I2C1_DO_RCEN 0CED  
   __end_of_rd2RegCompleteHandler@i2c_simple_master$F1301 0E50  
  __size_of_rd2RegCompleteHandler@i2c_simple_master$F1301 0013  
         ??_rd2RegCompleteHandler@i2c_simple_master$F1301 002A  
          ?_rd2RegCompleteHandler@i2c_simple_master$F1301 0029  
           _rd2RegCompleteHandler@i2c_simple_master$F1301 0E3D  
 __end_of_rdBlkRegCompleteHandler@i2c_simple_master$F1313 07FF  
__size_of_rdBlkRegCompleteHandler@i2c_simple_master$F1313 001A  
       ??_rdBlkRegCompleteHandler@i2c_simple_master$F1313 002A  
        ?_rdBlkRegCompleteHandler@i2c_simple_master$F1313 0029  
         _rdBlkRegCompleteHandler@i2c_simple_master$F1313 07E5  
   __end_of_wr2RegCompleteHandler@i2c_simple_master$F1307 0DCB  
  __size_of_wr2RegCompleteHandler@i2c_simple_master$F1307 0013  
         ??_wr2RegCompleteHandler@i2c_simple_master$F1307 002A  
          ?_wr2RegCompleteHandler@i2c_simple_master$F1307 0029  
           _wr2RegCompleteHandler@i2c_simple_master$F1307 0DB8  
   __end_of_wr1RegCompleteHandler@i2c_simple_master$F1283 0E2A  
  __size_of_wr1RegCompleteHandler@i2c_simple_master$F1283 0013  
         ??_wr1RegCompleteHandler@i2c_simple_master$F1283 002A  
          ?_wr1RegCompleteHandler@i2c_simple_master$F1283 0029  
           _wr1RegCompleteHandler@i2c_simple_master$F1283 0E17  
   __end_of_rd1RegCompleteHandler@i2c_simple_master$F1293 0E3D  
  __size_of_rd1RegCompleteHandler@i2c_simple_master$F1293 0013  
         ??_rd1RegCompleteHandler@i2c_simple_master$F1293 002A  
          ?_rd1RegCompleteHandler@i2c_simple_master$F1293 0029  
           _rd1RegCompleteHandler@i2c_simple_master$F1293 0E2A  
                                           ??i1_lightsOff 0074  
                     __size_of_IOCBF7_SetInterruptHandler 0006  
                                   ?i1_PWM4_LoadDutyValue 0070  
                             __end_of_I2C1_MasterSendNack 0C95  
                                              _INTCONbits 000B  
                          I2C1_SetAddressNackCallback@ptr 0027  
                                    _I2C1_MasterGetRxData 0C87  
                                   _I2C1_MasterSendTxData 0CCF  
                                             ??_lightsOff 0024  
                                 __size_of_WDT_Initialize 0004  
                                                intlevel1 0000  
                                __end_of_I2C1_MasterClose 0C78  
                                  _I2C1_Read1ByteRegister 068F  
                            EPWM2_LoadDutyValue@dutyValue 0020  
                                 ?_PIN_MANAGER_Initialize 0070  
                           I2C1_Read1ByteRegister@address 0035  
                                __end_of_I2C1_MasterStart 0C7E  
                                __end_of_I2C1_MasterWrite 0CCF  
                                        ??_I2C1_DO_RX_ACK 0020  
                                 _I2C1_CallbackReturnStop 0C70  
                                    _I2C1_DO_ADDRESS_NACK 078D  
                                  ?_I2C1_MasterDisableIrq 0070  
                                    __size_of_I2C1_Poller 000D  
                                __size_of_I2C1_MasterOpen 000D  
                                __size_of_I2C1_MasterStop 0003  
                                __size_of_I2C1_Initialize 0009  
                                           __pstringtext1 1000  
                                __end_of_I2C1_SetCallback 0FD6  
                                     __size_of_I2C1_DO_RX 0047  
                                     __size_of_I2C1_DO_TX 0056  
                                         ??_I2C1_DO_RESET 0020  
                                    _I2C1_MasterOperation 0F90  
                                     __size_of_I2C1_Close 001C  
                                   ?_I2C1_MasterGetRxData 0070  
                                     _EPWM1_LoadDutyValue 0F3C  
                                     __end_ofi1_lightsOff 0DB8  
                                             ?_IOCBF7_ISR 0070  
                          __end_of_PIN_MANAGER_Initialize 1000  
                          __size_of_rd1RegCompleteHandler 0013  
                           __end_of_rd1RegCompleteHandler 0DDE  
                                      __size_of_I2C1_Open 003B  
                                         _PIN_MANAGER_IOC 0D04  
                          __size_of_wr1RegCompleteHandler 0013  
                           __end_of_wr1RegCompleteHandler 0E04  
                               __size_of_I2C1_DO_TX_EMPTY 0030  
                                   ?_I2C1_DO_ADDRESS_NACK 0070  
                                __end_of_EPWM1_Initialize 0D87  
                                    ?_EPWM1_LoadDutyValue 0020  
