Microchip MPLAB XC8 Compiler V2.32

Linker command line:

-W-3 --edf=C:\Program Files\Microchip\xc8\v2.32\pic\dat\en_msgs.txt -cn \
  -h+dist/default/production\Software.production.sym \
  --cmf=dist/default/production\Software.production.cmf -z -Q16LF1829 \
  -oC:\Users\rober\AppData\Local\Temp\xcAst4s.4 --defsym=__MPLAB_BUILD=1 \
  -Mdist/default/production/Software.production.map -E1 -ver=XC8 Compiler \
  --acfsm=1493 -ASTACK=0204Eh-023EFh -pstack=STACK -ACODE=00h-07FFhx4 \
  -ASTRCODE=00h-01FFFh -ASTRING=00h-0FFhx32 -ACONST=00h-0FFhx32 \
  -AENTRY=00h-0FFhx32 -ACOMMON=070h-07Fh -ABANK0=020h-06Fh \
  -ABANK1=0A0h-0EFh -ABANK2=0120h-016Fh -ABANK3=01A0h-01EFh \
  -ABANK4=0220h-026Fh -ABANK5=02A0h-02EFh -ABANK6=0320h-036Fh \
  -ABANK7=03A0h-03EFh -ABANK8=0420h-046Fh -ABANK9=04A0h-04EFh \
  -ABANK10=0520h-056Fh -ABANK11=05A0h-05EFh -ABANK12=0620h-064Fh \
  -ABIGRAM=02000h-023EFh \
  -ARAM=020h-06Fh,0A0h-0EFh,0120h-016Fh,01A0h-01EFh,0220h-026Fh,02A0h-02EFh,0320h-036Fh,03A0h-03EFh,0420h-046Fh,04A0h-04EFh,0520h-056Fh,05A0h-05EFh,0620h-064Fh \
  -AABS1=020h-07Fh,0A0h-0EFh,0120h-016Fh,01A0h-01EFh,0220h-026Fh,02A0h-02EFh,0320h-036Fh,03A0h-03EFh,0420h-046Fh,04A0h-04EFh,0520h-056Fh,05A0h-05EFh,0620h-064Fh \
  -ASFR0=00h-01Fh -ASFR1=080h-09Fh -ASFR2=0100h-011Fh -ASFR3=0180h-019Fh \
  -ASFR4=0200h-021Fh -ASFR5=0280h-029Fh -ASFR6=0300h-031Fh \
  -ASFR7=0380h-039Fh -ASFR8=0400h-041Fh -ASFR9=0480h-049Fh \
  -ASFR10=0500h-051Fh -ASFR11=0580h-059Fh -ASFR12=0600h-061Fh \
  -ASFR13=0680h-06EFh -ASFR14=0700h-076Fh -ASFR15=0780h-07EFh \
  -ASFR16=0800h-086Fh -ASFR17=0880h-08EFh -ASFR18=0900h-096Fh \
  -ASFR19=0980h-09EFh -ASFR20=0A00h-0A6Fh -ASFR21=0A80h-0AEFh \
  -ASFR22=0B00h-0B6Fh -ASFR23=0B80h-0BEFh -ASFR24=0C00h-0C6Fh \
  -ASFR25=0C80h-0CEFh -ASFR26=0D00h-0D6Fh -ASFR27=0D80h-0DEFh \
  -ASFR28=0E00h-0E6Fh -ASFR29=0E80h-0EEFh -ASFR30=0F00h-0F6Fh \
  -ASFR31=0F80h-0FEFh -ACONFIG=08007h-08008h -DCONFIG=2 \
  -AIDLOC=08000h-08003h -DIDLOC=2 -AEEDATA=00h-0FFh/0F000h \
  -peeprom_data=EEDATA -DEEDATA=2 -DCODE=2 -DSTRCODE=2 -DSTRING=2 -DCONST=2 \
  -DENTRY=2 -preset_vec=00h,intentry=04h,init,end_init -ppowerup=CODE \
  -pcinit=CODE -pfunctab=ENTRY -k \
  C:\Users\rober\AppData\Local\Temp\xcAst4s.o \
  dist/default/production\Software.production.o 

Object code version is 3.11

Machine type is 16LF1829



                Name                               Link     Load   Length Selector   Space Scale
C:\Users\rober\AppData\Local\Temp\xcAst4s.o
                end_init                             13       13        2        8       0
                reset_vec                             0        0        2        0       0
                config                             8007     8007        2        0       4
dist/default/production\Software.production.o
                cinit                                15       15       10        8       0
                intentry                              4        4        F        8       0
                config                             8007     8007        2        0       4
                text87                              E64      E64       16     1CC8       0
                text86                              E90      E90       17     1D20       0
                text85                              EA7      EA7       17     1D4E       0
                text84                              EBE      EBE       17     1D7C       0
                text83                              DA5      DA5       13     1B4A       0
                text82                              75F      75F       2E        8       0
                text81                              4AC      4AC       A5        8       0
                text80                              C6F      C6F        1     18DE       0
                text79                              C8D      C8D        4     191A       0
                text78                              D4F      D4F        E     1A9E       0
                text77                              D04      D04        9     1A08       0
                text75                              C72      C72        3     18E4       0
                text74                              C75      C75        3     18EA       0
                text73                              C78      C78        3     18F0       0
                text72                              F20      F20       1C     1E40       0
                text71                              C7B      C7B        3     18F6       0
                text70                              C7E      C7E        3     18FC       0
                text69                              C81      C81        3     1902       0
                text68                              D95      D95       10     1B2A       0
                text67                              FAF      FAF       27     1F5E       0
                text66                              D5D      D5D        E     1ABA       0
                text65                              DB8      DB8       13     1B70       0
                text64                              DCB      DCB       13     1B96       0
                text63                              DDE      DDE       13     1BBC       0
                text62                              DF1      DF1       13     1BE2       0
                text61                              E04      E04       13     1C08       0
                text60                              F06      F06       1A     1E0C       0
                text59                              C70      C70        2     18E0       0
                text58                                2        2        2        0       0
                text57                              E17      E17       13     1C2E       0
                text56                              E2A      E2A       13     1C54       0
                text55                              E3D      E3D       13     1C7A       0
                text54                              7E5      7E5       1A        8       0
                text53                              C84      C84        3     1908       0
                text52                              C91      C91        4     1922       0
                text51                              C87      C87        3     190E       0
                text50                              C95      C95        4     192A       0
                text49                              CCF      CCF        6     199E       0
                text48                              CD5      CD5        6     19AA       0
                text47                              C8A      C8A        3     1914       0
                text46                              72F      72F       30        8       0
                text45                              C9D      C9D        5     193A       0
                text44                              D0D      D0D        9     1A1A       0
                text43                              CF4      CF4        8     19E8       0
                text42                              5B7      5B7       56        8       0
                text41                              60D      60D       47        8       0
                text40                              CED      CED        7     19DA       0
                text39                              CA2      CA2        5     1944       0
                text38                              CA7      CA7        5     194E       0
                text37                              CAC      CAC        5     1958       0
                text36                              CB1      CB1        5     1962       0
                text35                              CB6      CB6        5     196C       0
                text34                              CBB      CBB        5     1976       0
                text33                              CC0      CC0        5     1980       0
                text32                              CC5      CC5        5     198A       0
                text31                              78D      78D       2D        8       0
                text30                              7BA      7BA       2B        8       0
                text29                              CDB      CDB        6     19B6       0
                text28                              D35      D35        D     1A6A       0
                text27                              F90      F90       1F     1F20       0
                text26                              CCA      CCA        5     1994       0
                text25                              D42      D42        D     1A84       0
                text24                              654      654       3B        8       0
                text23                              D6B      D6B        E     1AD6       0
                text22                              6C7      6C7       35        8       0
                text21                              D79      D79        E     1AF2       0
                text20                              D87      D87        E     1B0E       0
                text19                              D16      D16        9     1A2C       0
                text18                              D29      D29        C     1A52       0
                text17                              CE1      CE1        6     19C2       0
                text16                              FD6      FD6       2A     1FAC       0
                text15                              D1F      D1F        A     1A3E       0
                text14                              CFC      CFC        8     19F8       0
                text13                              C99      C99        4     1932       0
                text12                              EED      EED       19     1DDA       0
                text11                              ED5      ED5       18     1DAA       0
                text10                              F3C      F3C       1C     1E78       0
                text9                               F58      F58       1C     1EB0       0
                text8                               68F      68F       38        8       0
                text7                               F74      F74       1C     1EE8       0
                text6                               E50      E50       14     1CA0       0
                text5                               551      551       66        8       0
                text4                               311      311       E6        8       0
                text3                               E7A      E7A       16     1CF4       0
                text2                               6FC      6FC       33        8       0
                text1                               3F7      3F7       B5        8       0
                maintext                             25       25      2EC        8       0
                cstackBANK0                          20       20       2C       20       1
                cstackCOMMON                         70       70        A       70       1
                clrtext                             CE7      CE7        6     19CE       0
                dataBANK0                            6D       6D        1       20       1
                bssBANK0                             4C       4C       21       20       1
                nvCOMMON                             7A       7A        2       70       1
                stringtext1                        1000     1000       20     2000       0
                idataBANK0                          7FF      7FF        1        8       0

TOTAL           Name                               Link     Load   Length     Space
        CLASS   STACK          

        CLASS   CODE           
                end_init                             13       13        2         0
                cinit                                15       15       10         0
                intentry                              4        4        F         0
                reset_vec                             0        0        2         0
                text87                              E64      E64       16         0
                text86                              E90      E90       17         0
                text85                              EA7      EA7       17         0
                text84                              EBE      EBE       17         0
                text83                              DA5      DA5       13         0
                text82                              75F      75F       2E         0
                text81                              4AC      4AC       A5         0
                text80                              C6F      C6F        1         0
                text79                              C8D      C8D        4         0
                text78                              D4F      D4F        E         0
                text77                              D04      D04        9         0
                text75                              C72      C72        3         0
                text74                              C75      C75        3         0
                text73                              C78      C78        3         0
                text72                              F20      F20       1C         0
                text71                              C7B      C7B        3         0
                text70                              C7E      C7E        3         0
                text69                              C81      C81        3         0
                text68                              D95      D95       10         0
                text67                              FAF      FAF       27         0
                text66                              D5D      D5D        E         0
                text65                              DB8      DB8       13         0
                text64                              DCB      DCB       13         0
                text63                              DDE      DDE       13         0
                text62                              DF1      DF1       13         0
                text61                              E04      E04       13         0
                text60                              F06      F06       1A         0
                text59                              C70      C70        2         0
                text58                                2        2        2         0
                text57                              E17      E17       13         0
                text56                              E2A      E2A       13         0
                text55                              E3D      E3D       13         0
                text54                              7E5      7E5       1A         0
                text53                              C84      C84        3         0
                text52                              C91      C91        4         0
                text51                              C87      C87        3         0
                text50                              C95      C95        4         0
                text49                              CCF      CCF        6         0
                text48                              CD5      CD5        6         0
                text47                              C8A      C8A        3         0
                text46                              72F      72F       30         0
                text45                              C9D      C9D        5         0
                text44                              D0D      D0D        9         0
                text43                              CF4      CF4        8         0
                text42                              5B7      5B7       56         0
                text41                              60D      60D       47         0
                text40                              CED      CED        7         0
                text39                              CA2      CA2        5         0
                text38                              CA7      CA7        5         0
                text37                              CAC      CAC        5         0
                text36                              CB1      CB1        5         0
                text35                              CB6      CB6        5         0
                text34                              CBB      CBB        5         0
                text33                              CC0      CC0        5         0
                text32                              CC5      CC5        5         0
                text31                              78D      78D       2D         0
                text30                              7BA      7BA       2B         0
                text29                              CDB      CDB        6         0
                text28                              D35      D35        D         0
                text27                              F90      F90       1F         0
                text26                              CCA      CCA        5         0
                text25                              D42      D42        D         0
                text24                              654      654       3B         0
                text23                              D6B      D6B        E         0
                text22                              6C7      6C7       35         0
                text21                              D79      D79        E         0
                text20                              D87      D87        E         0
                text19                              D16      D16        9         0
                text18                              D29      D29        C         0
                text17                              CE1      CE1        6         0
                text16                              FD6      FD6       2A         0
                text15                              D1F      D1F        A         0
                text14                              CFC      CFC        8         0
                text13                              C99      C99        4         0
                text12                              EED      EED       19         0
                text11                              ED5      ED5       18         0
                text10                              F3C      F3C       1C         0
                text9                               F58      F58       1C         0
                text8                               68F      68F       38         0
                text7                               F74      F74       1C         0
                text6                               E50      E50       14         0
                text5                               551      551       66         0
                text4                               311      311       E6         0
                text3                               E7A      E7A       16         0
                text2                               6FC      6FC       33         0
                text1                               3F7      3F7       B5         0
                maintext                             25       25      2EC         0
                clrtext                             CE7      CE7        6         0
                idataBANK0                          7FF      7FF        1         0

        CLASS   STRCODE        
                stringtext1                        1000     1000       20         0

        CLASS   STRING         

        CLASS   CONST          

        CLASS   ENTRY          

        CLASS   COMMON         
                cstackCOMMON                         70       70        A         1
                nvCOMMON                             7A       7A        2         1

        CLASS   BANK0          
                cstackBANK0                          20       20       2C         1
                dataBANK0                            6D       6D        1         1
                bssBANK0                             4C       4C       21         1

        CLASS   BANK1          

        CLASS   BANK2          

        CLASS   BANK3          

        CLASS   BANK4          

        CLASS   BANK5          

        CLASS   BANK6          

        CLASS   BANK7          

        CLASS   BANK8          

        CLASS   BANK9          

        CLASS   BANK10         

        CLASS   BANK11         

        CLASS   BANK12         

        CLASS   BIGRAM         

        CLASS   RAM            

        CLASS   ABS1           
                abs_s1                               7E       7E        2         1

        CLASS   SFR0           

        CLASS   SFR1           

        CLASS   SFR2           

        CLASS   SFR3           

        CLASS   SFR4           

        CLASS   SFR5           

        CLASS   SFR6           

        CLASS   SFR7           

        CLASS   SFR8           

        CLASS   SFR9           

        CLASS   SFR10          

        CLASS   SFR11          

        CLASS   SFR12          

        CLASS   SFR13          

        CLASS   SFR14          

        CLASS   SFR15          

        CLASS   SFR16          

        CLASS   SFR17          

        CLASS   SFR18          

        CLASS   SFR19          

        CLASS   SFR20          

        CLASS   SFR21          

        CLASS   SFR22          

        CLASS   SFR23          

        CLASS   SFR24          

        CLASS   SFR25          

        CLASS   SFR26          

        CLASS   SFR27          

        CLASS   SFR28          

        CLASS   SFR29          

        CLASS   SFR30          

        CLASS   SFR31          

        CLASS   CONFIG         
                config                             8007     8007        2         4

        CLASS   IDLOC          

        CLASS   EEDATA         

        CLASS   BANK31         

        CLASS   BANK30         

        CLASS   BANK29         

        CLASS   BANK28         

        CLASS   BANK27         

        CLASS   BANK26         

        CLASS   BANK25         

        CLASS   BANK24         

        CLASS   BANK23         

        CLASS   BANK22         

        CLASS   BANK21         

        CLASS   BANK20         

        CLASS   BANK19         

        CLASS   BANK18         

        CLASS   BANK17         

        CLASS   BANK16         

        CLASS   BANK15         

        CLASS   BANK14         

        CLASS   BANK13         



SEGMENTS        Name                           Load    Length   Top    Selector   Space  Class     Delta

                reset_vec                      000000  000004  000004         0       0  CODE        2
                intentry                       000004  0007FC  000800         8       0  CODE        2
                cstackBANK0                    000020  00004E  00006E        20       1  BANK0       1
                cstackCOMMON                   000070  00000C  00007C        70       1  COMMON      1
                text80                         000C6F  000001  000C70      18DE       0  CODE        2
                text59                         000C70  000002  000C72      18E0       0  CODE        2
                text75                         000C72  000003  000C75      18E4       0  CODE        2
                text74                         000C75  000003  000C78      18EA       0  CODE        2
                text73                         000C78  000003  000C7B      18F0       0  CODE        2
                text71                         000C7B  000003  000C7E      18F6       0  CODE        2
                text70                         000C7E  000003  000C81      18FC       0  CODE        2
                text69                         000C81  000003  000C84      1902       0  CODE        2
                text53                         000C84  000003  000C87      1908       0  CODE        2
                text51                         000C87  000003  000C8A      190E       0  CODE        2
                text47                         000C8A  000003  000C8D      1914       0  CODE        2
                text79                         000C8D  000004  000C91      191A       0  CODE        2
                text52                         000C91  000004  000C95      1922       0  CODE        2
                text50                         000C95  000004  000C99      192A       0  CODE        2
                text13                         000C99  000004  000C9D      1932       0  CODE        2
                text45                         000C9D  000005  000CA2      193A       0  CODE        2
                text39                         000CA2  000005  000CA7      1944       0  CODE        2
                text38                         000CA7  000005  000CAC      194E       0  CODE        2
                text37                         000CAC  000005  000CB1      1958       0  CODE        2
                text36                         000CB1  000005  000CB6      1962       0  CODE        2
                text35                         000CB6  000005  000CBB      196C       0  CODE        2
                text34                         000CBB  000005  000CC0      1976       0  CODE        2
                text33                         000CC0  000005  000CC5      1980       0  CODE        2
                text32                         000CC5  000005  000CCA      198A       0  CODE        2
                text26                         000CCA  000005  000CCF      1994       0  CODE        2
                text49                         000CCF  000006  000CD5      199E       0  CODE        2
                text48                         000CD5  000006  000CDB      19AA       0  CODE        2
                text29                         000CDB  000006  000CE1      19B6       0  CODE        2
                text17                         000CE1  000006  000CE7      19C2       0  CODE        2
                clrtext                        000CE7  000006  000CED      19CE       0  CODE        2
                text40                         000CED  000007  000CF4      19DA       0  CODE        2
                text43                         000CF4  000008  000CFC      19E8       0  CODE        2
                text14                         000CFC  000008  000D04      19F8       0  CODE        2
                text77                         000D04  000009  000D0D      1A08       0  CODE        2
                text44                         000D0D  000009  000D16      1A1A       0  CODE        2
                text19                         000D16  000009  000D1F      1A2C       0  CODE        2
                text15                         000D1F  00000A  000D29      1A3E       0  CODE        2
                text18                         000D29  00000C  000D35      1A52       0  CODE        2
                text28                         000D35  00000D  000D42      1A6A       0  CODE        2
                text25                         000D42  00000D  000D4F      1A84       0  CODE        2
                text78                         000D4F  00000E  000D5D      1A9E       0  CODE        2
                text66                         000D5D  00000E  000D6B      1ABA       0  CODE        2
                text23                         000D6B  00000E  000D79      1AD6       0  CODE        2
                text21                         000D79  00000E  000D87      1AF2       0  CODE        2
                text20                         000D87  00000E  000D95      1B0E       0  CODE        2
                text68                         000D95  000010  000DA5      1B2A       0  CODE        2
                text83                         000DA5  000013  000DB8      1B4A       0  CODE        2
                text65                         000DB8  000013  000DCB      1B70       0  CODE        2
                text64                         000DCB  000013  000DDE      1B96       0  CODE        2
                text63                         000DDE  000013  000DF1      1BBC       0  CODE        2
                text62                         000DF1  000013  000E04      1BE2       0  CODE        2
                text61                         000E04  000013  000E17      1C08       0  CODE        2
                text57                         000E17  000013  000E2A      1C2E       0  CODE        2
                text56                         000E2A  000013  000E3D      1C54       0  CODE        2
                text55                         000E3D  000013  000E50      1C7A       0  CODE        2
                text6                          000E50  000014  000E64      1CA0       0  CODE        2
                text87                         000E64  000016  000E7A      1CC8       0  CODE        2
                text3                          000E7A  000016  000E90      1CF4       0  CODE        2
                text86                         000E90  000017  000EA7      1D20       0  CODE        2
                text85                         000EA7  000017  000EBE      1D4E       0  CODE        2
                text84                         000EBE  000017  000ED5      1D7C       0  CODE        2
                text11                         000ED5  000018  000EED      1DAA       0  CODE        2
                text12                         000EED  000019  000F06      1DDA       0  CODE        2
                text60                         000F06  00001A  000F20      1E0C       0  CODE        2
                text72                         000F20  00001C  000F3C      1E40       0  CODE        2
                text10                         000F3C  00001C  000F58      1E78       0  CODE        2
                text9                          000F58  00001C  000F74      1EB0       0  CODE        2
                text7                          000F74  00001C  000F90      1EE8       0  CODE        2
                text27                         000F90  00001F  000FAF      1F20       0  CODE        2
                text67                         000FAF  000027  000FD6      1F5E       0  CODE        2
                text16                         000FD6  00002A  001000      1FAC       0  CODE        2
                stringtext1                    001000  000020  001020      2000       0  STRCODE     2


UNUSED ADDRESS RANGES

        Name                Unused          Largest block    Delta
        BANK0            0006E-0006F               2           1
        BANK1            000A0-000EF              50           1
        BANK10           00520-0056F              50           1
        BANK11           005A0-005EF              50           1
        BANK12           00620-0064F              30           1
        BANK2            00120-0016F              50           1
        BANK3            001A0-001EF              50           1
        BANK4            00220-0026F              50           1
        BANK5            002A0-002EF              50           1
        BANK6            00320-0036F              50           1
        BANK7            003A0-003EF              50           1
        BANK8            00420-0046F              50           1
        BANK9            004A0-004EF              50           1
        BIGRAM           02000-023EF             3F0           1
        CODE             00800-00C6E             46F           2
                         01020-01FFF             7E0
        COMMON           0007C-0007D               2           1
        CONST            00800-00C6E             100           2
                         01020-01FFF             100
        EEDATA           0F000-0F0FF             100           2
        ENTRY            00800-00C6E             100           2
                         01020-01FFF             100
        IDLOC            08000-08003               4           2
        RAM              0006E-0006F               2           1
                         000A0-000EF              50
                         00120-0016F              50
                         001A0-001EF              50
                         00220-0026F              50
                         002A0-002EF              50
                         00320-0036F              50
                         003A0-003EF              50
                         00420-0046F              50
                         004A0-004EF              50
                         00520-0056F              50
                         005A0-005EF              50
                         00620-0064F              30
        SFR0             00000-0001F              20           1
        SFR1             00080-0009F              20           1
        SFR10            00500-0051F              20           1
        SFR11            00580-0059F              20           1
        SFR12            00600-0061F              20           1
        SFR13            00680-006EF              70           1
        SFR14            00700-0076F              70           1
        SFR15            00780-007EF              70           1
        SFR16            00800-0086F              70           1
        SFR17            00880-008EF              70           1
        SFR18            00900-0096F              70           1
        SFR19            00980-009EF              70           1
        SFR2             00100-0011F              20           1
        SFR20            00A00-00A6F              70           1
        SFR21            00A80-00AEF              70           1
        SFR22            00B00-00B6F              70           1
        SFR23            00B80-00BEF              70           1
        SFR24            00C00-00C6F              70           1
        SFR25            00C80-00CEF              70           1
        SFR26            00D00-00D6F              70           1
        SFR27            00D80-00DEF              70           1
        SFR28            00E00-00E6F              70           1
        SFR29            00E80-00EEF              70           1
        SFR3             00180-0019F              20           1
        SFR30            00F00-00F6F              70           1
        SFR31            00F80-00FEF              70           1
        SFR4             00200-0021F              20           1
        SFR5             00280-0029F              20           1
        SFR6             00300-0031F              20           1
        SFR7             00380-0039F              20           1
        SFR8             00400-0041F              20           1
        SFR9             00480-0049F              20           1
        STACK            0204E-023EF             3A2           1
        STRCODE          00800-00C6E             46F           2
                         01020-01FFF             FE0
        STRING           00800-00C6E             100           2
                         01020-01FFF             100

                                  Symbol Table

DELAY_milliseconds@milliseconds                           cstackBANK0  00020
EPWM1_LoadDutyValue@dutyValue                             cstackBANK0  00020
EPWM2_LoadDutyValue@dutyValue                             cstackBANK0  00020
I2C1_Close@returnValue                                    cstackBANK0  00021
I2C1_MasterOperation@read                                 cstackBANK0  00031
I2C1_MasterOperation@returnValue                          cstackBANK0  00032
I2C1_MasterSendTxData@data                                cstackBANK0  00020
I2C1_Open@address                                         cstackBANK0  00021
I2C1_Open@returnValue                                     cstackBANK0  00022
I2C1_Read1ByteRegister@address                            cstackBANK0  00035
I2C1_Read1ByteRegister@reg                                cstackBANK0  00033
I2C1_Read1ByteRegister@returnValue                        cstackBANK0  00036
I2C1_SetAddressNackCallback@cb                            cstackBANK0  00025
I2C1_SetAddressNackCallback@ptr                           cstackBANK0  00027
I2C1_SetBuffer@buffer                                     cstackBANK0  00023
I2C1_SetBuffer@bufferSize                                 cstackBANK0  00020
I2C1_SetCallback@cb                                       cstackBANK0  00020
I2C1_SetCallback@idx                                      cstackBANK0  00024
I2C1_SetCallback@ptr                                      cstackBANK0  00022
I2C1_SetDataCompleteCallback@cb                           cstackBANK0  00025
I2C1_SetDataCompleteCallback@ptr                          cstackBANK0  00027
I2C1_Write1ByteRegister@address                           cstackBANK0  00036
I2C1_Write1ByteRegister@data                              cstackBANK0  00034
I2C1_Write1ByteRegister@reg                               cstackBANK0  00033
IOCBF7_SetInterruptHandler@InterruptHandler               cstackBANK0  00020
PWM4_LoadDutyValue@dutyValue                              cstackBANK0  00020
_ANSELA                                                   (abs)        0018C
_ANSELB                                                   (abs)        0018D
_ANSELC                                                   (abs)        0018E
_APFCON0                                                  (abs)        0011D
_APFCON1                                                  (abs)        0011E
_BORCON                                                   (abs)        00116
_ButtonInterrupt                                          text79       00C8D
_CCP1CON                                                  (abs)        00293
_CCP2AS                                                   (abs)        0029C
_CCP2CON                                                  (abs)        0029A
_CCP4CON                                                  (abs)        0031A
_CCPR1H                                                   (abs)        00292
_CCPR1L                                                   (abs)        00291
_CCPR2H                                                   (abs)        00299
_CCPR2L                                                   (abs)        00298
_CCPR4H                                                   (abs)        00319
_CCPR4L                                                   (abs)        00318
_CCPTMRSbits                                              (abs)        0029E
_DELAY_milliseconds                                       text11       00ED5
_ECCP1AS                                                  (abs)        00295
_EPWM1_Initialize                                         text21       00D79
_EPWM1_LoadDutyValue                                      text10       00F3C
_EPWM2_Initialize                                         text20       00D87
_EPWM2_LoadDutyValue                                      text9        00F58
_I2C1_CallbackReturnReset                                 text58       00002
_I2C1_CallbackReturnStop                                  text59       00C70
_I2C1_Close                                               text72       00F20
_I2C1_DO_ADDRESS_NACK                                     text31       0078D
_I2C1_DO_IDLE                                             text45       00C9D
_I2C1_DO_RCEN                                             text40       00CED
_I2C1_DO_RESET                                            text32       00CC5
_I2C1_DO_RX                                               text41       0060D
_I2C1_DO_RX_ACK                                           text35       00CB6
_I2C1_DO_RX_NACK_RESTART                                  text33       00CC0
_I2C1_DO_RX_NACK_STOP                                     text34       00CBB
_I2C1_DO_SEND_ADR_READ                                    text44       00D0D
_I2C1_DO_SEND_ADR_WRITE                                   text43       00CF4
_I2C1_DO_SEND_RESTART                                     text37       00CAC
_I2C1_DO_SEND_RESTART_READ                                text39       00CA2
_I2C1_DO_SEND_RESTART_WRITE                               text38       00CA7
_I2C1_DO_SEND_STOP                                        text36       00CB1
_I2C1_DO_TX                                               text42       005B7
_I2C1_DO_TX_EMPTY                                         text46       0072F
_I2C1_Initialize                                          text19       00D16
_I2C1_MasterClearIrq                                      text75       00C72
_I2C1_MasterClose                                         text74       00C75
_I2C1_MasterDisableIrq                                    text73       00C78
_I2C1_MasterEnableRestart                                 text70       00C7E
_I2C1_MasterFsm                                           text30       007BA
_I2C1_MasterGetRxData                                     text51       00C87
_I2C1_MasterIsNack                                        text48       00CD5
_I2C1_MasterOpen                                          text25       00D42
_I2C1_MasterOperation                                     text27       00F90
_I2C1_MasterSendAck                                       text50       00C95
_I2C1_MasterSendNack                                      text52       00C91
_I2C1_MasterSendTxData                                    text49       00CCF
_I2C1_MasterSetIrq                                        text47       00C8A
_I2C1_MasterStart                                         text71       00C7B
_I2C1_MasterStartRx                                       text53       00C84
_I2C1_MasterStop                                          text69       00C81
_I2C1_MasterWaitForEvent                                  text29       00CDB
_I2C1_MasterWrite                                         text26       00CCA
_I2C1_Open                                                text24       00654
_I2C1_Poller                                              text28       00D35
_I2C1_Read1ByteRegister                                   text8        0068F
_I2C1_SetAddressNackCallback                              text23       00D6B
_I2C1_SetBuffer                                           text68       00D95
_I2C1_SetCallback                                         text67       00FAF
_I2C1_SetDataCompleteCallback                             text66       00D5D
_I2C1_Status                                              bssBANK0     0004C
_I2C1_Write1ByteRegister                                  text22       006C7
_INTCONbits                                               (abs)        0000B
_INTERRUPT_InterruptManager                               intentry     00004
_IOCBF7_DefaultInterruptHandler                           text80       00C6F
_IOCBF7_ISR                                               text78       00D4F
_IOCBF7_InterruptHandler                                  nvCOMMON     0007A
_IOCBF7_SetInterruptHandler                               text17       00CE1
_IOCBFbits                                                (abs)        00396
_IOCBNbits                                                (abs)        00395
_IOCBPbits                                                (abs)        00394
_LATA                                                     (abs)        0010C
_LATB                                                     (abs)        0010D
_LATC                                                     (abs)        0010E
_OPTION_REGbits                                           (abs)        00095
_OSCCON                                                   (abs)        00099
_OSCILLATOR_Initialize                                    text18       00D29
_OSCTUNE                                                  (abs)        00098
_PIE1bits                                                 (abs)        00091
_PIN_MANAGER_IOC                                          text77       00D04
_PIN_MANAGER_Initialize                                   text16       00FD6
_PIR1bits                                                 (abs)        00011
_PIR2bits                                                 (abs)        00012
_PLLR                                                     (abs)        004D6
_PR2                                                      (abs)        0001B
_PSTR1CON                                                 (abs)        00296
_PSTR2CON                                                 (abs)        0029D
_PWM1CON                                                  (abs)        00294
_PWM2CON                                                  (abs)        0029B
_PWM4_Initialize                                          text15       00D1F
_PWM4_LoadDutyValue                                       text7        00F74
_SSP1ADD                                                  (abs)        00212
_SSP1BUF                                                  (abs)        00211
_SSP1CON1                                                 (abs)        00215
_SSP1CON1bits                                             (abs)        00215
_SSP1CON2                                                 (abs)        00216
_SSP1CON2bits                                             (abs)        00216
_SSP1STAT                                                 (abs)        00214
_SSP1STATbits                                             (abs)        00214
_SYSTEM_Initialize                                        text12       00EED
_T2CON                                                    (abs)        0001C
_T2CONbits                                                (abs)        0001C
_TMR2                                                     (abs)        0001A
_TMR2_Initialize                                          text14       00CFC
_TRISA                                                    (abs)        0008C
_TRISB                                                    (abs)        0008D
_TRISC                                                    (abs)        0008E
_WDTCON                                                   (abs)        00097
_WDT_Initialize                                           text13       00C99
_WPUA                                                     (abs)        0020C
_WPUB                                                     (abs)        0020D
_WPUC                                                     (abs)        0020E
__Habs1                                                   abs1         00000
__Hbank0                                                  bank0        00000
__Hbank1                                                  bank1        00000
__Hbank10                                                 bank10       00000
__Hbank11                                                 bank11       00000
__Hbank12                                                 bank12       00000
__Hbank13                                                 bank13       00000
__Hbank14                                                 bank14       00000
__Hbank15                                                 bank15       00000
__Hbank16                                                 bank16       00000
__Hbank17                                                 bank17       00000
__Hbank18                                                 bank18       00000
__Hbank19                                                 bank19       00000
__Hbank2                                                  bank2        00000
__Hbank20                                                 bank20       00000
__Hbank21                                                 bank21       00000
__Hbank22                                                 bank22       00000
__Hbank23                                                 bank23       00000
__Hbank24                                                 bank24       00000
__Hbank25                                                 bank25       00000
__Hbank26                                                 bank26       00000
__Hbank27                                                 bank27       00000
__Hbank28                                                 bank28       00000
__Hbank29                                                 bank29       00000
__Hbank3                                                  bank3        00000
__Hbank30                                                 bank30       00000
__Hbank31                                                 bank31       00000
__Hbank4                                                  bank4        00000
__Hbank5                                                  bank5        00000
__Hbank6                                                  bank6        00000
__Hbank7                                                  bank7        00000
__Hbank8                                                  bank8        00000
__Hbank9                                                  bank9        00000
__Hbigram                                                 bigram       00000
__HbssBANK0                                               bssBANK0     00000
__Hcinit                                                  cinit        00025
__Hclrtext                                                clrtext      00000
__Hcode                                                   code         00000
__Hcommon                                                 common       00000
__Hconfig                                                 config       08009
__HcstackBANK0                                            cstackBANK0  00000
__HcstackCOMMON                                           cstackCOMMON 00000
__HdataBANK0                                              dataBANK0    00000
__Heeprom_data                                            eeprom_data  00000
__Hend_init                                               end_init     00015
__Hfunctab                                                functab      00000
__HidataBANK0                                             idataBANK0   00000
__Hinit                                                   init         00013
__Hintentry                                               intentry     00013
__Hmaintext                                               maintext     00000
__HnvCOMMON                                               nvCOMMON     00000
__Hpowerup                                                powerup      00000
__Hram                                                    ram          00000
__Hreset_vec                                              reset_vec    00002
__Hsfr0                                                   sfr0         00000
__Hsfr1                                                   sfr1         00000
__Hsfr10                                                  sfr10        00000
__Hsfr11                                                  sfr11        00000
__Hsfr12                                                  sfr12        00000
__Hsfr13                                                  sfr13        00000
__Hsfr14                                                  sfr14        00000
__Hsfr15                                                  sfr15        00000
__Hsfr16                                                  sfr16        00000
__Hsfr17                                                  sfr17        00000
__Hsfr18                                                  sfr18        00000
__Hsfr19                                                  sfr19        00000
__Hsfr2                                                   sfr2         00000
__Hsfr20                                                  sfr20        00000
__Hsfr21                                                  sfr21        00000
__Hsfr22                                                  sfr22        00000
__Hsfr23                                                  sfr23        00000
__Hsfr24                                                  sfr24        00000
__Hsfr25                                                  sfr25        00000
__Hsfr26                                                  sfr26        00000
__Hsfr27                                                  sfr27        00000
__Hsfr28                                                  sfr28        00000
__Hsfr29                                                  sfr29        00000
__Hsfr3                                                   sfr3         00000
__Hsfr30                                                  sfr30        00000
__Hsfr31                                                  sfr31        00000
__Hsfr4                                                   sfr4         00000
__Hsfr5                                                   sfr5         00000
__Hsfr6                                                   sfr6         00000
__Hsfr7                                                   sfr7         00000
__Hsfr8                                                   sfr8         00000
__Hsfr9                                                   sfr9         00000
__Hspace_0                                                (abs)        01020
__Hspace_1                                                (abs)        0007C
__Hspace_2                                                (abs)        00000
__Hspace_3                                                (abs)        00000
__Hspace_4                                                (abs)        10010
__Hstack                                                  stack        00000
__Hstrings                                                strings      00000
__Hstringtext1                                            stringtext1  00000
__Htext                                                   text         00000
__Labs1                                                   abs1         00000
__Lbank0                                                  bank0        00000
__Lbank1                                                  bank1        00000
__Lbank10                                                 bank10       00000
__Lbank11                                                 bank11       00000
__Lbank12                                                 bank12       00000
__Lbank13                                                 bank13       00000
__Lbank14                                                 bank14       00000
__Lbank15                                                 bank15       00000
__Lbank16                                                 bank16       00000
__Lbank17                                                 bank17       00000
__Lbank18                                                 bank18       00000
__Lbank19                                                 bank19       00000
__Lbank2                                                  bank2        00000
__Lbank20                                                 bank20       00000
__Lbank21                                                 bank21       00000
__Lbank22                                                 bank22       00000
__Lbank23                                                 bank23       00000
__Lbank24                                                 bank24       00000
__Lbank25                                                 bank25       00000
__Lbank26                                                 bank26       00000
__Lbank27                                                 bank27       00000
__Lbank28                                                 bank28       00000
__Lbank29                                                 bank29       00000
__Lbank3                                                  bank3        00000
__Lbank30                                                 bank30       00000
__Lbank31                                                 bank31       00000
__Lbank4                                                  bank4        00000
__Lbank5                                                  bank5        00000
__Lbank6                                                  bank6        00000
__Lbank7                                                  bank7        00000
__Lbank8                                                  bank8        00000
__Lbank9                                                  bank9        00000
__Lbigram                                                 bigram       00000
__LbssBANK0                                               bssBANK0     00000
__Lcinit                                                  cinit        00015
__Lclrtext                                                clrtext      00000
__Lcode                                                   code         00000
__Lcommon                                                 common       00000
__Lconfig                                                 config       00000
__LcstackBANK0                                            cstackBANK0  00000
__LcstackCOMMON                                           cstackCOMMON 00000
__LdataBANK0                                              dataBANK0    00000
__Leeprom_data                                            eeprom_data  00000
__Lend_init                                               end_init     00013
__Lfunctab                                                functab      00000
__LidataBANK0                                             idataBANK0   00000
__Linit                                                   init         00013
__Lintentry                                               intentry     00004
__Lmaintext                                               maintext     00000
__LnvCOMMON                                               nvCOMMON     00000
__Lpowerup                                                powerup      00000
__Lram                                                    ram          00000
__Lreset_vec                                              reset_vec    00000
__Lsfr0                                                   sfr0         00000
__Lsfr1                                                   sfr1         00000
__Lsfr10                                                  sfr10        00000
__Lsfr11                                                  sfr11        00000
__Lsfr12                                                  sfr12        00000
__Lsfr13                                                  sfr13        00000
__Lsfr14                                                  sfr14        00000
__Lsfr15                                                  sfr15        00000
__Lsfr16                                                  sfr16        00000
__Lsfr17                                                  sfr17        00000
__Lsfr18                                                  sfr18        00000
__Lsfr19                                                  sfr19        00000
__Lsfr2                                                   sfr2         00000
__Lsfr20                                                  sfr20        00000
__Lsfr21                                                  sfr21        00000
__Lsfr22                                                  sfr22        00000
__Lsfr23                                                  sfr23        00000
__Lsfr24                                                  sfr24        00000
__Lsfr25                                                  sfr25        00000
__Lsfr26                                                  sfr26        00000
__Lsfr27                                                  sfr27        00000
__Lsfr28                                                  sfr28        00000
__Lsfr29                                                  sfr29        00000
__Lsfr3                                                   sfr3         00000
__Lsfr30                                                  sfr30        00000
__Lsfr31                                                  sfr31        00000
__Lsfr4                                                   sfr4         00000
__Lsfr5                                                   sfr5         00000
__Lsfr6                                                   sfr6         00000
__Lsfr7                                                   sfr7         00000
__Lsfr8                                                   sfr8         00000
__Lsfr9                                                   sfr9         00000
__Lspace_0                                                (abs)        00000
__Lspace_1                                                (abs)        00000
__Lspace_2                                                (abs)        00000
__Lspace_3                                                (abs)        00000
__Lspace_4                                                (abs)        00000
__Lstack                                                  stack        00000
__Lstrings                                                strings      00000
__Lstringtext1                                            stringtext1  00000
__Ltext                                                   text         00000
__S0                                                      (abs)        01020
__S1                                                      (abs)        0007C
__S2                                                      (abs)        00000
__S3                                                      (abs)        00000
___int_sp                                                 stack        00000
___latbits                                                (abs)        00002
___sp                                                     stack        00000
___stackhi                                                (abs)        023EF
___stacklo                                                (abs)        0204E
__end_of_ButtonInterrupt                                  text79       00C91
__end_of_DELAY_milliseconds                               text11       00EED
__end_of_EPWM1_Initialize                                 text21       00D87
__end_of_EPWM1_LoadDutyValue                              text10       00F58
__end_of_EPWM2_Initialize                                 text20       00D95
__end_of_EPWM2_LoadDutyValue                              text9        00F74
__end_of_I2C1_CallbackReturnReset                         text58       00004
__end_of_I2C1_CallbackReturnStop                          text59       00C72
__end_of_I2C1_Close                                       text72       00F3C
__end_of_I2C1_DO_ADDRESS_NACK                             text31       007BA
__end_of_I2C1_DO_IDLE                                     text45       00CA2
__end_of_I2C1_DO_RCEN                                     text40       00CF4
__end_of_I2C1_DO_RESET                                    text32       00CCA
__end_of_I2C1_DO_RX                                       text41       00654
__end_of_I2C1_DO_RX_ACK                                   text35       00CBB
__end_of_I2C1_DO_RX_NACK_RESTART                          text33       00CC5
__end_of_I2C1_DO_RX_NACK_STOP                             text34       00CC0
__end_of_I2C1_DO_SEND_ADR_READ                            text44       00D16
__end_of_I2C1_DO_SEND_ADR_WRITE                           text43       00CFC
__end_of_I2C1_DO_SEND_RESTART                             text37       00CB1
__end_of_I2C1_DO_SEND_RESTART_READ                        text39       00CA7
__end_of_I2C1_DO_SEND_RESTART_WRITE                       text38       00CAC
__end_of_I2C1_DO_SEND_STOP                                text36       00CB6
__end_of_I2C1_DO_TX                                       text42       0060D
__end_of_I2C1_DO_TX_EMPTY                                 text46       0075F
__end_of_I2C1_Initialize                                  text19       00D1F
__end_of_I2C1_MasterClearIrq                              text75       00C75
__end_of_I2C1_MasterClose                                 text74       00C78
__end_of_I2C1_MasterDisableIrq                            text73       00C7B
__end_of_I2C1_MasterEnableRestart                         text70       00C81
__end_of_I2C1_MasterFsm                                   text30       007E5
__end_of_I2C1_MasterGetRxData                             text51       00C8A
__end_of_I2C1_MasterIsNack                                text48       00CDB
__end_of_I2C1_MasterOpen                                  text25       00D4F
__end_of_I2C1_MasterOperation                             text27       00FAF
__end_of_I2C1_MasterSendAck                               text50       00C99
__end_of_I2C1_MasterSendNack                              text52       00C95
__end_of_I2C1_MasterSendTxData                            text49       00CD5
__end_of_I2C1_MasterSetIrq                                text47       00C8D
__end_of_I2C1_MasterStart                                 text71       00C7E
__end_of_I2C1_MasterStartRx                               text53       00C87
__end_of_I2C1_MasterStop                                  text69       00C84
__end_of_I2C1_MasterWaitForEvent                          text29       00CE1
__end_of_I2C1_MasterWrite                                 text26       00CCF
__end_of_I2C1_Open                                        text24       0068F
__end_of_I2C1_Poller                                      text28       00D42
__end_of_I2C1_Read1ByteRegister                           text8        006C7
__end_of_I2C1_SetAddressNackCallback                      text23       00D79
__end_of_I2C1_SetBuffer                                   text68       00DA5
__end_of_I2C1_SetCallback                                 text67       00FD6
__end_of_I2C1_SetDataCompleteCallback                     text66       00D6B
__end_of_I2C1_Write1ByteRegister                          text22       006FC
__end_of_INTERRUPT_InterruptManager                       intentry     00013
__end_of_IOCBF7_DefaultInterruptHandler                   text80       00C70
__end_of_IOCBF7_ISR                                       text78       00D5D
__end_of_IOCBF7_SetInterruptHandler                       text17       00CE7
__end_of_OSCILLATOR_Initialize                            text18       00D35
__end_of_PIN_MANAGER_IOC                                  text77       00D0D
__end_of_PIN_MANAGER_Initialize                           text16       01000
__end_of_PWM4_Initialize                                  text15       00D29
__end_of_PWM4_LoadDutyValue                               text7        00F90
__end_of_SYSTEM_Initialize                                text12       00F06
__end_of_TMR2_Initialize                                  text14       00D04
__end_of_WDT_Initialize                                   text13       00C9D
__end_of__initialization                                  cinit        00021
__end_of_flashRED                                         text2        0072F
__end_of_i2c1_fsmStateTable                               stringtext1  01020
__end_of_lightsOff                                        text3        00E90
__end_of_lumos                                            text5        005B7
__end_of_main                                             maintext     00311
__end_of_mathAbs                                          text6        00E64
__end_of_patronus                                         text4        003F7
__end_of_rd1RegCompleteHandler                            text64       00DDE
__end_of_rd1RegCompleteHandler@i2c_simple_master$F1293    text56       00E3D
__end_of_rd2RegCompleteHandler                            text63       00DF1
__end_of_rd2RegCompleteHandler@i2c_simple_master$F1301    text55       00E50
__end_of_rdBlkRegCompleteHandler                          text60       00F20
__end_of_rdBlkRegCompleteHandler@i2c_simple_master$F1313  text54       007FF
__end_of_sparks                                           text1        004AC
__end_of_wr1RegCompleteHandler                            text62       00E04
__end_of_wr1RegCompleteHandler@i2c_simple_master$F1283    text57       00E2A
__end_of_wr2RegCompleteHandler                            text61       00E17
__end_of_wr2RegCompleteHandler@i2c_simple_master$F1307    text65       00DCB
__end_ofi1_DELAY_milliseconds                             text87       00E7A
__end_ofi1_EPWM1_LoadDutyValue                            text86       00EA7
__end_ofi1_EPWM2_LoadDutyValue                            text85       00EBE
__end_ofi1_PWM4_LoadDutyValue                             text84       00ED5
__end_ofi1_flashRED                                       text82       0078D
__end_ofi1_lightsOff                                      text83       00DB8
__end_ofi1_sparks                                         text81       00551
__initialization                                          cinit        00015
__pbssBANK0                                               bssBANK0     0004C
__pcstackBANK0                                            cstackBANK0  00020
__pcstackCOMMON                                           cstackCOMMON 00070
__pdataBANK0                                              dataBANK0    0006D
__pidataBANK0                                             idataBANK0   007FF
__pintentry                                               intentry     00004
__pmaintext                                               maintext     00025
__pnvCOMMON                                               nvCOMMON     0007A
__pstringtext1                                            stringtext1  01000
__ptext1                                                  text1        003F7
__ptext10                                                 text10       00F3C
__ptext11                                                 text11       00ED5
__ptext12                                                 text12       00EED
__ptext13                                                 text13       00C99
__ptext14                                                 text14       00CFC
__ptext15                                                 text15       00D1F
__ptext16                                                 text16       00FD6
__ptext17                                                 text17       00CE1
__ptext18                                                 text18       00D29
__ptext19                                                 text19       00D16
__ptext2                                                  text2        006FC
__ptext20                                                 text20       00D87
__ptext21                                                 text21       00D79
__ptext22                                                 text22       006C7
__ptext23                                                 text23       00D6B
__ptext24                                                 text24       00654
__ptext25                                                 text25       00D42
__ptext26                                                 text26       00CCA
__ptext27                                                 text27       00F90
__ptext28                                                 text28       00D35
__ptext29                                                 text29       00CDB
__ptext3                                                  text3        00E7A
__ptext30                                                 text30       007BA
__ptext31                                                 text31       0078D
__ptext32                                                 text32       00CC5
__ptext33                                                 text33       00CC0
__ptext34                                                 text34       00CBB
__ptext35                                                 text35       00CB6
__ptext36                                                 text36       00CB1
__ptext37                                                 text37       00CAC
__ptext38                                                 text38       00CA7
__ptext39                                                 text39       00CA2
__ptext4                                                  text4        00311
__ptext40                                                 text40       00CED
__ptext41                                                 text41       0060D
__ptext42                                                 text42       005B7
__ptext43                                                 text43       00CF4
__ptext44                                                 text44       00D0D
__ptext45                                                 text45       00C9D
__ptext46                                                 text46       0072F
__ptext47                                                 text47       00C8A
__ptext48                                                 text48       00CD5
__ptext49                                                 text49       00CCF
__ptext5                                                  text5        00551
__ptext50                                                 text50       00C95
__ptext51                                                 text51       00C87
__ptext52                                                 text52       00C91
__ptext53                                                 text53       00C84
__ptext54                                                 text54       007E5
__ptext55                                                 text55       00E3D
__ptext56                                                 text56       00E2A
__ptext57                                                 text57       00E17
__ptext58                                                 text58       00002
__ptext59                                                 text59       00C70
__ptext6                                                  text6        00E50
__ptext60                                                 text60       00F06
__ptext61                                                 text61       00E04
__ptext62                                                 text62       00DF1
__ptext63                                                 text63       00DDE
__ptext64                                                 text64       00DCB
__ptext65                                                 text65       00DB8
__ptext66                                                 text66       00D5D
__ptext67                                                 text67       00FAF
__ptext68                                                 text68       00D95
__ptext69                                                 text69       00C81
__ptext7                                                  text7        00F74
__ptext70                                                 text70       00C7E
__ptext71                                                 text71       00C7B
__ptext72                                                 text72       00F20
__ptext73                                                 text73       00C78
__ptext74                                                 text74       00C75
__ptext75                                                 text75       00C72
__ptext77                                                 text77       00D04
__ptext78                                                 text78       00D4F
__ptext79                                                 text79       00C8D
__ptext8                                                  text8        0068F
__ptext80                                                 text80       00C6F
__ptext81                                                 text81       004AC
__ptext82                                                 text82       0075F
__ptext83                                                 text83       00DA5
__ptext84                                                 text84       00EBE
__ptext85                                                 text85       00EA7
__ptext86                                                 text86       00E90
__ptext87                                                 text87       00E64
__ptext9                                                  text9        00F58
__size_of_ButtonInterrupt                                 (abs)        00000
__size_of_DELAY_milliseconds                              (abs)        00000
__size_of_EPWM1_Initialize                                (abs)        00000
__size_of_EPWM1_LoadDutyValue                             (abs)        00000
__size_of_EPWM2_Initialize                                (abs)        00000
__size_of_EPWM2_LoadDutyValue                             (abs)        00000
__size_of_I2C1_CallbackReturnReset                        (abs)        00000
__size_of_I2C1_CallbackReturnStop                         (abs)        00000
__size_of_I2C1_Close                                      (abs)        00000
__size_of_I2C1_DO_ADDRESS_NACK                            (abs)        00000
__size_of_I2C1_DO_IDLE                                    (abs)        00000
__size_of_I2C1_DO_RCEN                                    (abs)        00000
__size_of_I2C1_DO_RESET                                   (abs)        00000
__size_of_I2C1_DO_RX                                      (abs)        00000
__size_of_I2C1_DO_RX_ACK                                  (abs)        00000
__size_of_I2C1_DO_RX_NACK_RESTART                         (abs)        00000
__size_of_I2C1_DO_RX_NACK_STOP                            (abs)        00000
__size_of_I2C1_DO_SEND_ADR_READ                           (abs)        00000
__size_of_I2C1_DO_SEND_ADR_WRITE                          (abs)        00000
__size_of_I2C1_DO_SEND_RESTART                            (abs)        00000
__size_of_I2C1_DO_SEND_RESTART_READ                       (abs)        00000
__size_of_I2C1_DO_SEND_RESTART_WRITE                      (abs)        00000
__size_of_I2C1_DO_SEND_STOP                               (abs)        00000
__size_of_I2C1_DO_TX                                      (abs)        00000
__size_of_I2C1_DO_TX_EMPTY                                (abs)        00000
__size_of_I2C1_Initialize                                 (abs)        00000
__size_of_I2C1_MasterClearIrq                             (abs)        00000
__size_of_I2C1_MasterClose                                (abs)        00000
__size_of_I2C1_MasterDisableIrq                           (abs)        00000
__size_of_I2C1_MasterEnableRestart                        (abs)        00000
__size_of_I2C1_MasterFsm                                  (abs)        00000
__size_of_I2C1_MasterGetRxData                            (abs)        00000
__size_of_I2C1_MasterIsNack                               (abs)        00000
__size_of_I2C1_MasterOpen                                 (abs)        00000
__size_of_I2C1_MasterOperation                            (abs)        00000
__size_of_I2C1_MasterSendAck                              (abs)        00000
__size_of_I2C1_MasterSendNack                             (abs)        00000
__size_of_I2C1_MasterSendTxData                           (abs)        00000
__size_of_I2C1_MasterSetIrq                               (abs)        00000
__size_of_I2C1_MasterStart                                (abs)        00000
__size_of_I2C1_MasterStartRx                              (abs)        00000
__size_of_I2C1_MasterStop                                 (abs)        00000
__size_of_I2C1_MasterWaitForEvent                         (abs)        00000
__size_of_I2C1_MasterWrite                                (abs)        00000
__size_of_I2C1_Open                                       (abs)        00000
__size_of_I2C1_Poller                                     (abs)        00000
__size_of_I2C1_Read1ByteRegister                          (abs)        00000
__size_of_I2C1_SetAddressNackCallback                     (abs)        00000
__size_of_I2C1_SetBuffer                                  (abs)        00000
__size_of_I2C1_SetCallback                                (abs)        00000
__size_of_I2C1_SetDataCompleteCallback                    (abs)        00000
__size_of_I2C1_Write1ByteRegister                         (abs)        00000
__size_of_INTERRUPT_InterruptManager                      (abs)        00000
__size_of_IOCBF7_DefaultInterruptHandler                  (abs)        00000
__size_of_IOCBF7_ISR                                      (abs)        00000
__size_of_IOCBF7_SetInterruptHandler                      (abs)        00000
__size_of_OSCILLATOR_Initialize                           (abs)        00000
__size_of_PIN_MANAGER_IOC                                 (abs)        00000
__size_of_PIN_MANAGER_Initialize                          (abs)        00000
__size_of_PWM4_Initialize                                 (abs)        00000
__size_of_PWM4_LoadDutyValue                              (abs)        00000
__size_of_SYSTEM_Initialize                               (abs)        00000
__size_of_TMR2_Initialize                                 (abs)        00000
__size_of_WDT_Initialize                                  (abs)        00000
__size_of_flashRED                                        (abs)        00000
__size_of_lightsOff                                       (abs)        00000
__size_of_lumos                                           (abs)        00000
__size_of_main                                            (abs)        00000
__size_of_mathAbs                                         (abs)        00000
__size_of_patronus                                        (abs)        00000
__size_of_rd1RegCompleteHandler                           (abs)        00000
__size_of_rd1RegCompleteHandler@i2c_simple_master$F1293   (abs)        00000
__size_of_rd2RegCompleteHandler                           (abs)        00000
__size_of_rd2RegCompleteHandler@i2c_simple_master$F1301   (abs)        00000
__size_of_rdBlkRegCompleteHandler                         (abs)        00000
__size_of_rdBlkRegCompleteHandler@i2c_simple_master$F1313 (abs)        00000
__size_of_sparks                                          (abs)        00000
__size_of_wr1RegCompleteHandler                           (abs)        00000
__size_of_wr1RegCompleteHandler@i2c_simple_master$F1283   (abs)        00000
__size_of_wr2RegCompleteHandler                           (abs)        00000
__size_of_wr2RegCompleteHandler@i2c_simple_master$F1307   (abs)        00000
__size_ofi1_DELAY_milliseconds                            (abs)        00000
__size_ofi1_EPWM1_LoadDutyValue                           (abs)        00000
__size_ofi1_EPWM2_LoadDutyValue                           (abs)        00000
__size_ofi1_PWM4_LoadDutyValue                            (abs)        00000
__size_ofi1_flashRED                                      (abs)        00000
__size_ofi1_lightsOff                                     (abs)        00000
__size_ofi1_sparks                                        (abs)        00000
_flashRED                                                 text2        006FC
_i2c1_fsmStateTable                                       stringtext1  01000
_lightsOff                                                text3        00E7A
_lumos                                                    text5        00551
_main                                                     maintext     00025
_mathAbs                                                  text6        00E50
_moves                                                    bssBANK0     00069
_part                                                     dataBANK0    0006D
_patronus                                                 text4        00311
_rd1RegCompleteHandler                                    text64       00DCB
_rd1RegCompleteHandler@i2c_simple_master$F1293            text56       00E2A
_rd2RegCompleteHandler                                    text63       00DDE
_rd2RegCompleteHandler@i2c_simple_master$F1301            text55       00E3D
_rdBlkRegCompleteHandler                                  text60       00F06
_rdBlkRegCompleteHandler@i2c_simple_master$F1313          text54       007E5
_sparks                                                   text1        003F7
_wr1RegCompleteHandler                                    text62       00DF1
_wr1RegCompleteHandler@i2c_simple_master$F1283            text57       00E17
_wr2RegCompleteHandler                                    text61       00E04
_wr2RegCompleteHandler@i2c_simple_master$F1307            text65       00DB8
btemp                                                     (abs)        0007E
clear_ram0                                                clrtext      00CE7
end_of_initialization                                     cinit        00021
flashRED@i                                                cstackBANK0  00026
i1DELAY_milliseconds@milliseconds                         cstackCOMMON 00070
i1EPWM1_LoadDutyValue@dutyValue                           cstackCOMMON 00070
i1EPWM2_LoadDutyValue@dutyValue                           cstackCOMMON 00070
i1PWM4_LoadDutyValue@dutyValue                            cstackCOMMON 00070
i1_DELAY_milliseconds                                     text87       00E64
i1_EPWM1_LoadDutyValue                                    text86       00E90
i1_EPWM2_LoadDutyValue                                    text85       00EA7
i1_PWM4_LoadDutyValue                                     text84       00EBE
i1_flashRED                                               text82       0075F
i1_lightsOff                                              text83       00DA5
i1_sparks                                                 text81       004AC
i1flashRED@i                                              cstackCOMMON 00076
i1sparks@i                                                cstackCOMMON 00079
int$flags                                                 (abs)        0007E
intlevel0                                                 functab      00000
intlevel1                                                 functab      00000
intlevel2                                                 functab      00000
intlevel3                                                 functab      00000
intlevel4                                                 functab      00000
intlevel5                                                 functab      00000
lumos@on                                                  cstackBANK0  0003A
lumos@previous                                            cstackBANK0  00039
main@data                                                 cstackBANK0  00047
main@data_x                                               cstackBANK0  00049
main@data_y                                               cstackBANK0  0004A
main@data_z                                               cstackBANK0  0004B
main@previous_data_x                                      cstackBANK0  00044
main@previous_data_y                                      cstackBANK0  00045
main@previous_data_z                                      cstackBANK0  00046
main@timer                                                cstackBANK0  00048
mathAbs@num                                               cstackBANK0  00020
patronus@i                                                cstackBANK0  00026
rd1RegCompleteHandler@i2c_simple_master$F1293@p           cstackBANK0  00029
rd1RegCompleteHandler@ptr                                 cstackBANK0  00029
rd2RegCompleteHandler@i2c_simple_master$F1301@p           cstackBANK0  00029
rd2RegCompleteHandler@ptr                                 cstackBANK0  00029
rdBlkRegCompleteHandler@i2c_simple_master$F1313@p         cstackBANK0  00029
rdBlkRegCompleteHandler@ptr                               cstackBANK0  00029
reset_vec                                                 reset_vec    00000
sparks@i                                                  cstackBANK0  00029
start                                                     init         00013
start_initialization                                      cinit        00015
wr1RegCompleteHandler@i2c_simple_master$F1283@p           cstackBANK0  00029
wr1RegCompleteHandler@ptr                                 cstackBANK0  00029
wr2RegCompleteHandler@i2c_simple_master$F1307@p           cstackBANK0  00029
wr2RegCompleteHandler@ptr                                 cstackBANK0  00029
wtemp0                                                    (abs)        0007E


MODULE INFORMATION

Module		Function		Class		Link	Load	Size
mcc_generated_files/examples/i2c1_master_example.c
		_wr1RegCompleteHandler		CODE           	0DF1	0000	19
		_wr2RegCompleteHandler		CODE           	0E04	0000	19
		_I2C1_Write1ByteRegister		CODE           	06C7	0000	53
		_rdBlkRegCompleteHandler		CODE           	0F06	0000	26
		_rd1RegCompleteHandler		CODE           	0DCB	0000	19
		_rd2RegCompleteHandler		CODE           	0DDE	0000	19
		_I2C1_Read1ByteRegister		CODE           	068F	0000	56

mcc_generated_files/examples/i2c1_master_example.c estimated size: 211

mcc_generated_files/i2c1_master.c
		_I2C1_DO_SEND_RESTART		CODE           	0CAC	0000	5
		_I2C1_DO_TX_EMPTY		CODE           	072F	0000	48
		_I2C1_DO_SEND_RESTART_READ		CODE           	0CA2	0000	5
		_I2C1_CallbackReturnStop		CODE           	0C70	0000	2
		_I2C1_DO_RX    		CODE           	060D	0000	71
		_I2C1_DO_TX    		CODE           	05B7	0000	86
		_I2C1_SetAddressNackCallback		CODE           	0D6B	0000	14
		_I2C1_DO_IDLE  		CODE           	0C9D	0000	5
		_I2C1_MasterOpen		CODE           	0D42	0000	13
		_I2C1_DO_RCEN  		CODE           	0CED	0000	7
		_I2C1_MasterSendTxData		CODE           	0CCF	0000	6
		_I2C1_MasterStop		CODE           	0C81	0000	3
		_I2C1_CallbackReturnReset		CODE           	0002	0000	2
		_I2C1_DO_RESET 		CODE           	0CC5	0000	5
		_I2C1_MasterStartRx		CODE           	0C84	0000	3
		_I2C1_Poller   		CODE           	0D35	0000	13
		_I2C1_DO_RX_ACK		CODE           	0CB6	0000	5
		_I2C1_MasterWaitForEvent		CODE           	0CDB	0000	6
		_I2C1_MasterSendNack		CODE           	0C91	0000	4
		_I2C1_DO_RX_NACK_RESTART		CODE           	0CC0	0000	5
		_I2C1_MasterDisableIrq		CODE           	0C78	0000	3
		_I2C1_MasterOperation		CODE           	0F90	0000	31
		_I2C1_SetCallback		CODE           	0FAF	0000	39
		_I2C1_MasterEnableRestart		CODE           	0C7E	0000	3
		_I2C1_Open     		CODE           	0654	0000	59
		_I2C1_DO_ADDRESS_NACK		CODE           	078D	0000	45
		_I2C1_SetBuffer		CODE           	0D95	0000	16
		_I2C1_DO_SEND_RESTART_WRITE		CODE           	0CA7	0000	5
		_I2C1_MasterClose		CODE           	0C75	0000	3
		_I2C1_MasterWrite		CODE           	0CCA	0000	5
		_I2C1_Initialize		CODE           	0D16	0000	9
		_I2C1_Close    		CODE           	0F20	0000	28
		_I2C1_MasterIsNack		CODE           	0CD5	0000	6
		_I2C1_MasterStart		CODE           	0C7B	0000	3
		_I2C1_DO_SEND_ADR_WRITE		CODE           	0CF4	0000	8
		_I2C1_MasterClearIrq		CODE           	0C72	0000	3
		_I2C1_SetDataCompleteCallback		CODE           	0D5D	0000	14
		_I2C1_DO_SEND_STOP		CODE           	0CB1	0000	5
		_I2C1_MasterSendAck		CODE           	0C95	0000	4
		_I2C1_MasterFsm		CODE           	07BA	0000	43
		_I2C1_MasterGetRxData		CODE           	0C87	0000	3
		_I2C1_MasterSetIrq		CODE           	0C8A	0000	3
		_I2C1_DO_SEND_ADR_READ		CODE           	0D0D	0000	9
		_I2C1_DO_RX_NACK_STOP		CODE           	0CBB	0000	5

mcc_generated_files/i2c1_master.c estimated size: 660

mcc_generated_files/pwm4.c
		_PWM4_Initialize		CODE           	0D1F	0000	10
		_PWM4_LoadDutyValue		CODE           	0F74	0000	28

mcc_generated_files/pwm4.c estimated size: 38

mcc_generated_files/tmr2.c
		_TMR2_Initialize		CODE           	0CFC	0000	8

mcc_generated_files/tmr2.c estimated size: 8

mcc_generated_files/interrupt_manager.c
		_INTERRUPT_InterruptManager		CODE           	0004	0000	15

mcc_generated_files/interrupt_manager.c estimated size: 15

mcc_generated_files/epwm2.c
		_EPWM2_LoadDutyValue		CODE           	0F58	0000	28
		_EPWM2_Initialize		CODE           	0D87	0000	14

mcc_generated_files/epwm2.c estimated size: 42

mcc_generated_files/pin_manager.c
		_PIN_MANAGER_Initialize		CODE           	0FD6	0000	42
		_IOCBF7_DefaultInterruptHandler		CODE           	0C6F	0000	1
		_IOCBF7_ISR    		CODE           	0D4F	0000	14
		_PIN_MANAGER_IOC		CODE           	0D04	0000	9
		_IOCBF7_SetInterruptHandler		CODE           	0CE1	0000	6

mcc_generated_files/pin_manager.c estimated size: 72

mcc_generated_files/drivers/i2c_simple_master.c
		_rdBlkRegCompleteHandler@i2c_simple_master$F1313		CODE           	07E5	0000	26
		_wr1RegCompleteHandler@i2c_simple_master$F1283		CODE           	0E17	0000	19
		_wr2RegCompleteHandler@i2c_simple_master$F1307		CODE           	0DB8	0000	19
		_rd1RegCompleteHandler@i2c_simple_master$F1293		CODE           	0E2A	0000	19
		_rd2RegCompleteHandler@i2c_simple_master$F1301		CODE           	0E3D	0000	19

mcc_generated_files/drivers/i2c_simple_master.c estimated size: 102

shared
		i1_EPWM1_LoadDutyValue		CODE           	0E90	0000	23
		i1_DELAY_milliseconds		CODE           	0E64	0000	22
		i1_flashRED    		CODE           	075F	0000	46
		i1_PWM4_LoadDutyValue		CODE           	0EBE	0000	23
		__initialization		CODE           	0015	0000	12
		_i2c1_fsmStateTable		STRCODE        	1000	0000	32
		i1_lightsOff   		CODE           	0DA5	0000	19
		i1_EPWM2_LoadDutyValue		CODE           	0EA7	0000	23
		i1_sparks      		CODE           	04AC	0000	165

shared estimated size: 365

mcc_generated_files/mcc.c
		_WDT_Initialize		CODE           	0C99	0000	4
		_OSCILLATOR_Initialize		CODE           	0D29	0000	12
		_SYSTEM_Initialize		CODE           	0EED	0000	25

mcc_generated_files/mcc.c estimated size: 41

mcc_generated_files/epwm1.c
		_EPWM1_LoadDutyValue		CODE           	0F3C	0000	28
		_EPWM1_Initialize		CODE           	0D79	0000	14

mcc_generated_files/epwm1.c estimated size: 42

mcc_generated_files/delay.c
		_DELAY_milliseconds		CODE           	0ED5	0000	24

mcc_generated_files/delay.c estimated size: 24

main.c
		_ButtonInterrupt		CODE           	0C8D	0000	4
		_flashRED      		CODE           	06FC	0000	51
		_mathAbs       		CODE           	0E50	0000	20
		_main          		CODE           	0025	0000	748
		_patronus      		CODE           	0311	0000	230
		_sparks        		CODE           	03F7	0000	181
		_lightsOff     		CODE           	0E7A	0000	22
		_lumos         		CODE           	0551	0000	102

main.c estimated size: 1358

